
sixIgnoreLock.elf:     file format elf32-littlearm

Sections:
Idx Name          Size      VMA       LMA       File off  Algn
  0 .isr_vector   000001e4  08010000  08010000  00010000  2**0
                  CONTENTS, ALLOC, LOAD, READONLY, DATA
  1 .text         0000b2bc  080101e8  080101e8  000101e8  2**3
                  CONTENTS, ALLOC, LOAD, READONLY, CODE
  2 .rodata       00000978  0801b4a8  0801b4a8  0001b4a8  2**3
                  CONTENTS, ALLOC, LOAD, READONLY, DATA
  3 .ARM          00000008  0801be20  0801be20  0001be20  2**2
                  CONTENTS, ALLOC, LOAD, READONLY, DATA
  4 .init_array   00000004  0801be28  0801be28  0001be28  2**2
                  CONTENTS, ALLOC, LOAD, DATA
  5 .fini_array   00000004  0801be2c  0801be2c  0001be2c  2**2
                  CONTENTS, ALLOC, LOAD, DATA
  6 .data         00000690  20000000  0801be30  00020000  2**2
                  CONTENTS, ALLOC, LOAD, DATA
  7 .bss          00001cb4  20000690  0801c4c0  00020690  2**2
                  ALLOC
  8 ._user_heap_stack 00000200  20002344  0801c4c0  00022344  2**0
                  ALLOC
  9 .ARM.attributes 00000029  00000000  00000000  00020690  2**0
                  CONTENTS, READONLY
 10 .debug_info   00014075  00000000  00000000  000206b9  2**0
                  CONTENTS, READONLY, DEBUGGING
 11 .debug_abbrev 000033c3  00000000  00000000  0003472e  2**0
                  CONTENTS, READONLY, DEBUGGING
 12 .debug_aranges 00000d70  00000000  00000000  00037af8  2**3
                  CONTENTS, READONLY, DEBUGGING
 13 .debug_ranges 00000bb8  00000000  00000000  00038868  2**3
                  CONTENTS, READONLY, DEBUGGING
 14 .debug_line   00007378  00000000  00000000  00039420  2**0
                  CONTENTS, READONLY, DEBUGGING
 15 .debug_str    00003a25  00000000  00000000  00040798  2**0
                  CONTENTS, READONLY, DEBUGGING
 16 .comment      0000007c  00000000  00000000  000441bd  2**0
                  CONTENTS, READONLY
 17 .debug_frame  00004a30  00000000  00000000  0004423c  2**2
                  CONTENTS, READONLY, DEBUGGING

Disassembly of section .text:

080101e8 <__do_global_dtors_aux>:
 80101e8:	b510      	push	{r4, lr}
 80101ea:	4c05      	ldr	r4, [pc, #20]	; (8010200 <__do_global_dtors_aux+0x18>)
 80101ec:	7823      	ldrb	r3, [r4, #0]
 80101ee:	b933      	cbnz	r3, 80101fe <__do_global_dtors_aux+0x16>
 80101f0:	4b04      	ldr	r3, [pc, #16]	; (8010204 <__do_global_dtors_aux+0x1c>)
 80101f2:	b113      	cbz	r3, 80101fa <__do_global_dtors_aux+0x12>
 80101f4:	4804      	ldr	r0, [pc, #16]	; (8010208 <__do_global_dtors_aux+0x20>)
 80101f6:	f3af 8000 	nop.w
 80101fa:	2301      	movs	r3, #1
 80101fc:	7023      	strb	r3, [r4, #0]
 80101fe:	bd10      	pop	{r4, pc}
 8010200:	20000690 	.word	0x20000690
 8010204:	00000000 	.word	0x00000000
 8010208:	0801b48c 	.word	0x0801b48c

0801020c <frame_dummy>:
 801020c:	b508      	push	{r3, lr}
 801020e:	4b03      	ldr	r3, [pc, #12]	; (801021c <frame_dummy+0x10>)
 8010210:	b11b      	cbz	r3, 801021a <frame_dummy+0xe>
 8010212:	4903      	ldr	r1, [pc, #12]	; (8010220 <frame_dummy+0x14>)
 8010214:	4803      	ldr	r0, [pc, #12]	; (8010224 <frame_dummy+0x18>)
 8010216:	f3af 8000 	nop.w
 801021a:	bd08      	pop	{r3, pc}
 801021c:	00000000 	.word	0x00000000
 8010220:	20000694 	.word	0x20000694
 8010224:	0801b48c 	.word	0x0801b48c

08010228 <strcmp>:
 8010228:	f810 2b01 	ldrb.w	r2, [r0], #1
 801022c:	f811 3b01 	ldrb.w	r3, [r1], #1
 8010230:	2a01      	cmp	r2, #1
 8010232:	bf28      	it	cs
 8010234:	429a      	cmpcs	r2, r3
 8010236:	d0f7      	beq.n	8010228 <strcmp>
 8010238:	1ad0      	subs	r0, r2, r3
 801023a:	4770      	bx	lr

0801023c <strlen>:
 801023c:	4603      	mov	r3, r0
 801023e:	f813 2b01 	ldrb.w	r2, [r3], #1
 8010242:	2a00      	cmp	r2, #0
 8010244:	d1fb      	bne.n	801023e <strlen+0x2>
 8010246:	1a18      	subs	r0, r3, r0
 8010248:	3801      	subs	r0, #1
 801024a:	4770      	bx	lr

0801024c <__aeabi_drsub>:
 801024c:	f081 4100 	eor.w	r1, r1, #2147483648	; 0x80000000
 8010250:	e002      	b.n	8010258 <__adddf3>
 8010252:	bf00      	nop

08010254 <__aeabi_dsub>:
 8010254:	f083 4300 	eor.w	r3, r3, #2147483648	; 0x80000000

08010258 <__adddf3>:
 8010258:	b530      	push	{r4, r5, lr}
 801025a:	ea4f 0441 	mov.w	r4, r1, lsl #1
 801025e:	ea4f 0543 	mov.w	r5, r3, lsl #1
 8010262:	ea94 0f05 	teq	r4, r5
 8010266:	bf08      	it	eq
 8010268:	ea90 0f02 	teqeq	r0, r2
 801026c:	bf1f      	itttt	ne
 801026e:	ea54 0c00 	orrsne.w	ip, r4, r0
 8010272:	ea55 0c02 	orrsne.w	ip, r5, r2
 8010276:	ea7f 5c64 	mvnsne.w	ip, r4, asr #21
 801027a:	ea7f 5c65 	mvnsne.w	ip, r5, asr #21
 801027e:	f000 80e2 	beq.w	8010446 <__adddf3+0x1ee>
 8010282:	ea4f 5454 	mov.w	r4, r4, lsr #21
 8010286:	ebd4 5555 	rsbs	r5, r4, r5, lsr #21
 801028a:	bfb8      	it	lt
 801028c:	426d      	neglt	r5, r5
 801028e:	dd0c      	ble.n	80102aa <__adddf3+0x52>
 8010290:	442c      	add	r4, r5
 8010292:	ea80 0202 	eor.w	r2, r0, r2
 8010296:	ea81 0303 	eor.w	r3, r1, r3
 801029a:	ea82 0000 	eor.w	r0, r2, r0
 801029e:	ea83 0101 	eor.w	r1, r3, r1
 80102a2:	ea80 0202 	eor.w	r2, r0, r2
 80102a6:	ea81 0303 	eor.w	r3, r1, r3
 80102aa:	2d36      	cmp	r5, #54	; 0x36
 80102ac:	bf88      	it	hi
 80102ae:	bd30      	pophi	{r4, r5, pc}
 80102b0:	f011 4f00 	tst.w	r1, #2147483648	; 0x80000000
 80102b4:	ea4f 3101 	mov.w	r1, r1, lsl #12
 80102b8:	f44f 1c80 	mov.w	ip, #1048576	; 0x100000
 80102bc:	ea4c 3111 	orr.w	r1, ip, r1, lsr #12
 80102c0:	d002      	beq.n	80102c8 <__adddf3+0x70>
 80102c2:	4240      	negs	r0, r0
 80102c4:	eb61 0141 	sbc.w	r1, r1, r1, lsl #1
 80102c8:	f013 4f00 	tst.w	r3, #2147483648	; 0x80000000
 80102cc:	ea4f 3303 	mov.w	r3, r3, lsl #12
 80102d0:	ea4c 3313 	orr.w	r3, ip, r3, lsr #12
 80102d4:	d002      	beq.n	80102dc <__adddf3+0x84>
 80102d6:	4252      	negs	r2, r2
 80102d8:	eb63 0343 	sbc.w	r3, r3, r3, lsl #1
 80102dc:	ea94 0f05 	teq	r4, r5
 80102e0:	f000 80a7 	beq.w	8010432 <__adddf3+0x1da>
 80102e4:	f1a4 0401 	sub.w	r4, r4, #1
 80102e8:	f1d5 0e20 	rsbs	lr, r5, #32
 80102ec:	db0d      	blt.n	801030a <__adddf3+0xb2>
 80102ee:	fa02 fc0e 	lsl.w	ip, r2, lr
 80102f2:	fa22 f205 	lsr.w	r2, r2, r5
 80102f6:	1880      	adds	r0, r0, r2
 80102f8:	f141 0100 	adc.w	r1, r1, #0
 80102fc:	fa03 f20e 	lsl.w	r2, r3, lr
 8010300:	1880      	adds	r0, r0, r2
 8010302:	fa43 f305 	asr.w	r3, r3, r5
 8010306:	4159      	adcs	r1, r3
 8010308:	e00e      	b.n	8010328 <__adddf3+0xd0>
 801030a:	f1a5 0520 	sub.w	r5, r5, #32
 801030e:	f10e 0e20 	add.w	lr, lr, #32
 8010312:	2a01      	cmp	r2, #1
 8010314:	fa03 fc0e 	lsl.w	ip, r3, lr
 8010318:	bf28      	it	cs
 801031a:	f04c 0c02 	orrcs.w	ip, ip, #2
 801031e:	fa43 f305 	asr.w	r3, r3, r5
 8010322:	18c0      	adds	r0, r0, r3
 8010324:	eb51 71e3 	adcs.w	r1, r1, r3, asr #31
 8010328:	f001 4500 	and.w	r5, r1, #2147483648	; 0x80000000
 801032c:	d507      	bpl.n	801033e <__adddf3+0xe6>
 801032e:	f04f 0e00 	mov.w	lr, #0
 8010332:	f1dc 0c00 	rsbs	ip, ip, #0
 8010336:	eb7e 0000 	sbcs.w	r0, lr, r0
 801033a:	eb6e 0101 	sbc.w	r1, lr, r1
 801033e:	f5b1 1f80 	cmp.w	r1, #1048576	; 0x100000
 8010342:	d31b      	bcc.n	801037c <__adddf3+0x124>
 8010344:	f5b1 1f00 	cmp.w	r1, #2097152	; 0x200000
 8010348:	d30c      	bcc.n	8010364 <__adddf3+0x10c>
 801034a:	0849      	lsrs	r1, r1, #1
 801034c:	ea5f 0030 	movs.w	r0, r0, rrx
 8010350:	ea4f 0c3c 	mov.w	ip, ip, rrx
 8010354:	f104 0401 	add.w	r4, r4, #1
 8010358:	ea4f 5244 	mov.w	r2, r4, lsl #21
 801035c:	f512 0f80 	cmn.w	r2, #4194304	; 0x400000
 8010360:	f080 809a 	bcs.w	8010498 <__adddf3+0x240>
 8010364:	f1bc 4f00 	cmp.w	ip, #2147483648	; 0x80000000
 8010368:	bf08      	it	eq
 801036a:	ea5f 0c50 	movseq.w	ip, r0, lsr #1
 801036e:	f150 0000 	adcs.w	r0, r0, #0
 8010372:	eb41 5104 	adc.w	r1, r1, r4, lsl #20
 8010376:	ea41 0105 	orr.w	r1, r1, r5
 801037a:	bd30      	pop	{r4, r5, pc}
 801037c:	ea5f 0c4c 	movs.w	ip, ip, lsl #1
 8010380:	4140      	adcs	r0, r0
 8010382:	eb41 0101 	adc.w	r1, r1, r1
 8010386:	f411 1f80 	tst.w	r1, #1048576	; 0x100000
 801038a:	f1a4 0401 	sub.w	r4, r4, #1
 801038e:	d1e9      	bne.n	8010364 <__adddf3+0x10c>
 8010390:	f091 0f00 	teq	r1, #0
 8010394:	bf04      	itt	eq
 8010396:	4601      	moveq	r1, r0
 8010398:	2000      	moveq	r0, #0
 801039a:	fab1 f381 	clz	r3, r1
 801039e:	bf08      	it	eq
 80103a0:	3320      	addeq	r3, #32
 80103a2:	f1a3 030b 	sub.w	r3, r3, #11
 80103a6:	f1b3 0220 	subs.w	r2, r3, #32
 80103aa:	da0c      	bge.n	80103c6 <__adddf3+0x16e>
 80103ac:	320c      	adds	r2, #12
 80103ae:	dd08      	ble.n	80103c2 <__adddf3+0x16a>
 80103b0:	f102 0c14 	add.w	ip, r2, #20
 80103b4:	f1c2 020c 	rsb	r2, r2, #12
 80103b8:	fa01 f00c 	lsl.w	r0, r1, ip
 80103bc:	fa21 f102 	lsr.w	r1, r1, r2
 80103c0:	e00c      	b.n	80103dc <__adddf3+0x184>
 80103c2:	f102 0214 	add.w	r2, r2, #20
 80103c6:	bfd8      	it	le
 80103c8:	f1c2 0c20 	rsble	ip, r2, #32
 80103cc:	fa01 f102 	lsl.w	r1, r1, r2
 80103d0:	fa20 fc0c 	lsr.w	ip, r0, ip
 80103d4:	bfdc      	itt	le
 80103d6:	ea41 010c 	orrle.w	r1, r1, ip
 80103da:	4090      	lslle	r0, r2
 80103dc:	1ae4      	subs	r4, r4, r3
 80103de:	bfa2      	ittt	ge
 80103e0:	eb01 5104 	addge.w	r1, r1, r4, lsl #20
 80103e4:	4329      	orrge	r1, r5
 80103e6:	bd30      	popge	{r4, r5, pc}
 80103e8:	ea6f 0404 	mvn.w	r4, r4
 80103ec:	3c1f      	subs	r4, #31
 80103ee:	da1c      	bge.n	801042a <__adddf3+0x1d2>
 80103f0:	340c      	adds	r4, #12
 80103f2:	dc0e      	bgt.n	8010412 <__adddf3+0x1ba>
 80103f4:	f104 0414 	add.w	r4, r4, #20
 80103f8:	f1c4 0220 	rsb	r2, r4, #32
 80103fc:	fa20 f004 	lsr.w	r0, r0, r4
 8010400:	fa01 f302 	lsl.w	r3, r1, r2
 8010404:	ea40 0003 	orr.w	r0, r0, r3
 8010408:	fa21 f304 	lsr.w	r3, r1, r4
 801040c:	ea45 0103 	orr.w	r1, r5, r3
 8010410:	bd30      	pop	{r4, r5, pc}
 8010412:	f1c4 040c 	rsb	r4, r4, #12
 8010416:	f1c4 0220 	rsb	r2, r4, #32
 801041a:	fa20 f002 	lsr.w	r0, r0, r2
 801041e:	fa01 f304 	lsl.w	r3, r1, r4
 8010422:	ea40 0003 	orr.w	r0, r0, r3
 8010426:	4629      	mov	r1, r5
 8010428:	bd30      	pop	{r4, r5, pc}
 801042a:	fa21 f004 	lsr.w	r0, r1, r4
 801042e:	4629      	mov	r1, r5
 8010430:	bd30      	pop	{r4, r5, pc}
 8010432:	f094 0f00 	teq	r4, #0
 8010436:	f483 1380 	eor.w	r3, r3, #1048576	; 0x100000
 801043a:	bf06      	itte	eq
 801043c:	f481 1180 	eoreq.w	r1, r1, #1048576	; 0x100000
 8010440:	3401      	addeq	r4, #1
 8010442:	3d01      	subne	r5, #1
 8010444:	e74e      	b.n	80102e4 <__adddf3+0x8c>
 8010446:	ea7f 5c64 	mvns.w	ip, r4, asr #21
 801044a:	bf18      	it	ne
 801044c:	ea7f 5c65 	mvnsne.w	ip, r5, asr #21
 8010450:	d029      	beq.n	80104a6 <__adddf3+0x24e>
 8010452:	ea94 0f05 	teq	r4, r5
 8010456:	bf08      	it	eq
 8010458:	ea90 0f02 	teqeq	r0, r2
 801045c:	d005      	beq.n	801046a <__adddf3+0x212>
 801045e:	ea54 0c00 	orrs.w	ip, r4, r0
 8010462:	bf04      	itt	eq
 8010464:	4619      	moveq	r1, r3
 8010466:	4610      	moveq	r0, r2
 8010468:	bd30      	pop	{r4, r5, pc}
 801046a:	ea91 0f03 	teq	r1, r3
 801046e:	bf1e      	ittt	ne
 8010470:	2100      	movne	r1, #0
 8010472:	2000      	movne	r0, #0
 8010474:	bd30      	popne	{r4, r5, pc}
 8010476:	ea5f 5c54 	movs.w	ip, r4, lsr #21
 801047a:	d105      	bne.n	8010488 <__adddf3+0x230>
 801047c:	0040      	lsls	r0, r0, #1
 801047e:	4149      	adcs	r1, r1
 8010480:	bf28      	it	cs
 8010482:	f041 4100 	orrcs.w	r1, r1, #2147483648	; 0x80000000
 8010486:	bd30      	pop	{r4, r5, pc}
 8010488:	f514 0480 	adds.w	r4, r4, #4194304	; 0x400000
 801048c:	bf3c      	itt	cc
 801048e:	f501 1180 	addcc.w	r1, r1, #1048576	; 0x100000
 8010492:	bd30      	popcc	{r4, r5, pc}
 8010494:	f001 4500 	and.w	r5, r1, #2147483648	; 0x80000000
 8010498:	f045 41fe 	orr.w	r1, r5, #2130706432	; 0x7f000000
 801049c:	f441 0170 	orr.w	r1, r1, #15728640	; 0xf00000
 80104a0:	f04f 0000 	mov.w	r0, #0
 80104a4:	bd30      	pop	{r4, r5, pc}
 80104a6:	ea7f 5c64 	mvns.w	ip, r4, asr #21
 80104aa:	bf1a      	itte	ne
 80104ac:	4619      	movne	r1, r3
 80104ae:	4610      	movne	r0, r2
 80104b0:	ea7f 5c65 	mvnseq.w	ip, r5, asr #21
 80104b4:	bf1c      	itt	ne
 80104b6:	460b      	movne	r3, r1
 80104b8:	4602      	movne	r2, r0
 80104ba:	ea50 3401 	orrs.w	r4, r0, r1, lsl #12
 80104be:	bf06      	itte	eq
 80104c0:	ea52 3503 	orrseq.w	r5, r2, r3, lsl #12
 80104c4:	ea91 0f03 	teqeq	r1, r3
 80104c8:	f441 2100 	orrne.w	r1, r1, #524288	; 0x80000
 80104cc:	bd30      	pop	{r4, r5, pc}
 80104ce:	bf00      	nop

080104d0 <__aeabi_ui2d>:
 80104d0:	f090 0f00 	teq	r0, #0
 80104d4:	bf04      	itt	eq
 80104d6:	2100      	moveq	r1, #0
 80104d8:	4770      	bxeq	lr
 80104da:	b530      	push	{r4, r5, lr}
 80104dc:	f44f 6480 	mov.w	r4, #1024	; 0x400
 80104e0:	f104 0432 	add.w	r4, r4, #50	; 0x32
 80104e4:	f04f 0500 	mov.w	r5, #0
 80104e8:	f04f 0100 	mov.w	r1, #0
 80104ec:	e750      	b.n	8010390 <__adddf3+0x138>
 80104ee:	bf00      	nop

080104f0 <__aeabi_i2d>:
 80104f0:	f090 0f00 	teq	r0, #0
 80104f4:	bf04      	itt	eq
 80104f6:	2100      	moveq	r1, #0
 80104f8:	4770      	bxeq	lr
 80104fa:	b530      	push	{r4, r5, lr}
 80104fc:	f44f 6480 	mov.w	r4, #1024	; 0x400
 8010500:	f104 0432 	add.w	r4, r4, #50	; 0x32
 8010504:	f010 4500 	ands.w	r5, r0, #2147483648	; 0x80000000
 8010508:	bf48      	it	mi
 801050a:	4240      	negmi	r0, r0
 801050c:	f04f 0100 	mov.w	r1, #0
 8010510:	e73e      	b.n	8010390 <__adddf3+0x138>
 8010512:	bf00      	nop

08010514 <__aeabi_f2d>:
 8010514:	0042      	lsls	r2, r0, #1
 8010516:	ea4f 01e2 	mov.w	r1, r2, asr #3
 801051a:	ea4f 0131 	mov.w	r1, r1, rrx
 801051e:	ea4f 7002 	mov.w	r0, r2, lsl #28
 8010522:	bf1f      	itttt	ne
 8010524:	f012 437f 	andsne.w	r3, r2, #4278190080	; 0xff000000
 8010528:	f093 4f7f 	teqne	r3, #4278190080	; 0xff000000
 801052c:	f081 5160 	eorne.w	r1, r1, #939524096	; 0x38000000
 8010530:	4770      	bxne	lr
 8010532:	f092 0f00 	teq	r2, #0
 8010536:	bf14      	ite	ne
 8010538:	f093 4f7f 	teqne	r3, #4278190080	; 0xff000000
 801053c:	4770      	bxeq	lr
 801053e:	b530      	push	{r4, r5, lr}
 8010540:	f44f 7460 	mov.w	r4, #896	; 0x380
 8010544:	f001 4500 	and.w	r5, r1, #2147483648	; 0x80000000
 8010548:	f021 4100 	bic.w	r1, r1, #2147483648	; 0x80000000
 801054c:	e720      	b.n	8010390 <__adddf3+0x138>
 801054e:	bf00      	nop

08010550 <__aeabi_ul2d>:
 8010550:	ea50 0201 	orrs.w	r2, r0, r1
 8010554:	bf08      	it	eq
 8010556:	4770      	bxeq	lr
 8010558:	b530      	push	{r4, r5, lr}
 801055a:	f04f 0500 	mov.w	r5, #0
 801055e:	e00a      	b.n	8010576 <__aeabi_l2d+0x16>

08010560 <__aeabi_l2d>:
 8010560:	ea50 0201 	orrs.w	r2, r0, r1
 8010564:	bf08      	it	eq
 8010566:	4770      	bxeq	lr
 8010568:	b530      	push	{r4, r5, lr}
 801056a:	f011 4500 	ands.w	r5, r1, #2147483648	; 0x80000000
 801056e:	d502      	bpl.n	8010576 <__aeabi_l2d+0x16>
 8010570:	4240      	negs	r0, r0
 8010572:	eb61 0141 	sbc.w	r1, r1, r1, lsl #1
 8010576:	f44f 6480 	mov.w	r4, #1024	; 0x400
 801057a:	f104 0432 	add.w	r4, r4, #50	; 0x32
 801057e:	ea5f 5c91 	movs.w	ip, r1, lsr #22
 8010582:	f43f aedc 	beq.w	801033e <__adddf3+0xe6>
 8010586:	f04f 0203 	mov.w	r2, #3
 801058a:	ea5f 0cdc 	movs.w	ip, ip, lsr #3
 801058e:	bf18      	it	ne
 8010590:	3203      	addne	r2, #3
 8010592:	ea5f 0cdc 	movs.w	ip, ip, lsr #3
 8010596:	bf18      	it	ne
 8010598:	3203      	addne	r2, #3
 801059a:	eb02 02dc 	add.w	r2, r2, ip, lsr #3
 801059e:	f1c2 0320 	rsb	r3, r2, #32
 80105a2:	fa00 fc03 	lsl.w	ip, r0, r3
 80105a6:	fa20 f002 	lsr.w	r0, r0, r2
 80105aa:	fa01 fe03 	lsl.w	lr, r1, r3
 80105ae:	ea40 000e 	orr.w	r0, r0, lr
 80105b2:	fa21 f102 	lsr.w	r1, r1, r2
 80105b6:	4414      	add	r4, r2
 80105b8:	e6c1      	b.n	801033e <__adddf3+0xe6>
 80105ba:	bf00      	nop

080105bc <__aeabi_dmul>:
 80105bc:	b570      	push	{r4, r5, r6, lr}
 80105be:	f04f 0cff 	mov.w	ip, #255	; 0xff
 80105c2:	f44c 6ce0 	orr.w	ip, ip, #1792	; 0x700
 80105c6:	ea1c 5411 	ands.w	r4, ip, r1, lsr #20
 80105ca:	bf1d      	ittte	ne
 80105cc:	ea1c 5513 	andsne.w	r5, ip, r3, lsr #20
 80105d0:	ea94 0f0c 	teqne	r4, ip
 80105d4:	ea95 0f0c 	teqne	r5, ip
 80105d8:	f000 f8de 	bleq	8010798 <__aeabi_dmul+0x1dc>
 80105dc:	442c      	add	r4, r5
 80105de:	ea81 0603 	eor.w	r6, r1, r3
 80105e2:	ea21 514c 	bic.w	r1, r1, ip, lsl #21
 80105e6:	ea23 534c 	bic.w	r3, r3, ip, lsl #21
 80105ea:	ea50 3501 	orrs.w	r5, r0, r1, lsl #12
 80105ee:	bf18      	it	ne
 80105f0:	ea52 3503 	orrsne.w	r5, r2, r3, lsl #12
 80105f4:	f441 1180 	orr.w	r1, r1, #1048576	; 0x100000
 80105f8:	f443 1380 	orr.w	r3, r3, #1048576	; 0x100000
 80105fc:	d038      	beq.n	8010670 <__aeabi_dmul+0xb4>
 80105fe:	fba0 ce02 	umull	ip, lr, r0, r2
 8010602:	f04f 0500 	mov.w	r5, #0
 8010606:	fbe1 e502 	umlal	lr, r5, r1, r2
 801060a:	f006 4200 	and.w	r2, r6, #2147483648	; 0x80000000
 801060e:	fbe0 e503 	umlal	lr, r5, r0, r3
 8010612:	f04f 0600 	mov.w	r6, #0
 8010616:	fbe1 5603 	umlal	r5, r6, r1, r3
 801061a:	f09c 0f00 	teq	ip, #0
 801061e:	bf18      	it	ne
 8010620:	f04e 0e01 	orrne.w	lr, lr, #1
 8010624:	f1a4 04ff 	sub.w	r4, r4, #255	; 0xff
 8010628:	f5b6 7f00 	cmp.w	r6, #512	; 0x200
 801062c:	f564 7440 	sbc.w	r4, r4, #768	; 0x300
 8010630:	d204      	bcs.n	801063c <__aeabi_dmul+0x80>
 8010632:	ea5f 0e4e 	movs.w	lr, lr, lsl #1
 8010636:	416d      	adcs	r5, r5
 8010638:	eb46 0606 	adc.w	r6, r6, r6
 801063c:	ea42 21c6 	orr.w	r1, r2, r6, lsl #11
 8010640:	ea41 5155 	orr.w	r1, r1, r5, lsr #21
 8010644:	ea4f 20c5 	mov.w	r0, r5, lsl #11
 8010648:	ea40 505e 	orr.w	r0, r0, lr, lsr #21
 801064c:	ea4f 2ece 	mov.w	lr, lr, lsl #11
 8010650:	f1b4 0cfd 	subs.w	ip, r4, #253	; 0xfd
 8010654:	bf88      	it	hi
 8010656:	f5bc 6fe0 	cmphi.w	ip, #1792	; 0x700
 801065a:	d81e      	bhi.n	801069a <__aeabi_dmul+0xde>
 801065c:	f1be 4f00 	cmp.w	lr, #2147483648	; 0x80000000
 8010660:	bf08      	it	eq
 8010662:	ea5f 0e50 	movseq.w	lr, r0, lsr #1
 8010666:	f150 0000 	adcs.w	r0, r0, #0
 801066a:	eb41 5104 	adc.w	r1, r1, r4, lsl #20
 801066e:	bd70      	pop	{r4, r5, r6, pc}
 8010670:	f006 4600 	and.w	r6, r6, #2147483648	; 0x80000000
 8010674:	ea46 0101 	orr.w	r1, r6, r1
 8010678:	ea40 0002 	orr.w	r0, r0, r2
 801067c:	ea81 0103 	eor.w	r1, r1, r3
 8010680:	ebb4 045c 	subs.w	r4, r4, ip, lsr #1
 8010684:	bfc2      	ittt	gt
 8010686:	ebd4 050c 	rsbsgt	r5, r4, ip
 801068a:	ea41 5104 	orrgt.w	r1, r1, r4, lsl #20
 801068e:	bd70      	popgt	{r4, r5, r6, pc}
 8010690:	f441 1180 	orr.w	r1, r1, #1048576	; 0x100000
 8010694:	f04f 0e00 	mov.w	lr, #0
 8010698:	3c01      	subs	r4, #1
 801069a:	f300 80ab 	bgt.w	80107f4 <__aeabi_dmul+0x238>
 801069e:	f114 0f36 	cmn.w	r4, #54	; 0x36
 80106a2:	bfde      	ittt	le
 80106a4:	2000      	movle	r0, #0
 80106a6:	f001 4100 	andle.w	r1, r1, #2147483648	; 0x80000000
 80106aa:	bd70      	pople	{r4, r5, r6, pc}
 80106ac:	f1c4 0400 	rsb	r4, r4, #0
 80106b0:	3c20      	subs	r4, #32
 80106b2:	da35      	bge.n	8010720 <__aeabi_dmul+0x164>
 80106b4:	340c      	adds	r4, #12
 80106b6:	dc1b      	bgt.n	80106f0 <__aeabi_dmul+0x134>
 80106b8:	f104 0414 	add.w	r4, r4, #20
 80106bc:	f1c4 0520 	rsb	r5, r4, #32
 80106c0:	fa00 f305 	lsl.w	r3, r0, r5
 80106c4:	fa20 f004 	lsr.w	r0, r0, r4
 80106c8:	fa01 f205 	lsl.w	r2, r1, r5
 80106cc:	ea40 0002 	orr.w	r0, r0, r2
 80106d0:	f001 4200 	and.w	r2, r1, #2147483648	; 0x80000000
 80106d4:	f021 4100 	bic.w	r1, r1, #2147483648	; 0x80000000
 80106d8:	eb10 70d3 	adds.w	r0, r0, r3, lsr #31
 80106dc:	fa21 f604 	lsr.w	r6, r1, r4
 80106e0:	eb42 0106 	adc.w	r1, r2, r6
 80106e4:	ea5e 0e43 	orrs.w	lr, lr, r3, lsl #1
 80106e8:	bf08      	it	eq
 80106ea:	ea20 70d3 	biceq.w	r0, r0, r3, lsr #31
 80106ee:	bd70      	pop	{r4, r5, r6, pc}
 80106f0:	f1c4 040c 	rsb	r4, r4, #12
 80106f4:	f1c4 0520 	rsb	r5, r4, #32
 80106f8:	fa00 f304 	lsl.w	r3, r0, r4
 80106fc:	fa20 f005 	lsr.w	r0, r0, r5
 8010700:	fa01 f204 	lsl.w	r2, r1, r4
 8010704:	ea40 0002 	orr.w	r0, r0, r2
 8010708:	f001 4100 	and.w	r1, r1, #2147483648	; 0x80000000
 801070c:	eb10 70d3 	adds.w	r0, r0, r3, lsr #31
 8010710:	f141 0100 	adc.w	r1, r1, #0
 8010714:	ea5e 0e43 	orrs.w	lr, lr, r3, lsl #1
 8010718:	bf08      	it	eq
 801071a:	ea20 70d3 	biceq.w	r0, r0, r3, lsr #31
 801071e:	bd70      	pop	{r4, r5, r6, pc}
 8010720:	f1c4 0520 	rsb	r5, r4, #32
 8010724:	fa00 f205 	lsl.w	r2, r0, r5
 8010728:	ea4e 0e02 	orr.w	lr, lr, r2
 801072c:	fa20 f304 	lsr.w	r3, r0, r4
 8010730:	fa01 f205 	lsl.w	r2, r1, r5
 8010734:	ea43 0302 	orr.w	r3, r3, r2
 8010738:	fa21 f004 	lsr.w	r0, r1, r4
 801073c:	f001 4100 	and.w	r1, r1, #2147483648	; 0x80000000
 8010740:	fa21 f204 	lsr.w	r2, r1, r4
 8010744:	ea20 0002 	bic.w	r0, r0, r2
 8010748:	eb00 70d3 	add.w	r0, r0, r3, lsr #31
 801074c:	ea5e 0e43 	orrs.w	lr, lr, r3, lsl #1
 8010750:	bf08      	it	eq
 8010752:	ea20 70d3 	biceq.w	r0, r0, r3, lsr #31
 8010756:	bd70      	pop	{r4, r5, r6, pc}
 8010758:	f094 0f00 	teq	r4, #0
 801075c:	d10f      	bne.n	801077e <__aeabi_dmul+0x1c2>
 801075e:	f001 4600 	and.w	r6, r1, #2147483648	; 0x80000000
 8010762:	0040      	lsls	r0, r0, #1
 8010764:	eb41 0101 	adc.w	r1, r1, r1
 8010768:	f411 1f80 	tst.w	r1, #1048576	; 0x100000
 801076c:	bf08      	it	eq
 801076e:	3c01      	subeq	r4, #1
 8010770:	d0f7      	beq.n	8010762 <__aeabi_dmul+0x1a6>
 8010772:	ea41 0106 	orr.w	r1, r1, r6
 8010776:	f095 0f00 	teq	r5, #0
 801077a:	bf18      	it	ne
 801077c:	4770      	bxne	lr
 801077e:	f003 4600 	and.w	r6, r3, #2147483648	; 0x80000000
 8010782:	0052      	lsls	r2, r2, #1
 8010784:	eb43 0303 	adc.w	r3, r3, r3
 8010788:	f413 1f80 	tst.w	r3, #1048576	; 0x100000
 801078c:	bf08      	it	eq
 801078e:	3d01      	subeq	r5, #1
 8010790:	d0f7      	beq.n	8010782 <__aeabi_dmul+0x1c6>
 8010792:	ea43 0306 	orr.w	r3, r3, r6
 8010796:	4770      	bx	lr
 8010798:	ea94 0f0c 	teq	r4, ip
 801079c:	ea0c 5513 	and.w	r5, ip, r3, lsr #20
 80107a0:	bf18      	it	ne
 80107a2:	ea95 0f0c 	teqne	r5, ip
 80107a6:	d00c      	beq.n	80107c2 <__aeabi_dmul+0x206>
 80107a8:	ea50 0641 	orrs.w	r6, r0, r1, lsl #1
 80107ac:	bf18      	it	ne
 80107ae:	ea52 0643 	orrsne.w	r6, r2, r3, lsl #1
 80107b2:	d1d1      	bne.n	8010758 <__aeabi_dmul+0x19c>
 80107b4:	ea81 0103 	eor.w	r1, r1, r3
 80107b8:	f001 4100 	and.w	r1, r1, #2147483648	; 0x80000000
 80107bc:	f04f 0000 	mov.w	r0, #0
 80107c0:	bd70      	pop	{r4, r5, r6, pc}
 80107c2:	ea50 0641 	orrs.w	r6, r0, r1, lsl #1
 80107c6:	bf06      	itte	eq
 80107c8:	4610      	moveq	r0, r2
 80107ca:	4619      	moveq	r1, r3
 80107cc:	ea52 0643 	orrsne.w	r6, r2, r3, lsl #1
 80107d0:	d019      	beq.n	8010806 <__aeabi_dmul+0x24a>
 80107d2:	ea94 0f0c 	teq	r4, ip
 80107d6:	d102      	bne.n	80107de <__aeabi_dmul+0x222>
 80107d8:	ea50 3601 	orrs.w	r6, r0, r1, lsl #12
 80107dc:	d113      	bne.n	8010806 <__aeabi_dmul+0x24a>
 80107de:	ea95 0f0c 	teq	r5, ip
 80107e2:	d105      	bne.n	80107f0 <__aeabi_dmul+0x234>
 80107e4:	ea52 3603 	orrs.w	r6, r2, r3, lsl #12
 80107e8:	bf1c      	itt	ne
 80107ea:	4610      	movne	r0, r2
 80107ec:	4619      	movne	r1, r3
 80107ee:	d10a      	bne.n	8010806 <__aeabi_dmul+0x24a>
 80107f0:	ea81 0103 	eor.w	r1, r1, r3
 80107f4:	f001 4100 	and.w	r1, r1, #2147483648	; 0x80000000
 80107f8:	f041 41fe 	orr.w	r1, r1, #2130706432	; 0x7f000000
 80107fc:	f441 0170 	orr.w	r1, r1, #15728640	; 0xf00000
 8010800:	f04f 0000 	mov.w	r0, #0
 8010804:	bd70      	pop	{r4, r5, r6, pc}
 8010806:	f041 41fe 	orr.w	r1, r1, #2130706432	; 0x7f000000
 801080a:	f441 0178 	orr.w	r1, r1, #16252928	; 0xf80000
 801080e:	bd70      	pop	{r4, r5, r6, pc}

08010810 <__aeabi_ddiv>:
 8010810:	b570      	push	{r4, r5, r6, lr}
 8010812:	f04f 0cff 	mov.w	ip, #255	; 0xff
 8010816:	f44c 6ce0 	orr.w	ip, ip, #1792	; 0x700
 801081a:	ea1c 5411 	ands.w	r4, ip, r1, lsr #20
 801081e:	bf1d      	ittte	ne
 8010820:	ea1c 5513 	andsne.w	r5, ip, r3, lsr #20
 8010824:	ea94 0f0c 	teqne	r4, ip
 8010828:	ea95 0f0c 	teqne	r5, ip
 801082c:	f000 f8a7 	bleq	801097e <__aeabi_ddiv+0x16e>
 8010830:	eba4 0405 	sub.w	r4, r4, r5
 8010834:	ea81 0e03 	eor.w	lr, r1, r3
 8010838:	ea52 3503 	orrs.w	r5, r2, r3, lsl #12
 801083c:	ea4f 3101 	mov.w	r1, r1, lsl #12
 8010840:	f000 8088 	beq.w	8010954 <__aeabi_ddiv+0x144>
 8010844:	ea4f 3303 	mov.w	r3, r3, lsl #12
 8010848:	f04f 5580 	mov.w	r5, #268435456	; 0x10000000
 801084c:	ea45 1313 	orr.w	r3, r5, r3, lsr #4
 8010850:	ea43 6312 	orr.w	r3, r3, r2, lsr #24
 8010854:	ea4f 2202 	mov.w	r2, r2, lsl #8
 8010858:	ea45 1511 	orr.w	r5, r5, r1, lsr #4
 801085c:	ea45 6510 	orr.w	r5, r5, r0, lsr #24
 8010860:	ea4f 2600 	mov.w	r6, r0, lsl #8
 8010864:	f00e 4100 	and.w	r1, lr, #2147483648	; 0x80000000
 8010868:	429d      	cmp	r5, r3
 801086a:	bf08      	it	eq
 801086c:	4296      	cmpeq	r6, r2
 801086e:	f144 04fd 	adc.w	r4, r4, #253	; 0xfd
 8010872:	f504 7440 	add.w	r4, r4, #768	; 0x300
 8010876:	d202      	bcs.n	801087e <__aeabi_ddiv+0x6e>
 8010878:	085b      	lsrs	r3, r3, #1
 801087a:	ea4f 0232 	mov.w	r2, r2, rrx
 801087e:	1ab6      	subs	r6, r6, r2
 8010880:	eb65 0503 	sbc.w	r5, r5, r3
 8010884:	085b      	lsrs	r3, r3, #1
 8010886:	ea4f 0232 	mov.w	r2, r2, rrx
 801088a:	f44f 1080 	mov.w	r0, #1048576	; 0x100000
 801088e:	f44f 2c00 	mov.w	ip, #524288	; 0x80000
 8010892:	ebb6 0e02 	subs.w	lr, r6, r2
 8010896:	eb75 0e03 	sbcs.w	lr, r5, r3
 801089a:	bf22      	ittt	cs
 801089c:	1ab6      	subcs	r6, r6, r2
 801089e:	4675      	movcs	r5, lr
 80108a0:	ea40 000c 	orrcs.w	r0, r0, ip
 80108a4:	085b      	lsrs	r3, r3, #1
 80108a6:	ea4f 0232 	mov.w	r2, r2, rrx
 80108aa:	ebb6 0e02 	subs.w	lr, r6, r2
 80108ae:	eb75 0e03 	sbcs.w	lr, r5, r3
 80108b2:	bf22      	ittt	cs
 80108b4:	1ab6      	subcs	r6, r6, r2
 80108b6:	4675      	movcs	r5, lr
 80108b8:	ea40 005c 	orrcs.w	r0, r0, ip, lsr #1
 80108bc:	085b      	lsrs	r3, r3, #1
 80108be:	ea4f 0232 	mov.w	r2, r2, rrx
 80108c2:	ebb6 0e02 	subs.w	lr, r6, r2
 80108c6:	eb75 0e03 	sbcs.w	lr, r5, r3
 80108ca:	bf22      	ittt	cs
 80108cc:	1ab6      	subcs	r6, r6, r2
 80108ce:	4675      	movcs	r5, lr
 80108d0:	ea40 009c 	orrcs.w	r0, r0, ip, lsr #2
 80108d4:	085b      	lsrs	r3, r3, #1
 80108d6:	ea4f 0232 	mov.w	r2, r2, rrx
 80108da:	ebb6 0e02 	subs.w	lr, r6, r2
 80108de:	eb75 0e03 	sbcs.w	lr, r5, r3
 80108e2:	bf22      	ittt	cs
 80108e4:	1ab6      	subcs	r6, r6, r2
 80108e6:	4675      	movcs	r5, lr
 80108e8:	ea40 00dc 	orrcs.w	r0, r0, ip, lsr #3
 80108ec:	ea55 0e06 	orrs.w	lr, r5, r6
 80108f0:	d018      	beq.n	8010924 <__aeabi_ddiv+0x114>
 80108f2:	ea4f 1505 	mov.w	r5, r5, lsl #4
 80108f6:	ea45 7516 	orr.w	r5, r5, r6, lsr #28
 80108fa:	ea4f 1606 	mov.w	r6, r6, lsl #4
 80108fe:	ea4f 03c3 	mov.w	r3, r3, lsl #3
 8010902:	ea43 7352 	orr.w	r3, r3, r2, lsr #29
 8010906:	ea4f 02c2 	mov.w	r2, r2, lsl #3
 801090a:	ea5f 1c1c 	movs.w	ip, ip, lsr #4
 801090e:	d1c0      	bne.n	8010892 <__aeabi_ddiv+0x82>
 8010910:	f411 1f80 	tst.w	r1, #1048576	; 0x100000
 8010914:	d10b      	bne.n	801092e <__aeabi_ddiv+0x11e>
 8010916:	ea41 0100 	orr.w	r1, r1, r0
 801091a:	f04f 0000 	mov.w	r0, #0
 801091e:	f04f 4c00 	mov.w	ip, #2147483648	; 0x80000000
 8010922:	e7b6      	b.n	8010892 <__aeabi_ddiv+0x82>
 8010924:	f411 1f80 	tst.w	r1, #1048576	; 0x100000
 8010928:	bf04      	itt	eq
 801092a:	4301      	orreq	r1, r0
 801092c:	2000      	moveq	r0, #0
 801092e:	f1b4 0cfd 	subs.w	ip, r4, #253	; 0xfd
 8010932:	bf88      	it	hi
 8010934:	f5bc 6fe0 	cmphi.w	ip, #1792	; 0x700
 8010938:	f63f aeaf 	bhi.w	801069a <__aeabi_dmul+0xde>
 801093c:	ebb5 0c03 	subs.w	ip, r5, r3
 8010940:	bf04      	itt	eq
 8010942:	ebb6 0c02 	subseq.w	ip, r6, r2
 8010946:	ea5f 0c50 	movseq.w	ip, r0, lsr #1
 801094a:	f150 0000 	adcs.w	r0, r0, #0
 801094e:	eb41 5104 	adc.w	r1, r1, r4, lsl #20
 8010952:	bd70      	pop	{r4, r5, r6, pc}
 8010954:	f00e 4e00 	and.w	lr, lr, #2147483648	; 0x80000000
 8010958:	ea4e 3111 	orr.w	r1, lr, r1, lsr #12
 801095c:	eb14 045c 	adds.w	r4, r4, ip, lsr #1
 8010960:	bfc2      	ittt	gt
 8010962:	ebd4 050c 	rsbsgt	r5, r4, ip
 8010966:	ea41 5104 	orrgt.w	r1, r1, r4, lsl #20
 801096a:	bd70      	popgt	{r4, r5, r6, pc}
 801096c:	f441 1180 	orr.w	r1, r1, #1048576	; 0x100000
 8010970:	f04f 0e00 	mov.w	lr, #0
 8010974:	3c01      	subs	r4, #1
 8010976:	e690      	b.n	801069a <__aeabi_dmul+0xde>
 8010978:	ea45 0e06 	orr.w	lr, r5, r6
 801097c:	e68d      	b.n	801069a <__aeabi_dmul+0xde>
 801097e:	ea0c 5513 	and.w	r5, ip, r3, lsr #20
 8010982:	ea94 0f0c 	teq	r4, ip
 8010986:	bf08      	it	eq
 8010988:	ea95 0f0c 	teqeq	r5, ip
 801098c:	f43f af3b 	beq.w	8010806 <__aeabi_dmul+0x24a>
 8010990:	ea94 0f0c 	teq	r4, ip
 8010994:	d10a      	bne.n	80109ac <__aeabi_ddiv+0x19c>
 8010996:	ea50 3401 	orrs.w	r4, r0, r1, lsl #12
 801099a:	f47f af34 	bne.w	8010806 <__aeabi_dmul+0x24a>
 801099e:	ea95 0f0c 	teq	r5, ip
 80109a2:	f47f af25 	bne.w	80107f0 <__aeabi_dmul+0x234>
 80109a6:	4610      	mov	r0, r2
 80109a8:	4619      	mov	r1, r3
 80109aa:	e72c      	b.n	8010806 <__aeabi_dmul+0x24a>
 80109ac:	ea95 0f0c 	teq	r5, ip
 80109b0:	d106      	bne.n	80109c0 <__aeabi_ddiv+0x1b0>
 80109b2:	ea52 3503 	orrs.w	r5, r2, r3, lsl #12
 80109b6:	f43f aefd 	beq.w	80107b4 <__aeabi_dmul+0x1f8>
 80109ba:	4610      	mov	r0, r2
 80109bc:	4619      	mov	r1, r3
 80109be:	e722      	b.n	8010806 <__aeabi_dmul+0x24a>
 80109c0:	ea50 0641 	orrs.w	r6, r0, r1, lsl #1
 80109c4:	bf18      	it	ne
 80109c6:	ea52 0643 	orrsne.w	r6, r2, r3, lsl #1
 80109ca:	f47f aec5 	bne.w	8010758 <__aeabi_dmul+0x19c>
 80109ce:	ea50 0441 	orrs.w	r4, r0, r1, lsl #1
 80109d2:	f47f af0d 	bne.w	80107f0 <__aeabi_dmul+0x234>
 80109d6:	ea52 0543 	orrs.w	r5, r2, r3, lsl #1
 80109da:	f47f aeeb 	bne.w	80107b4 <__aeabi_dmul+0x1f8>
 80109de:	e712      	b.n	8010806 <__aeabi_dmul+0x24a>

080109e0 <__gedf2>:
 80109e0:	f04f 3cff 	mov.w	ip, #4294967295
 80109e4:	e006      	b.n	80109f4 <__cmpdf2+0x4>
 80109e6:	bf00      	nop

080109e8 <__ledf2>:
 80109e8:	f04f 0c01 	mov.w	ip, #1
 80109ec:	e002      	b.n	80109f4 <__cmpdf2+0x4>
 80109ee:	bf00      	nop

080109f0 <__cmpdf2>:
 80109f0:	f04f 0c01 	mov.w	ip, #1
 80109f4:	f84d cd04 	str.w	ip, [sp, #-4]!
 80109f8:	ea4f 0c41 	mov.w	ip, r1, lsl #1
 80109fc:	ea7f 5c6c 	mvns.w	ip, ip, asr #21
 8010a00:	ea4f 0c43 	mov.w	ip, r3, lsl #1
 8010a04:	bf18      	it	ne
 8010a06:	ea7f 5c6c 	mvnsne.w	ip, ip, asr #21
 8010a0a:	d01b      	beq.n	8010a44 <__cmpdf2+0x54>
 8010a0c:	b001      	add	sp, #4
 8010a0e:	ea50 0c41 	orrs.w	ip, r0, r1, lsl #1
 8010a12:	bf0c      	ite	eq
 8010a14:	ea52 0c43 	orrseq.w	ip, r2, r3, lsl #1
 8010a18:	ea91 0f03 	teqne	r1, r3
 8010a1c:	bf02      	ittt	eq
 8010a1e:	ea90 0f02 	teqeq	r0, r2
 8010a22:	2000      	moveq	r0, #0
 8010a24:	4770      	bxeq	lr
 8010a26:	f110 0f00 	cmn.w	r0, #0
 8010a2a:	ea91 0f03 	teq	r1, r3
 8010a2e:	bf58      	it	pl
 8010a30:	4299      	cmppl	r1, r3
 8010a32:	bf08      	it	eq
 8010a34:	4290      	cmpeq	r0, r2
 8010a36:	bf2c      	ite	cs
 8010a38:	17d8      	asrcs	r0, r3, #31
 8010a3a:	ea6f 70e3 	mvncc.w	r0, r3, asr #31
 8010a3e:	f040 0001 	orr.w	r0, r0, #1
 8010a42:	4770      	bx	lr
 8010a44:	ea4f 0c41 	mov.w	ip, r1, lsl #1
 8010a48:	ea7f 5c6c 	mvns.w	ip, ip, asr #21
 8010a4c:	d102      	bne.n	8010a54 <__cmpdf2+0x64>
 8010a4e:	ea50 3c01 	orrs.w	ip, r0, r1, lsl #12
 8010a52:	d107      	bne.n	8010a64 <__cmpdf2+0x74>
 8010a54:	ea4f 0c43 	mov.w	ip, r3, lsl #1
 8010a58:	ea7f 5c6c 	mvns.w	ip, ip, asr #21
 8010a5c:	d1d6      	bne.n	8010a0c <__cmpdf2+0x1c>
 8010a5e:	ea52 3c03 	orrs.w	ip, r2, r3, lsl #12
 8010a62:	d0d3      	beq.n	8010a0c <__cmpdf2+0x1c>
 8010a64:	f85d 0b04 	ldr.w	r0, [sp], #4
 8010a68:	4770      	bx	lr
 8010a6a:	bf00      	nop

08010a6c <__aeabi_cdrcmple>:
 8010a6c:	4684      	mov	ip, r0
 8010a6e:	4610      	mov	r0, r2
 8010a70:	4662      	mov	r2, ip
 8010a72:	468c      	mov	ip, r1
 8010a74:	4619      	mov	r1, r3
 8010a76:	4663      	mov	r3, ip
 8010a78:	e000      	b.n	8010a7c <__aeabi_cdcmpeq>
 8010a7a:	bf00      	nop

08010a7c <__aeabi_cdcmpeq>:
 8010a7c:	b501      	push	{r0, lr}
 8010a7e:	f7ff ffb7 	bl	80109f0 <__cmpdf2>
 8010a82:	2800      	cmp	r0, #0
 8010a84:	bf48      	it	mi
 8010a86:	f110 0f00 	cmnmi.w	r0, #0
 8010a8a:	bd01      	pop	{r0, pc}

08010a8c <__aeabi_dcmpeq>:
 8010a8c:	f84d ed08 	str.w	lr, [sp, #-8]!
 8010a90:	f7ff fff4 	bl	8010a7c <__aeabi_cdcmpeq>
 8010a94:	bf0c      	ite	eq
 8010a96:	2001      	moveq	r0, #1
 8010a98:	2000      	movne	r0, #0
 8010a9a:	f85d fb08 	ldr.w	pc, [sp], #8
 8010a9e:	bf00      	nop

08010aa0 <__aeabi_dcmplt>:
 8010aa0:	f84d ed08 	str.w	lr, [sp, #-8]!
 8010aa4:	f7ff ffea 	bl	8010a7c <__aeabi_cdcmpeq>
 8010aa8:	bf34      	ite	cc
 8010aaa:	2001      	movcc	r0, #1
 8010aac:	2000      	movcs	r0, #0
 8010aae:	f85d fb08 	ldr.w	pc, [sp], #8
 8010ab2:	bf00      	nop

08010ab4 <__aeabi_dcmple>:
 8010ab4:	f84d ed08 	str.w	lr, [sp, #-8]!
 8010ab8:	f7ff ffe0 	bl	8010a7c <__aeabi_cdcmpeq>
 8010abc:	bf94      	ite	ls
 8010abe:	2001      	movls	r0, #1
 8010ac0:	2000      	movhi	r0, #0
 8010ac2:	f85d fb08 	ldr.w	pc, [sp], #8
 8010ac6:	bf00      	nop

08010ac8 <__aeabi_dcmpge>:
 8010ac8:	f84d ed08 	str.w	lr, [sp, #-8]!
 8010acc:	f7ff ffce 	bl	8010a6c <__aeabi_cdrcmple>
 8010ad0:	bf94      	ite	ls
 8010ad2:	2001      	movls	r0, #1
 8010ad4:	2000      	movhi	r0, #0
 8010ad6:	f85d fb08 	ldr.w	pc, [sp], #8
 8010ada:	bf00      	nop

08010adc <__aeabi_dcmpgt>:
 8010adc:	f84d ed08 	str.w	lr, [sp, #-8]!
 8010ae0:	f7ff ffc4 	bl	8010a6c <__aeabi_cdrcmple>
 8010ae4:	bf34      	ite	cc
 8010ae6:	2001      	movcc	r0, #1
 8010ae8:	2000      	movcs	r0, #0
 8010aea:	f85d fb08 	ldr.w	pc, [sp], #8
 8010aee:	bf00      	nop

08010af0 <__aeabi_dcmpun>:
 8010af0:	ea4f 0c41 	mov.w	ip, r1, lsl #1
 8010af4:	ea7f 5c6c 	mvns.w	ip, ip, asr #21
 8010af8:	d102      	bne.n	8010b00 <__aeabi_dcmpun+0x10>
 8010afa:	ea50 3c01 	orrs.w	ip, r0, r1, lsl #12
 8010afe:	d10a      	bne.n	8010b16 <__aeabi_dcmpun+0x26>
 8010b00:	ea4f 0c43 	mov.w	ip, r3, lsl #1
 8010b04:	ea7f 5c6c 	mvns.w	ip, ip, asr #21
 8010b08:	d102      	bne.n	8010b10 <__aeabi_dcmpun+0x20>
 8010b0a:	ea52 3c03 	orrs.w	ip, r2, r3, lsl #12
 8010b0e:	d102      	bne.n	8010b16 <__aeabi_dcmpun+0x26>
 8010b10:	f04f 0000 	mov.w	r0, #0
 8010b14:	4770      	bx	lr
 8010b16:	f04f 0001 	mov.w	r0, #1
 8010b1a:	4770      	bx	lr

08010b1c <__aeabi_d2iz>:
 8010b1c:	ea4f 0241 	mov.w	r2, r1, lsl #1
 8010b20:	f512 1200 	adds.w	r2, r2, #2097152	; 0x200000
 8010b24:	d215      	bcs.n	8010b52 <__aeabi_d2iz+0x36>
 8010b26:	d511      	bpl.n	8010b4c <__aeabi_d2iz+0x30>
 8010b28:	f46f 7378 	mvn.w	r3, #992	; 0x3e0
 8010b2c:	ebb3 5262 	subs.w	r2, r3, r2, asr #21
 8010b30:	d912      	bls.n	8010b58 <__aeabi_d2iz+0x3c>
 8010b32:	ea4f 23c1 	mov.w	r3, r1, lsl #11
 8010b36:	f043 4300 	orr.w	r3, r3, #2147483648	; 0x80000000
 8010b3a:	ea43 5350 	orr.w	r3, r3, r0, lsr #21
 8010b3e:	f011 4f00 	tst.w	r1, #2147483648	; 0x80000000
 8010b42:	fa23 f002 	lsr.w	r0, r3, r2
 8010b46:	bf18      	it	ne
 8010b48:	4240      	negne	r0, r0
 8010b4a:	4770      	bx	lr
 8010b4c:	f04f 0000 	mov.w	r0, #0
 8010b50:	4770      	bx	lr
 8010b52:	ea50 3001 	orrs.w	r0, r0, r1, lsl #12
 8010b56:	d105      	bne.n	8010b64 <__aeabi_d2iz+0x48>
 8010b58:	f011 4000 	ands.w	r0, r1, #2147483648	; 0x80000000
 8010b5c:	bf08      	it	eq
 8010b5e:	f06f 4000 	mvneq.w	r0, #2147483648	; 0x80000000
 8010b62:	4770      	bx	lr
 8010b64:	f04f 0000 	mov.w	r0, #0
 8010b68:	4770      	bx	lr
 8010b6a:	bf00      	nop

08010b6c <__aeabi_uldivmod>:
 8010b6c:	b953      	cbnz	r3, 8010b84 <__aeabi_uldivmod+0x18>
 8010b6e:	b94a      	cbnz	r2, 8010b84 <__aeabi_uldivmod+0x18>
 8010b70:	2900      	cmp	r1, #0
 8010b72:	bf08      	it	eq
 8010b74:	2800      	cmpeq	r0, #0
 8010b76:	bf1c      	itt	ne
 8010b78:	f04f 31ff 	movne.w	r1, #4294967295
 8010b7c:	f04f 30ff 	movne.w	r0, #4294967295
 8010b80:	f000 b97a 	b.w	8010e78 <__aeabi_idiv0>
 8010b84:	f1ad 0c08 	sub.w	ip, sp, #8
 8010b88:	e96d ce04 	strd	ip, lr, [sp, #-16]!
 8010b8c:	f000 f806 	bl	8010b9c <__udivmoddi4>
 8010b90:	f8dd e004 	ldr.w	lr, [sp, #4]
 8010b94:	e9dd 2302 	ldrd	r2, r3, [sp, #8]
 8010b98:	b004      	add	sp, #16
 8010b9a:	4770      	bx	lr

08010b9c <__udivmoddi4>:
 8010b9c:	e92d 47f0 	stmdb	sp!, {r4, r5, r6, r7, r8, r9, sl, lr}
 8010ba0:	468c      	mov	ip, r1
 8010ba2:	460e      	mov	r6, r1
 8010ba4:	4604      	mov	r4, r0
 8010ba6:	9d08      	ldr	r5, [sp, #32]
 8010ba8:	2b00      	cmp	r3, #0
 8010baa:	d150      	bne.n	8010c4e <__udivmoddi4+0xb2>
 8010bac:	428a      	cmp	r2, r1
 8010bae:	4617      	mov	r7, r2
 8010bb0:	d96c      	bls.n	8010c8c <__udivmoddi4+0xf0>
 8010bb2:	fab2 fe82 	clz	lr, r2
 8010bb6:	f1be 0f00 	cmp.w	lr, #0
 8010bba:	d00b      	beq.n	8010bd4 <__udivmoddi4+0x38>
 8010bbc:	f1ce 0c20 	rsb	ip, lr, #32
 8010bc0:	fa01 f60e 	lsl.w	r6, r1, lr
 8010bc4:	fa20 fc0c 	lsr.w	ip, r0, ip
 8010bc8:	fa02 f70e 	lsl.w	r7, r2, lr
 8010bcc:	ea4c 0c06 	orr.w	ip, ip, r6
 8010bd0:	fa00 f40e 	lsl.w	r4, r0, lr
 8010bd4:	0c3a      	lsrs	r2, r7, #16
 8010bd6:	fbbc f9f2 	udiv	r9, ip, r2
 8010bda:	b2bb      	uxth	r3, r7
 8010bdc:	fb02 cc19 	mls	ip, r2, r9, ip
 8010be0:	fb09 fa03 	mul.w	sl, r9, r3
 8010be4:	ea4f 4814 	mov.w	r8, r4, lsr #16
 8010be8:	ea48 460c 	orr.w	r6, r8, ip, lsl #16
 8010bec:	45b2      	cmp	sl, r6
 8010bee:	d90a      	bls.n	8010c06 <__udivmoddi4+0x6a>
 8010bf0:	19f6      	adds	r6, r6, r7
 8010bf2:	f109 31ff 	add.w	r1, r9, #4294967295
 8010bf6:	f080 8125 	bcs.w	8010e44 <__udivmoddi4+0x2a8>
 8010bfa:	45b2      	cmp	sl, r6
 8010bfc:	f240 8122 	bls.w	8010e44 <__udivmoddi4+0x2a8>
 8010c00:	f1a9 0902 	sub.w	r9, r9, #2
 8010c04:	443e      	add	r6, r7
 8010c06:	eba6 060a 	sub.w	r6, r6, sl
 8010c0a:	fbb6 f0f2 	udiv	r0, r6, r2
 8010c0e:	fb02 6610 	mls	r6, r2, r0, r6
 8010c12:	fb00 f303 	mul.w	r3, r0, r3
 8010c16:	b2a4      	uxth	r4, r4
 8010c18:	ea44 4406 	orr.w	r4, r4, r6, lsl #16
 8010c1c:	42a3      	cmp	r3, r4
 8010c1e:	d909      	bls.n	8010c34 <__udivmoddi4+0x98>
 8010c20:	19e4      	adds	r4, r4, r7
 8010c22:	f100 32ff 	add.w	r2, r0, #4294967295
 8010c26:	f080 810b 	bcs.w	8010e40 <__udivmoddi4+0x2a4>
 8010c2a:	42a3      	cmp	r3, r4
 8010c2c:	f240 8108 	bls.w	8010e40 <__udivmoddi4+0x2a4>
 8010c30:	3802      	subs	r0, #2
 8010c32:	443c      	add	r4, r7
 8010c34:	2100      	movs	r1, #0
 8010c36:	1ae4      	subs	r4, r4, r3
 8010c38:	ea40 4009 	orr.w	r0, r0, r9, lsl #16
 8010c3c:	2d00      	cmp	r5, #0
 8010c3e:	d062      	beq.n	8010d06 <__udivmoddi4+0x16a>
 8010c40:	2300      	movs	r3, #0
 8010c42:	fa24 f40e 	lsr.w	r4, r4, lr
 8010c46:	602c      	str	r4, [r5, #0]
 8010c48:	606b      	str	r3, [r5, #4]
 8010c4a:	e8bd 87f0 	ldmia.w	sp!, {r4, r5, r6, r7, r8, r9, sl, pc}
 8010c4e:	428b      	cmp	r3, r1
 8010c50:	d907      	bls.n	8010c62 <__udivmoddi4+0xc6>
 8010c52:	2d00      	cmp	r5, #0
 8010c54:	d055      	beq.n	8010d02 <__udivmoddi4+0x166>
 8010c56:	2100      	movs	r1, #0
 8010c58:	e885 0041 	stmia.w	r5, {r0, r6}
 8010c5c:	4608      	mov	r0, r1
 8010c5e:	e8bd 87f0 	ldmia.w	sp!, {r4, r5, r6, r7, r8, r9, sl, pc}
 8010c62:	fab3 f183 	clz	r1, r3
 8010c66:	2900      	cmp	r1, #0
 8010c68:	f040 808f 	bne.w	8010d8a <__udivmoddi4+0x1ee>
 8010c6c:	42b3      	cmp	r3, r6
 8010c6e:	d302      	bcc.n	8010c76 <__udivmoddi4+0xda>
 8010c70:	4282      	cmp	r2, r0
 8010c72:	f200 80fc 	bhi.w	8010e6e <__udivmoddi4+0x2d2>
 8010c76:	1a84      	subs	r4, r0, r2
 8010c78:	eb66 0603 	sbc.w	r6, r6, r3
 8010c7c:	2001      	movs	r0, #1
 8010c7e:	46b4      	mov	ip, r6
 8010c80:	2d00      	cmp	r5, #0
 8010c82:	d040      	beq.n	8010d06 <__udivmoddi4+0x16a>
 8010c84:	e885 1010 	stmia.w	r5, {r4, ip}
 8010c88:	e8bd 87f0 	ldmia.w	sp!, {r4, r5, r6, r7, r8, r9, sl, pc}
 8010c8c:	b912      	cbnz	r2, 8010c94 <__udivmoddi4+0xf8>
 8010c8e:	2701      	movs	r7, #1
 8010c90:	fbb7 f7f2 	udiv	r7, r7, r2
 8010c94:	fab7 fe87 	clz	lr, r7
 8010c98:	f1be 0f00 	cmp.w	lr, #0
 8010c9c:	d135      	bne.n	8010d0a <__udivmoddi4+0x16e>
 8010c9e:	2101      	movs	r1, #1
 8010ca0:	1bf6      	subs	r6, r6, r7
 8010ca2:	ea4f 4c17 	mov.w	ip, r7, lsr #16
 8010ca6:	fa1f f887 	uxth.w	r8, r7
 8010caa:	fbb6 f2fc 	udiv	r2, r6, ip
 8010cae:	fb0c 6612 	mls	r6, ip, r2, r6
 8010cb2:	fb08 f002 	mul.w	r0, r8, r2
 8010cb6:	0c23      	lsrs	r3, r4, #16
 8010cb8:	ea43 4606 	orr.w	r6, r3, r6, lsl #16
 8010cbc:	42b0      	cmp	r0, r6
 8010cbe:	d907      	bls.n	8010cd0 <__udivmoddi4+0x134>
 8010cc0:	19f6      	adds	r6, r6, r7
 8010cc2:	f102 33ff 	add.w	r3, r2, #4294967295
 8010cc6:	d202      	bcs.n	8010cce <__udivmoddi4+0x132>
 8010cc8:	42b0      	cmp	r0, r6
 8010cca:	f200 80d2 	bhi.w	8010e72 <__udivmoddi4+0x2d6>
 8010cce:	461a      	mov	r2, r3
 8010cd0:	1a36      	subs	r6, r6, r0
 8010cd2:	fbb6 f0fc 	udiv	r0, r6, ip
 8010cd6:	fb0c 6610 	mls	r6, ip, r0, r6
 8010cda:	fb08 f800 	mul.w	r8, r8, r0
 8010cde:	b2a3      	uxth	r3, r4
 8010ce0:	ea43 4406 	orr.w	r4, r3, r6, lsl #16
 8010ce4:	45a0      	cmp	r8, r4
 8010ce6:	d907      	bls.n	8010cf8 <__udivmoddi4+0x15c>
 8010ce8:	19e4      	adds	r4, r4, r7
 8010cea:	f100 33ff 	add.w	r3, r0, #4294967295
 8010cee:	d202      	bcs.n	8010cf6 <__udivmoddi4+0x15a>
 8010cf0:	45a0      	cmp	r8, r4
 8010cf2:	f200 80b9 	bhi.w	8010e68 <__udivmoddi4+0x2cc>
 8010cf6:	4618      	mov	r0, r3
 8010cf8:	eba4 0408 	sub.w	r4, r4, r8
 8010cfc:	ea40 4002 	orr.w	r0, r0, r2, lsl #16
 8010d00:	e79c      	b.n	8010c3c <__udivmoddi4+0xa0>
 8010d02:	4629      	mov	r1, r5
 8010d04:	4628      	mov	r0, r5
 8010d06:	e8bd 87f0 	ldmia.w	sp!, {r4, r5, r6, r7, r8, r9, sl, pc}
 8010d0a:	fa07 f70e 	lsl.w	r7, r7, lr
 8010d0e:	f1ce 0320 	rsb	r3, lr, #32
 8010d12:	fa26 f203 	lsr.w	r2, r6, r3
 8010d16:	ea4f 4c17 	mov.w	ip, r7, lsr #16
 8010d1a:	fbb2 f1fc 	udiv	r1, r2, ip
 8010d1e:	fa1f f887 	uxth.w	r8, r7
 8010d22:	fb0c 2211 	mls	r2, ip, r1, r2
 8010d26:	fa06 f60e 	lsl.w	r6, r6, lr
 8010d2a:	fa20 f303 	lsr.w	r3, r0, r3
 8010d2e:	fb01 f908 	mul.w	r9, r1, r8
 8010d32:	4333      	orrs	r3, r6
 8010d34:	0c1e      	lsrs	r6, r3, #16
 8010d36:	ea46 4602 	orr.w	r6, r6, r2, lsl #16
 8010d3a:	45b1      	cmp	r9, r6
 8010d3c:	fa00 f40e 	lsl.w	r4, r0, lr
 8010d40:	d909      	bls.n	8010d56 <__udivmoddi4+0x1ba>
 8010d42:	19f6      	adds	r6, r6, r7
 8010d44:	f101 32ff 	add.w	r2, r1, #4294967295
 8010d48:	f080 808c 	bcs.w	8010e64 <__udivmoddi4+0x2c8>
 8010d4c:	45b1      	cmp	r9, r6
 8010d4e:	f240 8089 	bls.w	8010e64 <__udivmoddi4+0x2c8>
 8010d52:	3902      	subs	r1, #2
 8010d54:	443e      	add	r6, r7
 8010d56:	eba6 0609 	sub.w	r6, r6, r9
 8010d5a:	fbb6 f0fc 	udiv	r0, r6, ip
 8010d5e:	fb0c 6210 	mls	r2, ip, r0, r6
 8010d62:	fb00 f908 	mul.w	r9, r0, r8
 8010d66:	b29e      	uxth	r6, r3
 8010d68:	ea46 4602 	orr.w	r6, r6, r2, lsl #16
 8010d6c:	45b1      	cmp	r9, r6
 8010d6e:	d907      	bls.n	8010d80 <__udivmoddi4+0x1e4>
 8010d70:	19f6      	adds	r6, r6, r7
 8010d72:	f100 33ff 	add.w	r3, r0, #4294967295
 8010d76:	d271      	bcs.n	8010e5c <__udivmoddi4+0x2c0>
 8010d78:	45b1      	cmp	r9, r6
 8010d7a:	d96f      	bls.n	8010e5c <__udivmoddi4+0x2c0>
 8010d7c:	3802      	subs	r0, #2
 8010d7e:	443e      	add	r6, r7
 8010d80:	eba6 0609 	sub.w	r6, r6, r9
 8010d84:	ea40 4101 	orr.w	r1, r0, r1, lsl #16
 8010d88:	e78f      	b.n	8010caa <__udivmoddi4+0x10e>
 8010d8a:	f1c1 0720 	rsb	r7, r1, #32
 8010d8e:	fa22 f807 	lsr.w	r8, r2, r7
 8010d92:	408b      	lsls	r3, r1
 8010d94:	ea48 0303 	orr.w	r3, r8, r3
 8010d98:	fa26 f407 	lsr.w	r4, r6, r7
 8010d9c:	ea4f 4e13 	mov.w	lr, r3, lsr #16
 8010da0:	fbb4 f9fe 	udiv	r9, r4, lr
 8010da4:	fa1f fc83 	uxth.w	ip, r3
 8010da8:	fb0e 4419 	mls	r4, lr, r9, r4
 8010dac:	408e      	lsls	r6, r1
 8010dae:	fa20 f807 	lsr.w	r8, r0, r7
 8010db2:	fb09 fa0c 	mul.w	sl, r9, ip
 8010db6:	ea48 0806 	orr.w	r8, r8, r6
 8010dba:	ea4f 4618 	mov.w	r6, r8, lsr #16
 8010dbe:	ea46 4404 	orr.w	r4, r6, r4, lsl #16
 8010dc2:	45a2      	cmp	sl, r4
 8010dc4:	fa02 f201 	lsl.w	r2, r2, r1
 8010dc8:	fa00 f601 	lsl.w	r6, r0, r1
 8010dcc:	d908      	bls.n	8010de0 <__udivmoddi4+0x244>
 8010dce:	18e4      	adds	r4, r4, r3
 8010dd0:	f109 30ff 	add.w	r0, r9, #4294967295
 8010dd4:	d244      	bcs.n	8010e60 <__udivmoddi4+0x2c4>
 8010dd6:	45a2      	cmp	sl, r4
 8010dd8:	d942      	bls.n	8010e60 <__udivmoddi4+0x2c4>
 8010dda:	f1a9 0902 	sub.w	r9, r9, #2
 8010dde:	441c      	add	r4, r3
 8010de0:	eba4 040a 	sub.w	r4, r4, sl
 8010de4:	fbb4 f0fe 	udiv	r0, r4, lr
 8010de8:	fb0e 4410 	mls	r4, lr, r0, r4
 8010dec:	fb00 fc0c 	mul.w	ip, r0, ip
 8010df0:	fa1f f888 	uxth.w	r8, r8
 8010df4:	ea48 4404 	orr.w	r4, r8, r4, lsl #16
 8010df8:	45a4      	cmp	ip, r4
 8010dfa:	d907      	bls.n	8010e0c <__udivmoddi4+0x270>
 8010dfc:	18e4      	adds	r4, r4, r3
 8010dfe:	f100 3eff 	add.w	lr, r0, #4294967295
 8010e02:	d229      	bcs.n	8010e58 <__udivmoddi4+0x2bc>
 8010e04:	45a4      	cmp	ip, r4
 8010e06:	d927      	bls.n	8010e58 <__udivmoddi4+0x2bc>
 8010e08:	3802      	subs	r0, #2
 8010e0a:	441c      	add	r4, r3
 8010e0c:	ea40 4009 	orr.w	r0, r0, r9, lsl #16
 8010e10:	fba0 8902 	umull	r8, r9, r0, r2
 8010e14:	eba4 0c0c 	sub.w	ip, r4, ip
 8010e18:	45cc      	cmp	ip, r9
 8010e1a:	46c2      	mov	sl, r8
 8010e1c:	46ce      	mov	lr, r9
 8010e1e:	d315      	bcc.n	8010e4c <__udivmoddi4+0x2b0>
 8010e20:	d012      	beq.n	8010e48 <__udivmoddi4+0x2ac>
 8010e22:	b155      	cbz	r5, 8010e3a <__udivmoddi4+0x29e>
 8010e24:	ebb6 030a 	subs.w	r3, r6, sl
 8010e28:	eb6c 060e 	sbc.w	r6, ip, lr
 8010e2c:	fa06 f707 	lsl.w	r7, r6, r7
 8010e30:	40cb      	lsrs	r3, r1
 8010e32:	431f      	orrs	r7, r3
 8010e34:	40ce      	lsrs	r6, r1
 8010e36:	602f      	str	r7, [r5, #0]
 8010e38:	606e      	str	r6, [r5, #4]
 8010e3a:	2100      	movs	r1, #0
 8010e3c:	e8bd 87f0 	ldmia.w	sp!, {r4, r5, r6, r7, r8, r9, sl, pc}
 8010e40:	4610      	mov	r0, r2
 8010e42:	e6f7      	b.n	8010c34 <__udivmoddi4+0x98>
 8010e44:	4689      	mov	r9, r1
 8010e46:	e6de      	b.n	8010c06 <__udivmoddi4+0x6a>
 8010e48:	4546      	cmp	r6, r8
 8010e4a:	d2ea      	bcs.n	8010e22 <__udivmoddi4+0x286>
 8010e4c:	ebb8 0a02 	subs.w	sl, r8, r2
 8010e50:	eb69 0e03 	sbc.w	lr, r9, r3
 8010e54:	3801      	subs	r0, #1
 8010e56:	e7e4      	b.n	8010e22 <__udivmoddi4+0x286>
 8010e58:	4670      	mov	r0, lr
 8010e5a:	e7d7      	b.n	8010e0c <__udivmoddi4+0x270>
 8010e5c:	4618      	mov	r0, r3
 8010e5e:	e78f      	b.n	8010d80 <__udivmoddi4+0x1e4>
 8010e60:	4681      	mov	r9, r0
 8010e62:	e7bd      	b.n	8010de0 <__udivmoddi4+0x244>
 8010e64:	4611      	mov	r1, r2
 8010e66:	e776      	b.n	8010d56 <__udivmoddi4+0x1ba>
 8010e68:	3802      	subs	r0, #2
 8010e6a:	443c      	add	r4, r7
 8010e6c:	e744      	b.n	8010cf8 <__udivmoddi4+0x15c>
 8010e6e:	4608      	mov	r0, r1
 8010e70:	e706      	b.n	8010c80 <__udivmoddi4+0xe4>
 8010e72:	3a02      	subs	r2, #2
 8010e74:	443e      	add	r6, r7
 8010e76:	e72b      	b.n	8010cd0 <__udivmoddi4+0x134>

08010e78 <__aeabi_idiv0>:
 8010e78:	4770      	bx	lr
 8010e7a:	bf00      	nop

08010e7c <Init_74HC165>:
#include "L74hc165.h"

volatile u16 key_statu = 0xFF;

void Init_74HC165(void)
{
 8010e7c:	b580      	push	{r7, lr}
 8010e7e:	b082      	sub	sp, #8
 8010e80:	af00      	add	r7, sp, #0
	GPIO_InitTypeDef GPIO_InitStructure; //定义结构体变量
	RCC_APB2PeriphClockCmd(RCC_APB2Periph_GPIOA, ENABLE);
 8010e82:	2101      	movs	r1, #1
 8010e84:	2004      	movs	r0, #4
 8010e86:	f003 fe29 	bl	8014adc <RCC_APB2PeriphClockCmd>

	GPIO_InitStructure.GPIO_Pin = GPIO_Pin_8;  //选择你要设置的IO口
 8010e8a:	f44f 7380 	mov.w	r3, #256	; 0x100
 8010e8e:	80bb      	strh	r3, [r7, #4]
	GPIO_InitStructure.GPIO_Mode = GPIO_Mode_Out_PP;	 //设置推挽输出模式
 8010e90:	2310      	movs	r3, #16
 8010e92:	71fb      	strb	r3, [r7, #7]
	GPIO_InitStructure.GPIO_Speed = GPIO_Speed_50MHz;	  //设置传输速率
 8010e94:	2303      	movs	r3, #3
 8010e96:	71bb      	strb	r3, [r7, #6]
	GPIO_Init(GPIOA, &GPIO_InitStructure); /* 初始化GPIO */
 8010e98:	1d3b      	adds	r3, r7, #4
 8010e9a:	4619      	mov	r1, r3
 8010e9c:	480f      	ldr	r0, [pc, #60]	; (8010edc <Init_74HC165+0x60>)
 8010e9e:	f003 fb21 	bl	80144e4 <GPIO_Init>

	GPIO_InitStructure.GPIO_Pin = GPIO_Pin_11;  //选择你要设置的IO口
 8010ea2:	f44f 6300 	mov.w	r3, #2048	; 0x800
 8010ea6:	80bb      	strh	r3, [r7, #4]
	GPIO_InitStructure.GPIO_Mode = GPIO_Mode_Out_PP;	 //设置推挽输出模式
 8010ea8:	2310      	movs	r3, #16
 8010eaa:	71fb      	strb	r3, [r7, #7]
	GPIO_InitStructure.GPIO_Speed = GPIO_Speed_50MHz;	  //设置传输速率
 8010eac:	2303      	movs	r3, #3
 8010eae:	71bb      	strb	r3, [r7, #6]
	GPIO_Init(GPIOA, &GPIO_InitStructure); /* 初始化GPIO */
 8010eb0:	1d3b      	adds	r3, r7, #4
 8010eb2:	4619      	mov	r1, r3
 8010eb4:	4809      	ldr	r0, [pc, #36]	; (8010edc <Init_74HC165+0x60>)
 8010eb6:	f003 fb15 	bl	80144e4 <GPIO_Init>

	GPIO_InitStructure.GPIO_Pin = GPIO_Pin_12;  //选择你要设置的IO口
 8010eba:	f44f 5380 	mov.w	r3, #4096	; 0x1000
 8010ebe:	80bb      	strh	r3, [r7, #4]
	GPIO_InitStructure.GPIO_Mode = GPIO_Mode_IPU;	 //设置数据口上拉输入
 8010ec0:	2348      	movs	r3, #72	; 0x48
 8010ec2:	71fb      	strb	r3, [r7, #7]
	GPIO_Init(GPIOA, &GPIO_InitStructure); /* 初始化GPIO */
 8010ec4:	1d3b      	adds	r3, r7, #4
 8010ec6:	4619      	mov	r1, r3
 8010ec8:	4804      	ldr	r0, [pc, #16]	; (8010edc <Init_74HC165+0x60>)
 8010eca:	f003 fb0b 	bl	80144e4 <GPIO_Init>

//	_HC165_PL = 1;  //不读取状态
//	_HC165_CP = 1;  //时钟拉高，便于产生上升沿
	read_74HC165();
 8010ece:	f000 f807 	bl	8010ee0 <read_74HC165>

}
 8010ed2:	bf00      	nop
 8010ed4:	3708      	adds	r7, #8
 8010ed6:	46bd      	mov	sp, r7
 8010ed8:	bd80      	pop	{r7, pc}
 8010eda:	bf00      	nop
 8010edc:	40010800 	.word	0x40010800

08010ee0 <read_74HC165>:
u16 read_74HC165(void)
{
 8010ee0:	b580      	push	{r7, lr}
 8010ee2:	b082      	sub	sp, #8
 8010ee4:	af00      	add	r7, sp, #0
	u8 i;
	u16 temp = 0;
 8010ee6:	2300      	movs	r3, #0
 8010ee8:	80bb      	strh	r3, [r7, #4]
	static u16 old_statu = 0xffff;
	_HC165_PL = 1;
 8010eea:	4b32      	ldr	r3, [pc, #200]	; (8010fb4 <read_74HC165+0xd4>)
 8010eec:	2201      	movs	r2, #1
 8010eee:	601a      	str	r2, [r3, #0]
	delay_us(1);
 8010ef0:	2001      	movs	r0, #1
 8010ef2:	f004 fb13 	bl	801551c <delay_us>
	_HC165_PL = 0; //PL拉低，读取按键状态
 8010ef6:	4b2f      	ldr	r3, [pc, #188]	; (8010fb4 <read_74HC165+0xd4>)
 8010ef8:	2200      	movs	r2, #0
 8010efa:	601a      	str	r2, [r3, #0]
	delay_us(1);
 8010efc:	2001      	movs	r0, #1
 8010efe:	f004 fb0d 	bl	801551c <delay_us>
	_HC165_PL = 1; //PL拉高，停止按键读取
 8010f02:	4b2c      	ldr	r3, [pc, #176]	; (8010fb4 <read_74HC165+0xd4>)
 8010f04:	2201      	movs	r2, #1
 8010f06:	601a      	str	r2, [r3, #0]
	delay_us(1);
 8010f08:	2001      	movs	r0, #1
 8010f0a:	f004 fb07 	bl	801551c <delay_us>
	_HC165_CP = 1;
 8010f0e:	4b2a      	ldr	r3, [pc, #168]	; (8010fb8 <read_74HC165+0xd8>)
 8010f10:	2201      	movs	r2, #1
 8010f12:	601a      	str	r2, [r3, #0]
	delay_us(1);
 8010f14:	2001      	movs	r0, #1
 8010f16:	f004 fb01 	bl	801551c <delay_us>
	if (GPIO_ReadInputDataBit(GPIOA, GPIO_Pin_12) == 0) //低电平表示按键导通
 8010f1a:	f44f 5180 	mov.w	r1, #4096	; 0x1000
 8010f1e:	4827      	ldr	r0, [pc, #156]	; (8010fbc <read_74HC165+0xdc>)
 8010f20:	f003 fb9c 	bl	801465c <GPIO_ReadInputDataBit>
 8010f24:	4603      	mov	r3, r0
 8010f26:	2b00      	cmp	r3, #0
 8010f28:	d102      	bne.n	8010f30 <read_74HC165+0x50>
		temp += 1;
 8010f2a:	88bb      	ldrh	r3, [r7, #4]
 8010f2c:	3301      	adds	r3, #1
 8010f2e:	80bb      	strh	r3, [r7, #4]
	for (i = 0; i < 15; i++) //因为最高位不用移位即可读取，故循环(16-1)次，依次把次高位移到最高位，第一级74HC165优先读取
 8010f30:	2300      	movs	r3, #0
 8010f32:	71fb      	strb	r3, [r7, #7]
 8010f34:	e01c      	b.n	8010f70 <read_74HC165+0x90>
	{
		_HC165_CP = 0;  //为低读取数据
 8010f36:	4b20      	ldr	r3, [pc, #128]	; (8010fb8 <read_74HC165+0xd8>)
 8010f38:	2200      	movs	r2, #0
 8010f3a:	601a      	str	r2, [r3, #0]
		delay_us(1);
 8010f3c:	2001      	movs	r0, #1
 8010f3e:	f004 faed 	bl	801551c <delay_us>
		_HC165_CP = 1;
 8010f42:	4b1d      	ldr	r3, [pc, #116]	; (8010fb8 <read_74HC165+0xd8>)
 8010f44:	2201      	movs	r2, #1
 8010f46:	601a      	str	r2, [r3, #0]
		delay_us(1);
 8010f48:	2001      	movs	r0, #1
 8010f4a:	f004 fae7 	bl	801551c <delay_us>
		temp = temp << 1;
 8010f4e:	88bb      	ldrh	r3, [r7, #4]
 8010f50:	005b      	lsls	r3, r3, #1
 8010f52:	80bb      	strh	r3, [r7, #4]
		if (GPIO_ReadInputDataBit(GPIOA, GPIO_Pin_12) == 0)
 8010f54:	f44f 5180 	mov.w	r1, #4096	; 0x1000
 8010f58:	4818      	ldr	r0, [pc, #96]	; (8010fbc <read_74HC165+0xdc>)
 8010f5a:	f003 fb7f 	bl	801465c <GPIO_ReadInputDataBit>
 8010f5e:	4603      	mov	r3, r0
 8010f60:	2b00      	cmp	r3, #0
 8010f62:	d102      	bne.n	8010f6a <read_74HC165+0x8a>
			temp += 1;
 8010f64:	88bb      	ldrh	r3, [r7, #4]
 8010f66:	3301      	adds	r3, #1
 8010f68:	80bb      	strh	r3, [r7, #4]
	for (i = 0; i < 15; i++) //因为最高位不用移位即可读取，故循环(16-1)次，依次把次高位移到最高位，第一级74HC165优先读取
 8010f6a:	79fb      	ldrb	r3, [r7, #7]
 8010f6c:	3301      	adds	r3, #1
 8010f6e:	71fb      	strb	r3, [r7, #7]
 8010f70:	79fb      	ldrb	r3, [r7, #7]
 8010f72:	2b0e      	cmp	r3, #14
 8010f74:	d9df      	bls.n	8010f36 <read_74HC165+0x56>

	}
	_HC165_PL = 1;
 8010f76:	4b0f      	ldr	r3, [pc, #60]	; (8010fb4 <read_74HC165+0xd4>)
 8010f78:	2201      	movs	r2, #1
 8010f7a:	601a      	str	r2, [r3, #0]
	_HC165_CP = 1;
 8010f7c:	4b0e      	ldr	r3, [pc, #56]	; (8010fb8 <read_74HC165+0xd8>)
 8010f7e:	2201      	movs	r2, #1
 8010f80:	601a      	str	r2, [r3, #0]
	temp &= 0x3f3f;
 8010f82:	88bb      	ldrh	r3, [r7, #4]
 8010f84:	f023 03c0 	bic.w	r3, r3, #192	; 0xc0
 8010f88:	049b      	lsls	r3, r3, #18
 8010f8a:	0c9b      	lsrs	r3, r3, #18
 8010f8c:	80bb      	strh	r3, [r7, #4]
	if(old_statu != temp)
 8010f8e:	4b0c      	ldr	r3, [pc, #48]	; (8010fc0 <read_74HC165+0xe0>)
 8010f90:	881b      	ldrh	r3, [r3, #0]
 8010f92:	88ba      	ldrh	r2, [r7, #4]
 8010f94:	429a      	cmp	r2, r3
 8010f96:	d007      	beq.n	8010fa8 <read_74HC165+0xc8>
	{
		printf("key_statu=%04X\r\n", temp);
 8010f98:	88bb      	ldrh	r3, [r7, #4]
 8010f9a:	4619      	mov	r1, r3
 8010f9c:	4809      	ldr	r0, [pc, #36]	; (8010fc4 <read_74HC165+0xe4>)
 8010f9e:	f005 fa79 	bl	8016494 <printf>
		old_statu = temp;
 8010fa2:	4a07      	ldr	r2, [pc, #28]	; (8010fc0 <read_74HC165+0xe0>)
 8010fa4:	88bb      	ldrh	r3, [r7, #4]
 8010fa6:	8013      	strh	r3, [r2, #0]
	}
	return temp;
 8010fa8:	88bb      	ldrh	r3, [r7, #4]
}
 8010faa:	4618      	mov	r0, r3
 8010fac:	3708      	adds	r7, #8
 8010fae:	46bd      	mov	sp, r7
 8010fb0:	bd80      	pop	{r7, pc}
 8010fb2:	bf00      	nop
 8010fb4:	422101ac 	.word	0x422101ac
 8010fb8:	422101a0 	.word	0x422101a0
 8010fbc:	40010800 	.word	0x40010800
 8010fc0:	20000002 	.word	0x20000002
 8010fc4:	0801b4a8 	.word	0x0801b4a8

08010fc8 <Init_74HC595>:

struct HC595Fram HC595_STATUS =
{ 0 };

void Init_74HC595(void)
{
 8010fc8:	b580      	push	{r7, lr}
 8010fca:	b082      	sub	sp, #8
 8010fcc:	af00      	add	r7, sp, #0
	GPIO_InitTypeDef GPIO_InitStructure; //定义结构体变量
	RCC_APB2PeriphClockCmd(RCC_APB2Periph_GPIOA | RCC_APB2Periph_GPIOC, ENABLE);
 8010fce:	2101      	movs	r1, #1
 8010fd0:	2014      	movs	r0, #20
 8010fd2:	f003 fd83 	bl	8014adc <RCC_APB2PeriphClockCmd>

	GPIO_InitStructure.GPIO_Pin = GPIO_Pin_1 | GPIO_Pin_4;  //选择你要设置的IO口
 8010fd6:	2312      	movs	r3, #18
 8010fd8:	80bb      	strh	r3, [r7, #4]
	GPIO_InitStructure.GPIO_Mode = GPIO_Mode_Out_PP;	 //设置推挽输出模式
 8010fda:	2310      	movs	r3, #16
 8010fdc:	71fb      	strb	r3, [r7, #7]
	GPIO_InitStructure.GPIO_Speed = GPIO_Speed_50MHz;	  //设置传输速率
 8010fde:	2303      	movs	r3, #3
 8010fe0:	71bb      	strb	r3, [r7, #6]
	GPIO_Init(GPIOA, &GPIO_InitStructure); /* 初始化GPIO */
 8010fe2:	1d3b      	adds	r3, r7, #4
 8010fe4:	4619      	mov	r1, r3
 8010fe6:	480f      	ldr	r0, [pc, #60]	; (8011024 <Init_74HC595+0x5c>)
 8010fe8:	f003 fa7c 	bl	80144e4 <GPIO_Init>

	GPIO_InitStructure.GPIO_Pin = GPIO_Pin_3;  //选择你要设置的IO口
 8010fec:	2308      	movs	r3, #8
 8010fee:	80bb      	strh	r3, [r7, #4]
	GPIO_InitStructure.GPIO_Mode = GPIO_Mode_Out_PP;	 //设置推挽输出模式
 8010ff0:	2310      	movs	r3, #16
 8010ff2:	71fb      	strb	r3, [r7, #7]
	GPIO_InitStructure.GPIO_Speed = GPIO_Speed_50MHz;	  //设置传输速率
 8010ff4:	2303      	movs	r3, #3
 8010ff6:	71bb      	strb	r3, [r7, #6]
	GPIO_Init(GPIOC, &GPIO_InitStructure); /* 初始化GPIO */
 8010ff8:	1d3b      	adds	r3, r7, #4
 8010ffa:	4619      	mov	r1, r3
 8010ffc:	480a      	ldr	r0, [pc, #40]	; (8011028 <Init_74HC595+0x60>)
 8010ffe:	f003 fa71 	bl	80144e4 <GPIO_Init>

	_HC595_CLK = 0;
 8011002:	4b0a      	ldr	r3, [pc, #40]	; (801102c <Init_74HC595+0x64>)
 8011004:	2200      	movs	r2, #0
 8011006:	601a      	str	r2, [r3, #0]
	_HC595_LATCH = 0;
 8011008:	4b09      	ldr	r3, [pc, #36]	; (8011030 <Init_74HC595+0x68>)
 801100a:	2200      	movs	r2, #0
 801100c:	601a      	str	r2, [r3, #0]
	_HC595_DATA = 0;
 801100e:	4b09      	ldr	r3, [pc, #36]	; (8011034 <Init_74HC595+0x6c>)
 8011010:	2200      	movs	r2, #0
 8011012:	601a      	str	r2, [r3, #0]
	//灯板开始单独控制某一个灯
	HC595_STATUS.allowSigleContrl = 1;
 8011014:	4b08      	ldr	r3, [pc, #32]	; (8011038 <Init_74HC595+0x70>)
 8011016:	2201      	movs	r2, #1
 8011018:	701a      	strb	r2, [r3, #0]
}
 801101a:	bf00      	nop
 801101c:	3708      	adds	r7, #8
 801101e:	46bd      	mov	sp, r7
 8011020:	bd80      	pop	{r7, pc}
 8011022:	bf00      	nop
 8011024:	40010800 	.word	0x40010800
 8011028:	40011000 	.word	0x40011000
 801102c:	42210184 	.word	0x42210184
 8011030:	4222018c 	.word	0x4222018c
 8011034:	42210190 	.word	0x42210190
 8011038:	200006ac 	.word	0x200006ac

0801103c <HC595_Send_Byte>:
/***
 *74HC595 发送一个字节
 *即往74HC595的SI引脚发送一个字节
 */
void HC595_Send_Byte(u8 byte)
{
 801103c:	b580      	push	{r7, lr}
 801103e:	b084      	sub	sp, #16
 8011040:	af00      	add	r7, sp, #0
 8011042:	4603      	mov	r3, r0
 8011044:	71fb      	strb	r3, [r7, #7]
	u8 i;
	for (i = 0; i < 8; i++)  //一个字节8位，传输8次，一次一位，循环8次，刚好移完8位
 8011046:	2300      	movs	r3, #0
 8011048:	73fb      	strb	r3, [r7, #15]
 801104a:	e01c      	b.n	8011086 <HC595_Send_Byte+0x4a>
	{
		/****  步骤1：将数据传到DS引脚    ****/
		if (byte & 0x80)        //先传输高位，通过与运算判断第八是否为1
 801104c:	f997 3007 	ldrsb.w	r3, [r7, #7]
 8011050:	2b00      	cmp	r3, #0
 8011052:	da03      	bge.n	801105c <HC595_Send_Byte+0x20>
			_HC595_DATA = 1;    //如果第八位是1，则与 595 DS连接的引脚输出高电平
 8011054:	4b15      	ldr	r3, [pc, #84]	; (80110ac <HC595_Send_Byte+0x70>)
 8011056:	2201      	movs	r2, #1
 8011058:	601a      	str	r2, [r3, #0]
 801105a:	e002      	b.n	8011062 <HC595_Send_Byte+0x26>
		else
			//否则输出低电平
			_HC595_DATA = 0;
 801105c:	4b13      	ldr	r3, [pc, #76]	; (80110ac <HC595_Send_Byte+0x70>)
 801105e:	2200      	movs	r2, #0
 8011060:	601a      	str	r2, [r3, #0]

		/*** 步骤2：SHCP每产生一个上升沿，当前的bit就被送入移位寄存器 ***/
		_HC595_CLK = 0;   // SHCP拉低
 8011062:	4b13      	ldr	r3, [pc, #76]	; (80110b0 <HC595_Send_Byte+0x74>)
 8011064:	2200      	movs	r2, #0
 8011066:	601a      	str	r2, [r3, #0]
		delay_us(1);           // 适当延时
 8011068:	2001      	movs	r0, #1
 801106a:	f004 fa57 	bl	801551c <delay_us>
		_HC595_CLK = 1;  // SHCP拉高， SHCP产生上升沿
 801106e:	4b10      	ldr	r3, [pc, #64]	; (80110b0 <HC595_Send_Byte+0x74>)
 8011070:	2201      	movs	r2, #1
 8011072:	601a      	str	r2, [r3, #0]
		delay_us(1);
 8011074:	2001      	movs	r0, #1
 8011076:	f004 fa51 	bl	801551c <delay_us>
		byte <<= 1;		// 左移一位，将低位往高位移，通过	if (byte & 0x80)判断低位是否为1
 801107a:	79fb      	ldrb	r3, [r7, #7]
 801107c:	005b      	lsls	r3, r3, #1
 801107e:	71fb      	strb	r3, [r7, #7]
	for (i = 0; i < 8; i++)  //一个字节8位，传输8次，一次一位，循环8次，刚好移完8位
 8011080:	7bfb      	ldrb	r3, [r7, #15]
 8011082:	3301      	adds	r3, #1
 8011084:	73fb      	strb	r3, [r7, #15]
 8011086:	7bfb      	ldrb	r3, [r7, #15]
 8011088:	2b07      	cmp	r3, #7
 801108a:	d9df      	bls.n	801104c <HC595_Send_Byte+0x10>
	}
	//输出锁存使能
	_HC595_LATCH = 0;
 801108c:	4b09      	ldr	r3, [pc, #36]	; (80110b4 <HC595_Send_Byte+0x78>)
 801108e:	2200      	movs	r2, #0
 8011090:	601a      	str	r2, [r3, #0]
	delay_us(1);
 8011092:	2001      	movs	r0, #1
 8011094:	f004 fa42 	bl	801551c <delay_us>
	_HC595_LATCH = 1;
 8011098:	4b06      	ldr	r3, [pc, #24]	; (80110b4 <HC595_Send_Byte+0x78>)
 801109a:	2201      	movs	r2, #1
 801109c:	601a      	str	r2, [r3, #0]
	delay_us(1);
 801109e:	2001      	movs	r0, #1
 80110a0:	f004 fa3c 	bl	801551c <delay_us>
}
 80110a4:	bf00      	nop
 80110a6:	3710      	adds	r7, #16
 80110a8:	46bd      	mov	sp, r7
 80110aa:	bd80      	pop	{r7, pc}
 80110ac:	42210190 	.word	0x42210190
 80110b0:	42210184 	.word	0x42210184
 80110b4:	4222018c 	.word	0x4222018c

080110b8 <ledON>:
/**
 * 点亮某一个led灯
 * @led 1-6表示灯1-6
 */
void ledON(u8 led)
{
 80110b8:	b580      	push	{r7, lr}
 80110ba:	b082      	sub	sp, #8
 80110bc:	af00      	add	r7, sp, #0
 80110be:	4603      	mov	r3, r0
 80110c0:	71fb      	strb	r3, [r7, #7]
	if (HC595_STATUS.allowSigleContrl)
 80110c2:	4b0f      	ldr	r3, [pc, #60]	; (8011100 <ledON+0x48>)
 80110c4:	781b      	ldrb	r3, [r3, #0]
 80110c6:	2b00      	cmp	r3, #0
 80110c8:	d015      	beq.n	80110f6 <ledON+0x3e>
	{
		HC595_STATUS.LAST_LED_STATU &= ~(1 << (7 - led)); //对某位清零
 80110ca:	4b0d      	ldr	r3, [pc, #52]	; (8011100 <ledON+0x48>)
 80110cc:	785b      	ldrb	r3, [r3, #1]
 80110ce:	b25a      	sxtb	r2, r3
 80110d0:	79fb      	ldrb	r3, [r7, #7]
 80110d2:	f1c3 0307 	rsb	r3, r3, #7
 80110d6:	2101      	movs	r1, #1
 80110d8:	fa01 f303 	lsl.w	r3, r1, r3
 80110dc:	b25b      	sxtb	r3, r3
 80110de:	43db      	mvns	r3, r3
 80110e0:	b25b      	sxtb	r3, r3
 80110e2:	4013      	ands	r3, r2
 80110e4:	b25b      	sxtb	r3, r3
 80110e6:	b2da      	uxtb	r2, r3
 80110e8:	4b05      	ldr	r3, [pc, #20]	; (8011100 <ledON+0x48>)
 80110ea:	705a      	strb	r2, [r3, #1]
		HC595_Send_Byte(HC595_STATUS.LAST_LED_STATU);
 80110ec:	4b04      	ldr	r3, [pc, #16]	; (8011100 <ledON+0x48>)
 80110ee:	785b      	ldrb	r3, [r3, #1]
 80110f0:	4618      	mov	r0, r3
 80110f2:	f7ff ffa3 	bl	801103c <HC595_Send_Byte>
	}
}
 80110f6:	bf00      	nop
 80110f8:	3708      	adds	r7, #8
 80110fa:	46bd      	mov	sp, r7
 80110fc:	bd80      	pop	{r7, pc}
 80110fe:	bf00      	nop
 8011100:	200006ac 	.word	0x200006ac

08011104 <ledOFF>:

void ledOFF(u8 led)
{
 8011104:	b580      	push	{r7, lr}
 8011106:	b082      	sub	sp, #8
 8011108:	af00      	add	r7, sp, #0
 801110a:	4603      	mov	r3, r0
 801110c:	71fb      	strb	r3, [r7, #7]
	if (HC595_STATUS.allowSigleContrl)
 801110e:	4b0e      	ldr	r3, [pc, #56]	; (8011148 <ledOFF+0x44>)
 8011110:	781b      	ldrb	r3, [r3, #0]
 8011112:	2b00      	cmp	r3, #0
 8011114:	d013      	beq.n	801113e <ledOFF+0x3a>
	{
		HC595_STATUS.LAST_LED_STATU |= (1 << (7 - led)); //对某位置位
 8011116:	4b0c      	ldr	r3, [pc, #48]	; (8011148 <ledOFF+0x44>)
 8011118:	785b      	ldrb	r3, [r3, #1]
 801111a:	b25a      	sxtb	r2, r3
 801111c:	79fb      	ldrb	r3, [r7, #7]
 801111e:	f1c3 0307 	rsb	r3, r3, #7
 8011122:	2101      	movs	r1, #1
 8011124:	fa01 f303 	lsl.w	r3, r1, r3
 8011128:	b25b      	sxtb	r3, r3
 801112a:	4313      	orrs	r3, r2
 801112c:	b25b      	sxtb	r3, r3
 801112e:	b2da      	uxtb	r2, r3
 8011130:	4b05      	ldr	r3, [pc, #20]	; (8011148 <ledOFF+0x44>)
 8011132:	705a      	strb	r2, [r3, #1]
		HC595_Send_Byte(HC595_STATUS.LAST_LED_STATU);
 8011134:	4b04      	ldr	r3, [pc, #16]	; (8011148 <ledOFF+0x44>)
 8011136:	785b      	ldrb	r3, [r3, #1]
 8011138:	4618      	mov	r0, r3
 801113a:	f7ff ff7f 	bl	801103c <HC595_Send_Byte>
	}
}
 801113e:	bf00      	nop
 8011140:	3708      	adds	r7, #8
 8011142:	46bd      	mov	sp, r7
 8011144:	bd80      	pop	{r7, pc}
 8011146:	bf00      	nop
 8011148:	200006ac 	.word	0x200006ac

0801114c <ledBLINK>:

void ledBLINK(u8 led)
{
 801114c:	b580      	push	{r7, lr}
 801114e:	b082      	sub	sp, #8
 8011150:	af00      	add	r7, sp, #0
 8011152:	4603      	mov	r3, r0
 8011154:	71fb      	strb	r3, [r7, #7]
	if (HC595_STATUS.allowSigleContrl)
 8011156:	4b0e      	ldr	r3, [pc, #56]	; (8011190 <ledBLINK+0x44>)
 8011158:	781b      	ldrb	r3, [r3, #0]
 801115a:	2b00      	cmp	r3, #0
 801115c:	d013      	beq.n	8011186 <ledBLINK+0x3a>
	{
		HC595_STATUS.LAST_LED_STATU ^= (1 << (7 - led)); //对某位置位
 801115e:	4b0c      	ldr	r3, [pc, #48]	; (8011190 <ledBLINK+0x44>)
 8011160:	785b      	ldrb	r3, [r3, #1]
 8011162:	b25a      	sxtb	r2, r3
 8011164:	79fb      	ldrb	r3, [r7, #7]
 8011166:	f1c3 0307 	rsb	r3, r3, #7
 801116a:	2101      	movs	r1, #1
 801116c:	fa01 f303 	lsl.w	r3, r1, r3
 8011170:	b25b      	sxtb	r3, r3
 8011172:	4053      	eors	r3, r2
 8011174:	b25b      	sxtb	r3, r3
 8011176:	b2da      	uxtb	r2, r3
 8011178:	4b05      	ldr	r3, [pc, #20]	; (8011190 <ledBLINK+0x44>)
 801117a:	705a      	strb	r2, [r3, #1]
		HC595_Send_Byte(HC595_STATUS.LAST_LED_STATU);
 801117c:	4b04      	ldr	r3, [pc, #16]	; (8011190 <ledBLINK+0x44>)
 801117e:	785b      	ldrb	r3, [r3, #1]
 8011180:	4618      	mov	r0, r3
 8011182:	f7ff ff5b 	bl	801103c <HC595_Send_Byte>
	}
}
 8011186:	bf00      	nop
 8011188:	3708      	adds	r7, #8
 801118a:	46bd      	mov	sp, r7
 801118c:	bd80      	pop	{r7, pc}
 801118e:	bf00      	nop
 8011190:	200006ac 	.word	0x200006ac

08011194 <TIM4_Init>:
 * 输    入         : per:重装载值
 psc:分频系数
 * 输    出         : 无
 *******************************************************************************/
void TIM4_Init(u16 per, u16 psc)
{
 8011194:	b580      	push	{r7, lr}
 8011196:	b086      	sub	sp, #24
 8011198:	af00      	add	r7, sp, #0
 801119a:	4603      	mov	r3, r0
 801119c:	460a      	mov	r2, r1
 801119e:	80fb      	strh	r3, [r7, #6]
 80111a0:	4613      	mov	r3, r2
 80111a2:	80bb      	strh	r3, [r7, #4]
	TIM_TimeBaseInitTypeDef TIM_TimeBaseInitStructure;
	NVIC_InitTypeDef NVIC_InitStructure;

	TIM_DeInit(TIM4);
 80111a4:	4819      	ldr	r0, [pc, #100]	; (801120c <TIM4_Init+0x78>)
 80111a6:	f003 fd4b 	bl	8014c40 <TIM_DeInit>

	RCC_APB1PeriphClockCmd(RCC_APB1Periph_TIM4, ENABLE); //使能TIM4时钟
 80111aa:	2101      	movs	r1, #1
 80111ac:	2004      	movs	r0, #4
 80111ae:	f003 fcb3 	bl	8014b18 <RCC_APB1PeriphClockCmd>

	TIM_TimeBaseInitStructure.TIM_Period = per;   //自动装载值
 80111b2:	88fb      	ldrh	r3, [r7, #6]
 80111b4:	823b      	strh	r3, [r7, #16]
	TIM_TimeBaseInitStructure.TIM_Prescaler = psc; //分频系数
 80111b6:	88bb      	ldrh	r3, [r7, #4]
 80111b8:	81bb      	strh	r3, [r7, #12]
	TIM_TimeBaseInitStructure.TIM_ClockDivision = TIM_CKD_DIV1;
 80111ba:	2300      	movs	r3, #0
 80111bc:	827b      	strh	r3, [r7, #18]
	TIM_TimeBaseInitStructure.TIM_CounterMode = TIM_CounterMode_Up; //设置向上计数模式
 80111be:	2300      	movs	r3, #0
 80111c0:	81fb      	strh	r3, [r7, #14]
	TIM_TimeBaseInit(TIM4, &TIM_TimeBaseInitStructure);
 80111c2:	f107 030c 	add.w	r3, r7, #12
 80111c6:	4619      	mov	r1, r3
 80111c8:	4810      	ldr	r0, [pc, #64]	; (801120c <TIM4_Init+0x78>)
 80111ca:	f003 fe4f 	bl	8014e6c <TIM_TimeBaseInit>

	TIM_ITConfig(TIM4, TIM_IT_Update, ENABLE); //开启定时器中断
 80111ce:	2201      	movs	r2, #1
 80111d0:	2101      	movs	r1, #1
 80111d2:	480e      	ldr	r0, [pc, #56]	; (801120c <TIM4_Init+0x78>)
 80111d4:	f003 fee5 	bl	8014fa2 <TIM_ITConfig>
	TIM_ClearITPendingBit(TIM4, TIM_IT_Update);
 80111d8:	2101      	movs	r1, #1
 80111da:	480c      	ldr	r0, [pc, #48]	; (801120c <TIM4_Init+0x78>)
 80111dc:	f003 ff2d 	bl	801503a <TIM_ClearITPendingBit>

	NVIC_InitStructure.NVIC_IRQChannel = TIM4_IRQn; //定时器中断通道
 80111e0:	231e      	movs	r3, #30
 80111e2:	723b      	strb	r3, [r7, #8]
	NVIC_InitStructure.NVIC_IRQChannelPreemptionPriority = 4; //抢占优先级
 80111e4:	2304      	movs	r3, #4
 80111e6:	727b      	strb	r3, [r7, #9]
	NVIC_InitStructure.NVIC_IRQChannelSubPriority = 4;		//子优先级
 80111e8:	2304      	movs	r3, #4
 80111ea:	72bb      	strb	r3, [r7, #10]
	NVIC_InitStructure.NVIC_IRQChannelCmd = ENABLE;			//IRQ通道使能
 80111ec:	2301      	movs	r3, #1
 80111ee:	72fb      	strb	r3, [r7, #11]
	NVIC_Init(&NVIC_InitStructure);
 80111f0:	f107 0308 	add.w	r3, r7, #8
 80111f4:	4618      	mov	r0, r3
 80111f6:	f002 ffe1 	bl	80141bc <NVIC_Init>

	TIM_Cmd(TIM4, ENABLE); //使能定时器
 80111fa:	2101      	movs	r1, #1
 80111fc:	4803      	ldr	r0, [pc, #12]	; (801120c <TIM4_Init+0x78>)
 80111fe:	f003 feb1 	bl	8014f64 <TIM_Cmd>
}
 8011202:	bf00      	nop
 8011204:	3718      	adds	r7, #24
 8011206:	46bd      	mov	sp, r7
 8011208:	bd80      	pop	{r7, pc}
 801120a:	bf00      	nop
 801120c:	40000800 	.word	0x40000800

08011210 <TIM4_IRQHandler>:
 * 函数功能		   : TIM4中断函数
 * 输    入         : 无
 * 输    出         : 无
 *******************************************************************************/
void TIM4_IRQHandler(void)
{
 8011210:	b580      	push	{r7, lr}
 8011212:	af00      	add	r7, sp, #0
	if (TIM_GetITStatus(TIM4, TIM_IT_Update) != RESET)
 8011214:	2101      	movs	r1, #1
 8011216:	4832      	ldr	r0, [pc, #200]	; (80112e0 <TIM4_IRQHandler+0xd0>)
 8011218:	f003 fee6 	bl	8014fe8 <TIM_GetITStatus>
 801121c:	4603      	mov	r3, r0
 801121e:	2b00      	cmp	r3, #0
 8011220:	f000 81e4 	beq.w	80115ec <TIM4_IRQHandler+0x3dc>
	{
		TIM_ClearITPendingBit(TIM4, TIM_IT_Update);
 8011224:	2101      	movs	r1, #1
 8011226:	482e      	ldr	r0, [pc, #184]	; (80112e0 <TIM4_IRQHandler+0xd0>)
 8011228:	f003 ff07 	bl	801503a <TIM_ClearITPendingBit>

		//第一次上报口状态失败
		if (F4G_Fram_Record_Struct.firstStatuHeartNotSucc)
 801122c:	4b2d      	ldr	r3, [pc, #180]	; (80112e4 <TIM4_IRQHandler+0xd4>)
 801122e:	f893 3a40 	ldrb.w	r3, [r3, #2624]	; 0xa40
 8011232:	b2db      	uxtb	r3, r3
 8011234:	2b00      	cmp	r3, #0
 8011236:	d018      	beq.n	801126a <TIM4_IRQHandler+0x5a>
		{
			firstStatuHeartCnt++;
 8011238:	4b2b      	ldr	r3, [pc, #172]	; (80112e8 <TIM4_IRQHandler+0xd8>)
 801123a:	881b      	ldrh	r3, [r3, #0]
 801123c:	b29b      	uxth	r3, r3
 801123e:	3301      	adds	r3, #1
 8011240:	b29a      	uxth	r2, r3
 8011242:	4b29      	ldr	r3, [pc, #164]	; (80112e8 <TIM4_IRQHandler+0xd8>)
 8011244:	801a      	strh	r2, [r3, #0]
			if (firstStatuHeartCnt == 2000)
 8011246:	4b28      	ldr	r3, [pc, #160]	; (80112e8 <TIM4_IRQHandler+0xd8>)
 8011248:	881b      	ldrh	r3, [r3, #0]
 801124a:	b29b      	uxth	r3, r3
 801124c:	f5b3 6ffa 	cmp.w	r3, #2000	; 0x7d0
 8011250:	d10b      	bne.n	801126a <TIM4_IRQHandler+0x5a>
			{
				firstStatuHeartCnt = 0;
 8011252:	4b25      	ldr	r3, [pc, #148]	; (80112e8 <TIM4_IRQHandler+0xd8>)
 8011254:	2200      	movs	r2, #0
 8011256:	801a      	strh	r2, [r3, #0]
				strcpy(F4G_Params.htCMD, "32");
 8011258:	4b24      	ldr	r3, [pc, #144]	; (80112ec <TIM4_IRQHandler+0xdc>)
 801125a:	4a25      	ldr	r2, [pc, #148]	; (80112f0 <TIM4_IRQHandler+0xe0>)
 801125c:	8811      	ldrh	r1, [r2, #0]
 801125e:	7892      	ldrb	r2, [r2, #2]
 8011260:	8019      	strh	r1, [r3, #0]
 8011262:	709a      	strb	r2, [r3, #2]
				F4G_Params.STHeart = 1;
 8011264:	4b23      	ldr	r3, [pc, #140]	; (80112f4 <TIM4_IRQHandler+0xe4>)
 8011266:	2201      	movs	r2, #1
 8011268:	701a      	strb	r2, [r3, #0]
			}
		}
		//上电注册成功
		if (F4G_Fram_Record_Struct.registerSuccess)
 801126a:	4b1e      	ldr	r3, [pc, #120]	; (80112e4 <TIM4_IRQHandler+0xd4>)
 801126c:	f893 3a3f 	ldrb.w	r3, [r3, #2623]	; 0xa3f
 8011270:	b2db      	uxtb	r3, r3
 8011272:	2b00      	cmp	r3, #0
 8011274:	d017      	beq.n	80112a6 <TIM4_IRQHandler+0x96>
		{
			F4G_Fram_Record_Struct.registerSuccess = 0;
 8011276:	4b1b      	ldr	r3, [pc, #108]	; (80112e4 <TIM4_IRQHandler+0xd4>)
 8011278:	2200      	movs	r2, #0
 801127a:	f883 2a3f 	strb.w	r2, [r3, #2623]	; 0xa3f

			LED_Status = 1;
 801127e:	4b1e      	ldr	r3, [pc, #120]	; (80112f8 <TIM4_IRQHandler+0xe8>)
 8011280:	2201      	movs	r2, #1
 8011282:	601a      	str	r2, [r3, #0]
//			HC595_Send_Byte(0xFF); //灯全部灭
			//灯板开始单独控制某一个灯
//			HC595_STATUS.allowSigleContrl = 1;
//			HC595_STATUS.LAST_LED_STATU = 0xFF;
			//收到第一次上报的状态
			F4G_Fram_Record_Struct.init = 0; //初始化全部完成
 8011284:	4b17      	ldr	r3, [pc, #92]	; (80112e4 <TIM4_IRQHandler+0xd4>)
 8011286:	2200      	movs	r2, #0
 8011288:	f883 2a3e 	strb.w	r2, [r3, #2622]	; 0xa3e
			//第一次上报充电宝卡口信息
			strcpy(F4G_Params.htCMD, "32");
 801128c:	4b17      	ldr	r3, [pc, #92]	; (80112ec <TIM4_IRQHandler+0xdc>)
 801128e:	4a18      	ldr	r2, [pc, #96]	; (80112f0 <TIM4_IRQHandler+0xe0>)
 8011290:	8811      	ldrh	r1, [r2, #0]
 8011292:	7892      	ldrb	r2, [r2, #2]
 8011294:	8019      	strh	r1, [r3, #0]
 8011296:	709a      	strb	r2, [r3, #2]
			F4G_Params.STHeart = 1;
 8011298:	4b16      	ldr	r3, [pc, #88]	; (80112f4 <TIM4_IRQHandler+0xe4>)
 801129a:	2201      	movs	r2, #1
 801129c:	701a      	strb	r2, [r3, #0]
			F4G_Fram_Record_Struct.firstStatuHeartNotSucc = 1;
 801129e:	4b11      	ldr	r3, [pc, #68]	; (80112e4 <TIM4_IRQHandler+0xd4>)
 80112a0:	2201      	movs	r2, #1
 80112a2:	f883 2a40 	strb.w	r2, [r3, #2624]	; 0xa40
		}
		//4G模块上电注册中
		if (F4G_Fram_Record_Struct.init)
 80112a6:	4b0f      	ldr	r3, [pc, #60]	; (80112e4 <TIM4_IRQHandler+0xd4>)
 80112a8:	f893 3a3e 	ldrb.w	r3, [r3, #2622]	; 0xa3e
 80112ac:	b2db      	uxtb	r3, r3
 80112ae:	2b00      	cmp	r3, #0
 80112b0:	d026      	beq.n	8011300 <TIM4_IRQHandler+0xf0>
		{
			initCnt++;
 80112b2:	4b12      	ldr	r3, [pc, #72]	; (80112fc <TIM4_IRQHandler+0xec>)
 80112b4:	781b      	ldrb	r3, [r3, #0]
 80112b6:	b2db      	uxtb	r3, r3
 80112b8:	3301      	adds	r3, #1
 80112ba:	b2da      	uxtb	r2, r3
 80112bc:	4b0f      	ldr	r3, [pc, #60]	; (80112fc <TIM4_IRQHandler+0xec>)
 80112be:	701a      	strb	r2, [r3, #0]
			if (initCnt == 50)
 80112c0:	4b0e      	ldr	r3, [pc, #56]	; (80112fc <TIM4_IRQHandler+0xec>)
 80112c2:	781b      	ldrb	r3, [r3, #0]
 80112c4:	b2db      	uxtb	r3, r3
 80112c6:	2b32      	cmp	r3, #50	; 0x32
 80112c8:	d11d      	bne.n	8011306 <TIM4_IRQHandler+0xf6>
			{
				initCnt = 0;
 80112ca:	4b0c      	ldr	r3, [pc, #48]	; (80112fc <TIM4_IRQHandler+0xec>)
 80112cc:	2200      	movs	r2, #0
 80112ce:	701a      	strb	r2, [r3, #0]
				LED_Status ^= 1;
 80112d0:	4a09      	ldr	r2, [pc, #36]	; (80112f8 <TIM4_IRQHandler+0xe8>)
 80112d2:	4b09      	ldr	r3, [pc, #36]	; (80112f8 <TIM4_IRQHandler+0xe8>)
 80112d4:	681b      	ldr	r3, [r3, #0]
 80112d6:	f083 0301 	eor.w	r3, r3, #1
 80112da:	6013      	str	r3, [r2, #0]
 80112dc:	e013      	b.n	8011306 <TIM4_IRQHandler+0xf6>
 80112de:	bf00      	nop
 80112e0:	40000800 	.word	0x40000800
 80112e4:	200006e4 	.word	0x200006e4
 80112e8:	200006d2 	.word	0x200006d2
 80112ec:	20001155 	.word	0x20001155
 80112f0:	0801b4bc 	.word	0x0801b4bc
 80112f4:	20001128 	.word	0x20001128
 80112f8:	422101bc 	.word	0x422101bc
 80112fc:	200006c8 	.word	0x200006c8
//				HC595_Send_Byte(hc595Statu);
			}
		}
		else //初始化完常亮
		{
			LED_Status = 1;
 8011300:	4ba5      	ldr	r3, [pc, #660]	; (8011598 <TIM4_IRQHandler+0x388>)
 8011302:	2201      	movs	r2, #1
 8011304:	601a      	str	r2, [r3, #0]
			//LED_Status = 0;
		}
		//上电成功，并成功获取到心跳信息
		if (RegisterParams.allowHeart)
 8011306:	4ba5      	ldr	r3, [pc, #660]	; (801159c <TIM4_IRQHandler+0x38c>)
 8011308:	f893 3033 	ldrb.w	r3, [r3, #51]	; 0x33
 801130c:	2b00      	cmp	r3, #0
 801130e:	d030      	beq.n	8011372 <TIM4_IRQHandler+0x162>
		{
			heartCnt++;
 8011310:	4ba3      	ldr	r3, [pc, #652]	; (80115a0 <TIM4_IRQHandler+0x390>)
 8011312:	681b      	ldr	r3, [r3, #0]
 8011314:	3301      	adds	r3, #1
 8011316:	4aa2      	ldr	r2, [pc, #648]	; (80115a0 <TIM4_IRQHandler+0x390>)
 8011318:	6013      	str	r3, [r2, #0]
			if (heartCnt == RegisterParams.heartTime * 100)
 801131a:	4ba0      	ldr	r3, [pc, #640]	; (801159c <TIM4_IRQHandler+0x38c>)
 801131c:	f893 3031 	ldrb.w	r3, [r3, #49]	; 0x31
 8011320:	461a      	mov	r2, r3
 8011322:	2364      	movs	r3, #100	; 0x64
 8011324:	fb03 f302 	mul.w	r3, r3, r2
 8011328:	461a      	mov	r2, r3
 801132a:	4b9d      	ldr	r3, [pc, #628]	; (80115a0 <TIM4_IRQHandler+0x390>)
 801132c:	681b      	ldr	r3, [r3, #0]
 801132e:	429a      	cmp	r2, r3
 8011330:	d11f      	bne.n	8011372 <TIM4_IRQHandler+0x162>
			{
				heartCnt = 0;
 8011332:	4b9b      	ldr	r3, [pc, #620]	; (80115a0 <TIM4_IRQHandler+0x390>)
 8011334:	2200      	movs	r2, #0
 8011336:	601a      	str	r2, [r3, #0]
				common_heart();
 8011338:	f001 fa18 	bl	801276c <common_heart>
				statuHeartCnt++;
 801133c:	4b99      	ldr	r3, [pc, #612]	; (80115a4 <TIM4_IRQHandler+0x394>)
 801133e:	781b      	ldrb	r3, [r3, #0]
 8011340:	b2db      	uxtb	r3, r3
 8011342:	3301      	adds	r3, #1
 8011344:	b2da      	uxtb	r2, r3
 8011346:	4b97      	ldr	r3, [pc, #604]	; (80115a4 <TIM4_IRQHandler+0x394>)
 8011348:	701a      	strb	r2, [r3, #0]
				if (statuHeartCnt == RegisterParams.statuHeartTime)
 801134a:	4b94      	ldr	r3, [pc, #592]	; (801159c <TIM4_IRQHandler+0x38c>)
 801134c:	f893 2032 	ldrb.w	r2, [r3, #50]	; 0x32
 8011350:	4b94      	ldr	r3, [pc, #592]	; (80115a4 <TIM4_IRQHandler+0x394>)
 8011352:	781b      	ldrb	r3, [r3, #0]
 8011354:	b2db      	uxtb	r3, r3
 8011356:	429a      	cmp	r2, r3
 8011358:	d10b      	bne.n	8011372 <TIM4_IRQHandler+0x162>
				{
					statuHeartCnt = 0;
 801135a:	4b92      	ldr	r3, [pc, #584]	; (80115a4 <TIM4_IRQHandler+0x394>)
 801135c:	2200      	movs	r2, #0
 801135e:	701a      	strb	r2, [r3, #0]
					strcpy(F4G_Params.htCMD, "90");
 8011360:	4b91      	ldr	r3, [pc, #580]	; (80115a8 <TIM4_IRQHandler+0x398>)
 8011362:	4a92      	ldr	r2, [pc, #584]	; (80115ac <TIM4_IRQHandler+0x39c>)
 8011364:	8811      	ldrh	r1, [r2, #0]
 8011366:	7892      	ldrb	r2, [r2, #2]
 8011368:	8019      	strh	r1, [r3, #0]
 801136a:	709a      	strb	r2, [r3, #2]
					F4G_Params.STHeart = 1;
 801136c:	4b90      	ldr	r3, [pc, #576]	; (80115b0 <TIM4_IRQHandler+0x3a0>)
 801136e:	2201      	movs	r2, #1
 8011370:	701a      	strb	r2, [r3, #0]
				}
			}
		}

		if (allowTCSamePort)
 8011372:	4b90      	ldr	r3, [pc, #576]	; (80115b4 <TIM4_IRQHandler+0x3a4>)
 8011374:	781b      	ldrb	r3, [r3, #0]
 8011376:	b2db      	uxtb	r3, r3
 8011378:	2b00      	cmp	r3, #0
 801137a:	d018      	beq.n	80113ae <TIM4_IRQHandler+0x19e>
		{
			allowTCSamePortCnt++;
 801137c:	4b8e      	ldr	r3, [pc, #568]	; (80115b8 <TIM4_IRQHandler+0x3a8>)
 801137e:	881b      	ldrh	r3, [r3, #0]
 8011380:	b29b      	uxth	r3, r3
 8011382:	3301      	adds	r3, #1
 8011384:	b29a      	uxth	r2, r3
 8011386:	4b8c      	ldr	r3, [pc, #560]	; (80115b8 <TIM4_IRQHandler+0x3a8>)
 8011388:	801a      	strh	r2, [r3, #0]
			if (allowTCSamePortCnt == 300)
 801138a:	4b8b      	ldr	r3, [pc, #556]	; (80115b8 <TIM4_IRQHandler+0x3a8>)
 801138c:	881b      	ldrh	r3, [r3, #0]
 801138e:	b29b      	uxth	r3, r3
 8011390:	f5b3 7f96 	cmp.w	r3, #300	; 0x12c
 8011394:	d10b      	bne.n	80113ae <TIM4_IRQHandler+0x19e>
			{
				printf("allow TC.\r\n");
 8011396:	4889      	ldr	r0, [pc, #548]	; (80115bc <TIM4_IRQHandler+0x3ac>)
 8011398:	f005 f8f4 	bl	8016584 <puts>
				allowTCSamePortCnt = 0;
 801139c:	4b86      	ldr	r3, [pc, #536]	; (80115b8 <TIM4_IRQHandler+0x3a8>)
 801139e:	2200      	movs	r2, #0
 80113a0:	801a      	strh	r2, [r3, #0]
				allowTCSamePort = 0;
 80113a2:	4b84      	ldr	r3, [pc, #528]	; (80115b4 <TIM4_IRQHandler+0x3a4>)
 80113a4:	2200      	movs	r2, #0
 80113a6:	701a      	strb	r2, [r3, #0]
				curPort = 0xFF;
 80113a8:	4b85      	ldr	r3, [pc, #532]	; (80115c0 <TIM4_IRQHandler+0x3b0>)
 80113aa:	22ff      	movs	r2, #255	; 0xff
 80113ac:	701a      	strb	r2, [r3, #0]
			}
		}
		//快闪
		if (HC595_STATUS.fastBLINK[0])
 80113ae:	4b85      	ldr	r3, [pc, #532]	; (80115c4 <TIM4_IRQHandler+0x3b4>)
 80113b0:	7b9b      	ldrb	r3, [r3, #14]
 80113b2:	2b00      	cmp	r3, #0
 80113b4:	d00f      	beq.n	80113d6 <TIM4_IRQHandler+0x1c6>
		{
			HC595_STATUS.fastCnt[0]++;
 80113b6:	4b83      	ldr	r3, [pc, #524]	; (80115c4 <TIM4_IRQHandler+0x3b4>)
 80113b8:	7d1b      	ldrb	r3, [r3, #20]
 80113ba:	3301      	adds	r3, #1
 80113bc:	b2da      	uxtb	r2, r3
 80113be:	4b81      	ldr	r3, [pc, #516]	; (80115c4 <TIM4_IRQHandler+0x3b4>)
 80113c0:	751a      	strb	r2, [r3, #20]
			if (HC595_STATUS.fastCnt[0] == 20)
 80113c2:	4b80      	ldr	r3, [pc, #512]	; (80115c4 <TIM4_IRQHandler+0x3b4>)
 80113c4:	7d1b      	ldrb	r3, [r3, #20]
 80113c6:	2b14      	cmp	r3, #20
 80113c8:	d105      	bne.n	80113d6 <TIM4_IRQHandler+0x1c6>
			{
				HC595_STATUS.fastCnt[0] = 0;
 80113ca:	4b7e      	ldr	r3, [pc, #504]	; (80115c4 <TIM4_IRQHandler+0x3b4>)
 80113cc:	2200      	movs	r2, #0
 80113ce:	751a      	strb	r2, [r3, #20]
				ledBLINK(1);
 80113d0:	2001      	movs	r0, #1
 80113d2:	f7ff febb 	bl	801114c <ledBLINK>
			}
		}
		if (HC595_STATUS.fastBLINK[1])
 80113d6:	4b7b      	ldr	r3, [pc, #492]	; (80115c4 <TIM4_IRQHandler+0x3b4>)
 80113d8:	7bdb      	ldrb	r3, [r3, #15]
 80113da:	2b00      	cmp	r3, #0
 80113dc:	d00f      	beq.n	80113fe <TIM4_IRQHandler+0x1ee>
		{
			HC595_STATUS.fastCnt[1]++;
 80113de:	4b79      	ldr	r3, [pc, #484]	; (80115c4 <TIM4_IRQHandler+0x3b4>)
 80113e0:	7d5b      	ldrb	r3, [r3, #21]
 80113e2:	3301      	adds	r3, #1
 80113e4:	b2da      	uxtb	r2, r3
 80113e6:	4b77      	ldr	r3, [pc, #476]	; (80115c4 <TIM4_IRQHandler+0x3b4>)
 80113e8:	755a      	strb	r2, [r3, #21]
			if (HC595_STATUS.fastCnt[1] == 20)
 80113ea:	4b76      	ldr	r3, [pc, #472]	; (80115c4 <TIM4_IRQHandler+0x3b4>)
 80113ec:	7d5b      	ldrb	r3, [r3, #21]
 80113ee:	2b14      	cmp	r3, #20
 80113f0:	d105      	bne.n	80113fe <TIM4_IRQHandler+0x1ee>
			{
				HC595_STATUS.fastCnt[1] = 0;
 80113f2:	4b74      	ldr	r3, [pc, #464]	; (80115c4 <TIM4_IRQHandler+0x3b4>)
 80113f4:	2200      	movs	r2, #0
 80113f6:	755a      	strb	r2, [r3, #21]
				ledBLINK(2);
 80113f8:	2002      	movs	r0, #2
 80113fa:	f7ff fea7 	bl	801114c <ledBLINK>
			}
		}
		if (HC595_STATUS.fastBLINK[2])
 80113fe:	4b71      	ldr	r3, [pc, #452]	; (80115c4 <TIM4_IRQHandler+0x3b4>)
 8011400:	7c1b      	ldrb	r3, [r3, #16]
 8011402:	2b00      	cmp	r3, #0
 8011404:	d00f      	beq.n	8011426 <TIM4_IRQHandler+0x216>
		{
			HC595_STATUS.fastCnt[2]++;
 8011406:	4b6f      	ldr	r3, [pc, #444]	; (80115c4 <TIM4_IRQHandler+0x3b4>)
 8011408:	7d9b      	ldrb	r3, [r3, #22]
 801140a:	3301      	adds	r3, #1
 801140c:	b2da      	uxtb	r2, r3
 801140e:	4b6d      	ldr	r3, [pc, #436]	; (80115c4 <TIM4_IRQHandler+0x3b4>)
 8011410:	759a      	strb	r2, [r3, #22]
			if (HC595_STATUS.fastCnt[2] == 20)
 8011412:	4b6c      	ldr	r3, [pc, #432]	; (80115c4 <TIM4_IRQHandler+0x3b4>)
 8011414:	7d9b      	ldrb	r3, [r3, #22]
 8011416:	2b14      	cmp	r3, #20
 8011418:	d105      	bne.n	8011426 <TIM4_IRQHandler+0x216>
			{
				HC595_STATUS.fastCnt[2] = 0;
 801141a:	4b6a      	ldr	r3, [pc, #424]	; (80115c4 <TIM4_IRQHandler+0x3b4>)
 801141c:	2200      	movs	r2, #0
 801141e:	759a      	strb	r2, [r3, #22]
				ledBLINK(3);
 8011420:	2003      	movs	r0, #3
 8011422:	f7ff fe93 	bl	801114c <ledBLINK>
			}
		}
		if (HC595_STATUS.fastBLINK[3])
 8011426:	4b67      	ldr	r3, [pc, #412]	; (80115c4 <TIM4_IRQHandler+0x3b4>)
 8011428:	7c5b      	ldrb	r3, [r3, #17]
 801142a:	2b00      	cmp	r3, #0
 801142c:	d00f      	beq.n	801144e <TIM4_IRQHandler+0x23e>
		{
			HC595_STATUS.fastCnt[3]++;
 801142e:	4b65      	ldr	r3, [pc, #404]	; (80115c4 <TIM4_IRQHandler+0x3b4>)
 8011430:	7ddb      	ldrb	r3, [r3, #23]
 8011432:	3301      	adds	r3, #1
 8011434:	b2da      	uxtb	r2, r3
 8011436:	4b63      	ldr	r3, [pc, #396]	; (80115c4 <TIM4_IRQHandler+0x3b4>)
 8011438:	75da      	strb	r2, [r3, #23]
			if (HC595_STATUS.fastCnt[3] == 20)
 801143a:	4b62      	ldr	r3, [pc, #392]	; (80115c4 <TIM4_IRQHandler+0x3b4>)
 801143c:	7ddb      	ldrb	r3, [r3, #23]
 801143e:	2b14      	cmp	r3, #20
 8011440:	d105      	bne.n	801144e <TIM4_IRQHandler+0x23e>
			{
				HC595_STATUS.fastCnt[3] = 0;
 8011442:	4b60      	ldr	r3, [pc, #384]	; (80115c4 <TIM4_IRQHandler+0x3b4>)
 8011444:	2200      	movs	r2, #0
 8011446:	75da      	strb	r2, [r3, #23]
				ledBLINK(4);
 8011448:	2004      	movs	r0, #4
 801144a:	f7ff fe7f 	bl	801114c <ledBLINK>
			}
		}
		if (HC595_STATUS.fastBLINK[4])
 801144e:	4b5d      	ldr	r3, [pc, #372]	; (80115c4 <TIM4_IRQHandler+0x3b4>)
 8011450:	7c9b      	ldrb	r3, [r3, #18]
 8011452:	2b00      	cmp	r3, #0
 8011454:	d00f      	beq.n	8011476 <TIM4_IRQHandler+0x266>
		{
			HC595_STATUS.fastCnt[4]++;
 8011456:	4b5b      	ldr	r3, [pc, #364]	; (80115c4 <TIM4_IRQHandler+0x3b4>)
 8011458:	7e1b      	ldrb	r3, [r3, #24]
 801145a:	3301      	adds	r3, #1
 801145c:	b2da      	uxtb	r2, r3
 801145e:	4b59      	ldr	r3, [pc, #356]	; (80115c4 <TIM4_IRQHandler+0x3b4>)
 8011460:	761a      	strb	r2, [r3, #24]
			if (HC595_STATUS.fastCnt[4] == 20)
 8011462:	4b58      	ldr	r3, [pc, #352]	; (80115c4 <TIM4_IRQHandler+0x3b4>)
 8011464:	7e1b      	ldrb	r3, [r3, #24]
 8011466:	2b14      	cmp	r3, #20
 8011468:	d105      	bne.n	8011476 <TIM4_IRQHandler+0x266>
			{
				HC595_STATUS.fastCnt[4] = 0;
 801146a:	4b56      	ldr	r3, [pc, #344]	; (80115c4 <TIM4_IRQHandler+0x3b4>)
 801146c:	2200      	movs	r2, #0
 801146e:	761a      	strb	r2, [r3, #24]
				ledBLINK(5);
 8011470:	2005      	movs	r0, #5
 8011472:	f7ff fe6b 	bl	801114c <ledBLINK>
			}
		}
		if (HC595_STATUS.fastBLINK[5])
 8011476:	4b53      	ldr	r3, [pc, #332]	; (80115c4 <TIM4_IRQHandler+0x3b4>)
 8011478:	7cdb      	ldrb	r3, [r3, #19]
 801147a:	2b00      	cmp	r3, #0
 801147c:	d00f      	beq.n	801149e <TIM4_IRQHandler+0x28e>
		{
			HC595_STATUS.fastCnt[5]++;
 801147e:	4b51      	ldr	r3, [pc, #324]	; (80115c4 <TIM4_IRQHandler+0x3b4>)
 8011480:	7e5b      	ldrb	r3, [r3, #25]
 8011482:	3301      	adds	r3, #1
 8011484:	b2da      	uxtb	r2, r3
 8011486:	4b4f      	ldr	r3, [pc, #316]	; (80115c4 <TIM4_IRQHandler+0x3b4>)
 8011488:	765a      	strb	r2, [r3, #25]
			if (HC595_STATUS.fastCnt[5] == 20)
 801148a:	4b4e      	ldr	r3, [pc, #312]	; (80115c4 <TIM4_IRQHandler+0x3b4>)
 801148c:	7e5b      	ldrb	r3, [r3, #25]
 801148e:	2b14      	cmp	r3, #20
 8011490:	d105      	bne.n	801149e <TIM4_IRQHandler+0x28e>
			{
				HC595_STATUS.fastCnt[5] = 0;
 8011492:	4b4c      	ldr	r3, [pc, #304]	; (80115c4 <TIM4_IRQHandler+0x3b4>)
 8011494:	2200      	movs	r2, #0
 8011496:	765a      	strb	r2, [r3, #25]
				ledBLINK(6);
 8011498:	2006      	movs	r0, #6
 801149a:	f7ff fe57 	bl	801114c <ledBLINK>
			}
		}
		//慢闪
		if (HC595_STATUS.slowBLINK[0])
 801149e:	4b49      	ldr	r3, [pc, #292]	; (80115c4 <TIM4_IRQHandler+0x3b4>)
 80114a0:	789b      	ldrb	r3, [r3, #2]
 80114a2:	2b00      	cmp	r3, #0
 80114a4:	d00f      	beq.n	80114c6 <TIM4_IRQHandler+0x2b6>
		{
			HC595_STATUS.slowCnt[0]++;
 80114a6:	4b47      	ldr	r3, [pc, #284]	; (80115c4 <TIM4_IRQHandler+0x3b4>)
 80114a8:	7a1b      	ldrb	r3, [r3, #8]
 80114aa:	3301      	adds	r3, #1
 80114ac:	b2da      	uxtb	r2, r3
 80114ae:	4b45      	ldr	r3, [pc, #276]	; (80115c4 <TIM4_IRQHandler+0x3b4>)
 80114b0:	721a      	strb	r2, [r3, #8]
			if (HC595_STATUS.slowCnt[0] == 80)
 80114b2:	4b44      	ldr	r3, [pc, #272]	; (80115c4 <TIM4_IRQHandler+0x3b4>)
 80114b4:	7a1b      	ldrb	r3, [r3, #8]
 80114b6:	2b50      	cmp	r3, #80	; 0x50
 80114b8:	d105      	bne.n	80114c6 <TIM4_IRQHandler+0x2b6>
			{
				HC595_STATUS.slowCnt[0] = 0;
 80114ba:	4b42      	ldr	r3, [pc, #264]	; (80115c4 <TIM4_IRQHandler+0x3b4>)
 80114bc:	2200      	movs	r2, #0
 80114be:	721a      	strb	r2, [r3, #8]
				ledBLINK(1);
 80114c0:	2001      	movs	r0, #1
 80114c2:	f7ff fe43 	bl	801114c <ledBLINK>
			}
		}
		if (HC595_STATUS.slowBLINK[1])
 80114c6:	4b3f      	ldr	r3, [pc, #252]	; (80115c4 <TIM4_IRQHandler+0x3b4>)
 80114c8:	78db      	ldrb	r3, [r3, #3]
 80114ca:	2b00      	cmp	r3, #0
 80114cc:	d00f      	beq.n	80114ee <TIM4_IRQHandler+0x2de>
		{
			HC595_STATUS.slowCnt[1]++;
 80114ce:	4b3d      	ldr	r3, [pc, #244]	; (80115c4 <TIM4_IRQHandler+0x3b4>)
 80114d0:	7a5b      	ldrb	r3, [r3, #9]
 80114d2:	3301      	adds	r3, #1
 80114d4:	b2da      	uxtb	r2, r3
 80114d6:	4b3b      	ldr	r3, [pc, #236]	; (80115c4 <TIM4_IRQHandler+0x3b4>)
 80114d8:	725a      	strb	r2, [r3, #9]
			if (HC595_STATUS.slowCnt[1] == 80)
 80114da:	4b3a      	ldr	r3, [pc, #232]	; (80115c4 <TIM4_IRQHandler+0x3b4>)
 80114dc:	7a5b      	ldrb	r3, [r3, #9]
 80114de:	2b50      	cmp	r3, #80	; 0x50
 80114e0:	d105      	bne.n	80114ee <TIM4_IRQHandler+0x2de>
			{
				HC595_STATUS.slowCnt[1] = 0;
 80114e2:	4b38      	ldr	r3, [pc, #224]	; (80115c4 <TIM4_IRQHandler+0x3b4>)
 80114e4:	2200      	movs	r2, #0
 80114e6:	725a      	strb	r2, [r3, #9]
				ledBLINK(2);
 80114e8:	2002      	movs	r0, #2
 80114ea:	f7ff fe2f 	bl	801114c <ledBLINK>
			}
		}
		if (HC595_STATUS.slowBLINK[2])
 80114ee:	4b35      	ldr	r3, [pc, #212]	; (80115c4 <TIM4_IRQHandler+0x3b4>)
 80114f0:	791b      	ldrb	r3, [r3, #4]
 80114f2:	2b00      	cmp	r3, #0
 80114f4:	d00f      	beq.n	8011516 <TIM4_IRQHandler+0x306>
		{
			HC595_STATUS.slowCnt[2]++;
 80114f6:	4b33      	ldr	r3, [pc, #204]	; (80115c4 <TIM4_IRQHandler+0x3b4>)
 80114f8:	7a9b      	ldrb	r3, [r3, #10]
 80114fa:	3301      	adds	r3, #1
 80114fc:	b2da      	uxtb	r2, r3
 80114fe:	4b31      	ldr	r3, [pc, #196]	; (80115c4 <TIM4_IRQHandler+0x3b4>)
 8011500:	729a      	strb	r2, [r3, #10]
			if (HC595_STATUS.slowCnt[2] == 80)
 8011502:	4b30      	ldr	r3, [pc, #192]	; (80115c4 <TIM4_IRQHandler+0x3b4>)
 8011504:	7a9b      	ldrb	r3, [r3, #10]
 8011506:	2b50      	cmp	r3, #80	; 0x50
 8011508:	d105      	bne.n	8011516 <TIM4_IRQHandler+0x306>
			{
				HC595_STATUS.slowCnt[2] = 0;
 801150a:	4b2e      	ldr	r3, [pc, #184]	; (80115c4 <TIM4_IRQHandler+0x3b4>)
 801150c:	2200      	movs	r2, #0
 801150e:	729a      	strb	r2, [r3, #10]
				ledBLINK(3);
 8011510:	2003      	movs	r0, #3
 8011512:	f7ff fe1b 	bl	801114c <ledBLINK>
			}
		}
		if (HC595_STATUS.slowBLINK[3])
 8011516:	4b2b      	ldr	r3, [pc, #172]	; (80115c4 <TIM4_IRQHandler+0x3b4>)
 8011518:	795b      	ldrb	r3, [r3, #5]
 801151a:	2b00      	cmp	r3, #0
 801151c:	d00f      	beq.n	801153e <TIM4_IRQHandler+0x32e>
		{
			HC595_STATUS.slowCnt[3]++;
 801151e:	4b29      	ldr	r3, [pc, #164]	; (80115c4 <TIM4_IRQHandler+0x3b4>)
 8011520:	7adb      	ldrb	r3, [r3, #11]
 8011522:	3301      	adds	r3, #1
 8011524:	b2da      	uxtb	r2, r3
 8011526:	4b27      	ldr	r3, [pc, #156]	; (80115c4 <TIM4_IRQHandler+0x3b4>)
 8011528:	72da      	strb	r2, [r3, #11]
			if (HC595_STATUS.slowCnt[3] == 80)
 801152a:	4b26      	ldr	r3, [pc, #152]	; (80115c4 <TIM4_IRQHandler+0x3b4>)
 801152c:	7adb      	ldrb	r3, [r3, #11]
 801152e:	2b50      	cmp	r3, #80	; 0x50
 8011530:	d105      	bne.n	801153e <TIM4_IRQHandler+0x32e>
			{
				HC595_STATUS.slowCnt[3] = 0;
 8011532:	4b24      	ldr	r3, [pc, #144]	; (80115c4 <TIM4_IRQHandler+0x3b4>)
 8011534:	2200      	movs	r2, #0
 8011536:	72da      	strb	r2, [r3, #11]
				ledBLINK(4);
 8011538:	2004      	movs	r0, #4
 801153a:	f7ff fe07 	bl	801114c <ledBLINK>
			}
		}
		if (HC595_STATUS.slowBLINK[4])
 801153e:	4b21      	ldr	r3, [pc, #132]	; (80115c4 <TIM4_IRQHandler+0x3b4>)
 8011540:	799b      	ldrb	r3, [r3, #6]
 8011542:	2b00      	cmp	r3, #0
 8011544:	d00f      	beq.n	8011566 <TIM4_IRQHandler+0x356>
		{
			HC595_STATUS.slowCnt[4]++;
 8011546:	4b1f      	ldr	r3, [pc, #124]	; (80115c4 <TIM4_IRQHandler+0x3b4>)
 8011548:	7b1b      	ldrb	r3, [r3, #12]
 801154a:	3301      	adds	r3, #1
 801154c:	b2da      	uxtb	r2, r3
 801154e:	4b1d      	ldr	r3, [pc, #116]	; (80115c4 <TIM4_IRQHandler+0x3b4>)
 8011550:	731a      	strb	r2, [r3, #12]
			if (HC595_STATUS.slowCnt[4] == 80)
 8011552:	4b1c      	ldr	r3, [pc, #112]	; (80115c4 <TIM4_IRQHandler+0x3b4>)
 8011554:	7b1b      	ldrb	r3, [r3, #12]
 8011556:	2b50      	cmp	r3, #80	; 0x50
 8011558:	d105      	bne.n	8011566 <TIM4_IRQHandler+0x356>
			{
				HC595_STATUS.slowCnt[4] = 0;
 801155a:	4b1a      	ldr	r3, [pc, #104]	; (80115c4 <TIM4_IRQHandler+0x3b4>)
 801155c:	2200      	movs	r2, #0
 801155e:	731a      	strb	r2, [r3, #12]
				ledBLINK(5);
 8011560:	2005      	movs	r0, #5
 8011562:	f7ff fdf3 	bl	801114c <ledBLINK>
			}
		}
		if (HC595_STATUS.slowBLINK[5])
 8011566:	4b17      	ldr	r3, [pc, #92]	; (80115c4 <TIM4_IRQHandler+0x3b4>)
 8011568:	79db      	ldrb	r3, [r3, #7]
 801156a:	2b00      	cmp	r3, #0
 801156c:	d00f      	beq.n	801158e <TIM4_IRQHandler+0x37e>
		{
			HC595_STATUS.slowCnt[5]++;
 801156e:	4b15      	ldr	r3, [pc, #84]	; (80115c4 <TIM4_IRQHandler+0x3b4>)
 8011570:	7b5b      	ldrb	r3, [r3, #13]
 8011572:	3301      	adds	r3, #1
 8011574:	b2da      	uxtb	r2, r3
 8011576:	4b13      	ldr	r3, [pc, #76]	; (80115c4 <TIM4_IRQHandler+0x3b4>)
 8011578:	735a      	strb	r2, [r3, #13]
			if (HC595_STATUS.slowCnt[5] == 80)
 801157a:	4b12      	ldr	r3, [pc, #72]	; (80115c4 <TIM4_IRQHandler+0x3b4>)
 801157c:	7b5b      	ldrb	r3, [r3, #13]
 801157e:	2b50      	cmp	r3, #80	; 0x50
 8011580:	d105      	bne.n	801158e <TIM4_IRQHandler+0x37e>
			{
				HC595_STATUS.slowCnt[5] = 0;
 8011582:	4b10      	ldr	r3, [pc, #64]	; (80115c4 <TIM4_IRQHandler+0x3b4>)
 8011584:	2200      	movs	r2, #0
 8011586:	735a      	strb	r2, [r3, #13]
				ledBLINK(6);
 8011588:	2006      	movs	r0, #6
 801158a:	f7ff fddf 	bl	801114c <ledBLINK>
			}
		}
		checkCnt++;
 801158e:	4b0e      	ldr	r3, [pc, #56]	; (80115c8 <TIM4_IRQHandler+0x3b8>)
 8011590:	781b      	ldrb	r3, [r3, #0]
 8011592:	b2db      	uxtb	r3, r3
 8011594:	e01a      	b.n	80115cc <TIM4_IRQHandler+0x3bc>
 8011596:	bf00      	nop
 8011598:	422101bc 	.word	0x422101bc
 801159c:	20001a20 	.word	0x20001a20
 80115a0:	200006cc 	.word	0x200006cc
 80115a4:	200006d0 	.word	0x200006d0
 80115a8:	20001155 	.word	0x20001155
 80115ac:	0801b4c0 	.word	0x0801b4c0
 80115b0:	20001128 	.word	0x20001128
 80115b4:	200006c6 	.word	0x200006c6
 80115b8:	200006d6 	.word	0x200006d6
 80115bc:	0801b4c4 	.word	0x0801b4c4
 80115c0:	20000004 	.word	0x20000004
 80115c4:	200006ac 	.word	0x200006ac
 80115c8:	200006d4 	.word	0x200006d4
 80115cc:	3301      	adds	r3, #1
 80115ce:	b2da      	uxtb	r2, r3
 80115d0:	4b07      	ldr	r3, [pc, #28]	; (80115f0 <TIM4_IRQHandler+0x3e0>)
 80115d2:	701a      	strb	r2, [r3, #0]
		if (checkCnt == 2)
 80115d4:	4b06      	ldr	r3, [pc, #24]	; (80115f0 <TIM4_IRQHandler+0x3e0>)
 80115d6:	781b      	ldrb	r3, [r3, #0]
 80115d8:	b2db      	uxtb	r3, r3
 80115da:	2b02      	cmp	r3, #2
 80115dc:	d106      	bne.n	80115ec <TIM4_IRQHandler+0x3dc>
		{
			checkCnt = 0;
 80115de:	4b04      	ldr	r3, [pc, #16]	; (80115f0 <TIM4_IRQHandler+0x3e0>)
 80115e0:	2200      	movs	r2, #0
 80115e2:	701a      	strb	r2, [r3, #0]
			F4G_Params.checkPBst = 1;
 80115e4:	4b03      	ldr	r3, [pc, #12]	; (80115f4 <TIM4_IRQHandler+0x3e4>)
 80115e6:	2201      	movs	r2, #1
 80115e8:	f883 2031 	strb.w	r2, [r3, #49]	; 0x31
		}
	}
}
 80115ec:	bf00      	nop
 80115ee:	bd80      	pop	{r7, pc}
 80115f0:	200006d4 	.word	0x200006d4
 80115f4:	20001128 	.word	0x20001128

080115f8 <Init_Audio>:
 *      Author: loyer
 */
#include "audio.h"

void Init_Audio(void)
{
 80115f8:	b580      	push	{r7, lr}
 80115fa:	b082      	sub	sp, #8
 80115fc:	af00      	add	r7, sp, #0
	GPIO_InitTypeDef GPIO_InitStructure; //定义结构体变量
	RCC_APB2PeriphClockCmd(RCC_APB2Periph_GPIOA, ENABLE);
 80115fe:	2101      	movs	r1, #1
 8011600:	2004      	movs	r0, #4
 8011602:	f003 fa6b 	bl	8014adc <RCC_APB2PeriphClockCmd>

	GPIO_InitStructure.GPIO_Pin = GPIO_Pin_5 | GPIO_Pin_6 | GPIO_Pin_7;  //选择你要设置的IO口
 8011606:	23e0      	movs	r3, #224	; 0xe0
 8011608:	80bb      	strh	r3, [r7, #4]
	GPIO_InitStructure.GPIO_Mode = GPIO_Mode_Out_PP;	 //设置推挽输出模式
 801160a:	2310      	movs	r3, #16
 801160c:	71fb      	strb	r3, [r7, #7]
	GPIO_InitStructure.GPIO_Speed = GPIO_Speed_50MHz;	  //设置传输速率
 801160e:	2303      	movs	r3, #3
 8011610:	71bb      	strb	r3, [r7, #6]
	GPIO_Init(GPIOA, &GPIO_InitStructure); /* 初始化GPIO */
 8011612:	1d3b      	adds	r3, r7, #4
 8011614:	4619      	mov	r1, r3
 8011616:	4805      	ldr	r0, [pc, #20]	; (801162c <Init_Audio+0x34>)
 8011618:	f002 ff64 	bl	80144e4 <GPIO_Init>

	//初始化置低不触发
	GPIO_ResetBits(GPIOA, GPIO_Pin_5 | GPIO_Pin_6 | GPIO_Pin_7);
 801161c:	21e0      	movs	r1, #224	; 0xe0
 801161e:	4803      	ldr	r0, [pc, #12]	; (801162c <Init_Audio+0x34>)
 8011620:	f003 f843 	bl	80146aa <GPIO_ResetBits>

}
 8011624:	bf00      	nop
 8011626:	3708      	adds	r7, #8
 8011628:	46bd      	mov	sp, r7
 801162a:	bd80      	pop	{r7, pc}
 801162c:	40010800 	.word	0x40010800

08011630 <play_audio>:
/**
 * 播放语音模块里的第几段
 * @aud 第几段语音
 */
void play_audio(u8 aud)
{
 8011630:	b580      	push	{r7, lr}
 8011632:	b084      	sub	sp, #16
 8011634:	af00      	add	r7, sp, #0
 8011636:	4603      	mov	r3, r0
 8011638:	71fb      	strb	r3, [r7, #7]
	u8 i;
	TRIG2_H;
 801163a:	4b11      	ldr	r3, [pc, #68]	; (8011680 <play_audio+0x50>)
 801163c:	2201      	movs	r2, #1
 801163e:	601a      	str	r2, [r3, #0]
	delay_us(100);
 8011640:	2064      	movs	r0, #100	; 0x64
 8011642:	f003 ff6b 	bl	801551c <delay_us>
	TRIG2_L;
 8011646:	4b0e      	ldr	r3, [pc, #56]	; (8011680 <play_audio+0x50>)
 8011648:	2200      	movs	r2, #0
 801164a:	601a      	str	r2, [r3, #0]
	delay_us(100);
 801164c:	2064      	movs	r0, #100	; 0x64
 801164e:	f003 ff65 	bl	801551c <delay_us>
	for(i = 0; i < aud; i++)
 8011652:	2300      	movs	r3, #0
 8011654:	73fb      	strb	r3, [r7, #15]
 8011656:	e00b      	b.n	8011670 <play_audio+0x40>
	{
		TRIG1_H;
 8011658:	4b0a      	ldr	r3, [pc, #40]	; (8011684 <play_audio+0x54>)
 801165a:	2201      	movs	r2, #1
 801165c:	601a      	str	r2, [r3, #0]
		delay_us(100);
 801165e:	2064      	movs	r0, #100	; 0x64
 8011660:	f003 ff5c 	bl	801551c <delay_us>
		TRIG1_L;
 8011664:	4b07      	ldr	r3, [pc, #28]	; (8011684 <play_audio+0x54>)
 8011666:	2200      	movs	r2, #0
 8011668:	601a      	str	r2, [r3, #0]
	for(i = 0; i < aud; i++)
 801166a:	7bfb      	ldrb	r3, [r7, #15]
 801166c:	3301      	adds	r3, #1
 801166e:	73fb      	strb	r3, [r7, #15]
 8011670:	7bfa      	ldrb	r2, [r7, #15]
 8011672:	79fb      	ldrb	r3, [r7, #7]
 8011674:	429a      	cmp	r2, r3
 8011676:	d3ef      	bcc.n	8011658 <play_audio+0x28>
	}
}
 8011678:	bf00      	nop
 801167a:	3710      	adds	r7, #16
 801167c:	46bd      	mov	sp, r7
 801167e:	bd80      	pop	{r7, pc}
 8011680:	42210198 	.word	0x42210198
 8011684:	42210194 	.word	0x42210194

08011688 <STMFLASH_ReadHalfWord>:

//读取指定地址的半字(16位数据)
//faddr:读地址(此地址必须为2的倍数!!)
//返回值:对应数据.
u16 STMFLASH_ReadHalfWord(u32 faddr)
{
 8011688:	b480      	push	{r7}
 801168a:	b083      	sub	sp, #12
 801168c:	af00      	add	r7, sp, #0
 801168e:	6078      	str	r0, [r7, #4]
	return *(vu16*) faddr;
 8011690:	687b      	ldr	r3, [r7, #4]
 8011692:	881b      	ldrh	r3, [r3, #0]
 8011694:	b29b      	uxth	r3, r3
}
 8011696:	4618      	mov	r0, r3
 8011698:	370c      	adds	r7, #12
 801169a:	46bd      	mov	sp, r7
 801169c:	bc80      	pop	{r7}
 801169e:	4770      	bx	lr

080116a0 <STMFLASH_Write_NoCheck>:
//不检查的写入
//WriteAddr:起始地址
//pBuffer:数据指针
//NumToWrite:半字(16位)数
void STMFLASH_Write_NoCheck(u32 WriteAddr, u16 *pBuffer, u16 NumToWrite)
{
 80116a0:	b580      	push	{r7, lr}
 80116a2:	b086      	sub	sp, #24
 80116a4:	af00      	add	r7, sp, #0
 80116a6:	60f8      	str	r0, [r7, #12]
 80116a8:	60b9      	str	r1, [r7, #8]
 80116aa:	4613      	mov	r3, r2
 80116ac:	80fb      	strh	r3, [r7, #6]
	u16 i;
	for (i = 0; i < NumToWrite; i++)
 80116ae:	2300      	movs	r3, #0
 80116b0:	82fb      	strh	r3, [r7, #22]
 80116b2:	e00e      	b.n	80116d2 <STMFLASH_Write_NoCheck+0x32>
	{
		FLASH_ProgramHalfWord(WriteAddr, pBuffer[i]);
 80116b4:	8afb      	ldrh	r3, [r7, #22]
 80116b6:	005b      	lsls	r3, r3, #1
 80116b8:	68ba      	ldr	r2, [r7, #8]
 80116ba:	4413      	add	r3, r2
 80116bc:	881b      	ldrh	r3, [r3, #0]
 80116be:	4619      	mov	r1, r3
 80116c0:	68f8      	ldr	r0, [r7, #12]
 80116c2:	f002 fe95 	bl	80143f0 <FLASH_ProgramHalfWord>
		WriteAddr += 2; //地址增加2.
 80116c6:	68fb      	ldr	r3, [r7, #12]
 80116c8:	3302      	adds	r3, #2
 80116ca:	60fb      	str	r3, [r7, #12]
	for (i = 0; i < NumToWrite; i++)
 80116cc:	8afb      	ldrh	r3, [r7, #22]
 80116ce:	3301      	adds	r3, #1
 80116d0:	82fb      	strh	r3, [r7, #22]
 80116d2:	8afa      	ldrh	r2, [r7, #22]
 80116d4:	88fb      	ldrh	r3, [r7, #6]
 80116d6:	429a      	cmp	r2, r3
 80116d8:	d3ec      	bcc.n	80116b4 <STMFLASH_Write_NoCheck+0x14>
	}
}
 80116da:	bf00      	nop
 80116dc:	3718      	adds	r7, #24
 80116de:	46bd      	mov	sp, r7
 80116e0:	bd80      	pop	{r7, pc}
	...

080116e4 <STMFLASH_Write>:
#endif

u16 STMFLASH_BUF[STM_SECTOR_SIZE / 2]; //最多是2K字节

void STMFLASH_Write(u32 WriteAddr, u16 *pBuffer, u16 NumToWrite)
{
 80116e4:	b580      	push	{r7, lr}
 80116e6:	b088      	sub	sp, #32
 80116e8:	af00      	add	r7, sp, #0
 80116ea:	60f8      	str	r0, [r7, #12]
 80116ec:	60b9      	str	r1, [r7, #8]
 80116ee:	4613      	mov	r3, r2
 80116f0:	80fb      	strh	r3, [r7, #6]
	u16 secoff;	   //扇区内偏移地址(16位字计算)
	u16 secremain; //扇区内剩余地址(16位字计算)
	u16 i;
	u32 offaddr;   //去掉0X08000000后的地址

	if (WriteAddr < STM32_FLASH_BASE
 80116f2:	68fb      	ldr	r3, [r7, #12]
 80116f4:	f1b3 6f00 	cmp.w	r3, #134217728	; 0x8000000
 80116f8:	f0c0 8093 	bcc.w	8011822 <STMFLASH_Write+0x13e>
			|| (WriteAddr >= (STM32_FLASH_BASE + 1024 * STM32_FLASH_SIZE)))
 80116fc:	68fb      	ldr	r3, [r7, #12]
 80116fe:	4a4b      	ldr	r2, [pc, #300]	; (801182c <STMFLASH_Write+0x148>)
 8011700:	4293      	cmp	r3, r2
 8011702:	f200 808e 	bhi.w	8011822 <STMFLASH_Write+0x13e>
		return;   //非法地址
	FLASH_Unlock();						//解锁
 8011706:	f002 fe21 	bl	801434c <FLASH_Unlock>
	offaddr = WriteAddr - STM32_FLASH_BASE;		//实际偏移地址.
 801170a:	68fb      	ldr	r3, [r7, #12]
 801170c:	f103 4378 	add.w	r3, r3, #4160749568	; 0xf8000000
 8011710:	613b      	str	r3, [r7, #16]
	secpos = offaddr / STM_SECTOR_SIZE;			//扇区地址  0~127 for STM32F103RBT6
 8011712:	693b      	ldr	r3, [r7, #16]
 8011714:	0adb      	lsrs	r3, r3, #11
 8011716:	61fb      	str	r3, [r7, #28]
	secoff = (offaddr % STM_SECTOR_SIZE) / 2;		//在扇区内的偏移(2个字节为基本单位.)
 8011718:	693b      	ldr	r3, [r7, #16]
 801171a:	f3c3 030a 	ubfx	r3, r3, #0, #11
 801171e:	085b      	lsrs	r3, r3, #1
 8011720:	837b      	strh	r3, [r7, #26]
	secremain = STM_SECTOR_SIZE / 2 - secoff;		//扇区剩余空间大小
 8011722:	8b7b      	ldrh	r3, [r7, #26]
 8011724:	f5c3 6380 	rsb	r3, r3, #1024	; 0x400
 8011728:	833b      	strh	r3, [r7, #24]
	if (NumToWrite <= secremain)
 801172a:	88fa      	ldrh	r2, [r7, #6]
 801172c:	8b3b      	ldrh	r3, [r7, #24]
 801172e:	429a      	cmp	r2, r3
 8011730:	d801      	bhi.n	8011736 <STMFLASH_Write+0x52>
		secremain = NumToWrite;		//不大于该扇区范围
 8011732:	88fb      	ldrh	r3, [r7, #6]
 8011734:	833b      	strh	r3, [r7, #24]
	while (1)
	{
		STMFLASH_Read(secpos * STM_SECTOR_SIZE + STM32_FLASH_BASE, STMFLASH_BUF,
 8011736:	69fb      	ldr	r3, [r7, #28]
 8011738:	f503 3380 	add.w	r3, r3, #65536	; 0x10000
 801173c:	02db      	lsls	r3, r3, #11
 801173e:	f44f 6280 	mov.w	r2, #1024	; 0x400
 8011742:	493b      	ldr	r1, [pc, #236]	; (8011830 <STMFLASH_Write+0x14c>)
 8011744:	4618      	mov	r0, r3
 8011746:	f000 f875 	bl	8011834 <STMFLASH_Read>
		STM_SECTOR_SIZE / 2);		//读出整个扇区的内容
		for (i = 0; i < secremain; i++)		//校验数据
 801174a:	2300      	movs	r3, #0
 801174c:	82fb      	strh	r3, [r7, #22]
 801174e:	e00c      	b.n	801176a <STMFLASH_Write+0x86>
		{
			if (STMFLASH_BUF[secoff + i] != 0XFFFF)
 8011750:	8b7a      	ldrh	r2, [r7, #26]
 8011752:	8afb      	ldrh	r3, [r7, #22]
 8011754:	4413      	add	r3, r2
 8011756:	4a36      	ldr	r2, [pc, #216]	; (8011830 <STMFLASH_Write+0x14c>)
 8011758:	f832 3013 	ldrh.w	r3, [r2, r3, lsl #1]
 801175c:	f64f 72ff 	movw	r2, #65535	; 0xffff
 8011760:	4293      	cmp	r3, r2
 8011762:	d107      	bne.n	8011774 <STMFLASH_Write+0x90>
		for (i = 0; i < secremain; i++)		//校验数据
 8011764:	8afb      	ldrh	r3, [r7, #22]
 8011766:	3301      	adds	r3, #1
 8011768:	82fb      	strh	r3, [r7, #22]
 801176a:	8afa      	ldrh	r2, [r7, #22]
 801176c:	8b3b      	ldrh	r3, [r7, #24]
 801176e:	429a      	cmp	r2, r3
 8011770:	d3ee      	bcc.n	8011750 <STMFLASH_Write+0x6c>
 8011772:	e000      	b.n	8011776 <STMFLASH_Write+0x92>
				break;		//需要擦除
 8011774:	bf00      	nop
		}
		if (i < secremain)		//需要擦除
 8011776:	8afa      	ldrh	r2, [r7, #22]
 8011778:	8b3b      	ldrh	r3, [r7, #24]
 801177a:	429a      	cmp	r2, r3
 801177c:	d226      	bcs.n	80117cc <STMFLASH_Write+0xe8>
		{
			FLASH_ErasePage(secpos * STM_SECTOR_SIZE + STM32_FLASH_BASE);//擦除这个扇区
 801177e:	69fb      	ldr	r3, [r7, #28]
 8011780:	f503 3380 	add.w	r3, r3, #65536	; 0x10000
 8011784:	02db      	lsls	r3, r3, #11
 8011786:	4618      	mov	r0, r3
 8011788:	f002 fe00 	bl	801438c <FLASH_ErasePage>
			for (i = 0; i < secremain; i++)		//复制
 801178c:	2300      	movs	r3, #0
 801178e:	82fb      	strh	r3, [r7, #22]
 8011790:	e00d      	b.n	80117ae <STMFLASH_Write+0xca>
			{
				STMFLASH_BUF[i + secoff] = pBuffer[i];
 8011792:	8afa      	ldrh	r2, [r7, #22]
 8011794:	8b7b      	ldrh	r3, [r7, #26]
 8011796:	4413      	add	r3, r2
 8011798:	8afa      	ldrh	r2, [r7, #22]
 801179a:	0052      	lsls	r2, r2, #1
 801179c:	68b9      	ldr	r1, [r7, #8]
 801179e:	440a      	add	r2, r1
 80117a0:	8811      	ldrh	r1, [r2, #0]
 80117a2:	4a23      	ldr	r2, [pc, #140]	; (8011830 <STMFLASH_Write+0x14c>)
 80117a4:	f822 1013 	strh.w	r1, [r2, r3, lsl #1]
			for (i = 0; i < secremain; i++)		//复制
 80117a8:	8afb      	ldrh	r3, [r7, #22]
 80117aa:	3301      	adds	r3, #1
 80117ac:	82fb      	strh	r3, [r7, #22]
 80117ae:	8afa      	ldrh	r2, [r7, #22]
 80117b0:	8b3b      	ldrh	r3, [r7, #24]
 80117b2:	429a      	cmp	r2, r3
 80117b4:	d3ed      	bcc.n	8011792 <STMFLASH_Write+0xae>
			}
			STMFLASH_Write_NoCheck(secpos * STM_SECTOR_SIZE + STM32_FLASH_BASE,
 80117b6:	69fb      	ldr	r3, [r7, #28]
 80117b8:	f503 3380 	add.w	r3, r3, #65536	; 0x10000
 80117bc:	02db      	lsls	r3, r3, #11
 80117be:	f44f 6280 	mov.w	r2, #1024	; 0x400
 80117c2:	491b      	ldr	r1, [pc, #108]	; (8011830 <STMFLASH_Write+0x14c>)
 80117c4:	4618      	mov	r0, r3
 80117c6:	f7ff ff6b 	bl	80116a0 <STMFLASH_Write_NoCheck>
 80117ca:	e005      	b.n	80117d8 <STMFLASH_Write+0xf4>
					STMFLASH_BUF, STM_SECTOR_SIZE / 2);		//写入整个扇区
		}
		else
			STMFLASH_Write_NoCheck(WriteAddr, pBuffer, secremain);//写已经擦除了的,直接写入扇区剩余区间.
 80117cc:	8b3b      	ldrh	r3, [r7, #24]
 80117ce:	461a      	mov	r2, r3
 80117d0:	68b9      	ldr	r1, [r7, #8]
 80117d2:	68f8      	ldr	r0, [r7, #12]
 80117d4:	f7ff ff64 	bl	80116a0 <STMFLASH_Write_NoCheck>
		if (NumToWrite == secremain)
 80117d8:	88fa      	ldrh	r2, [r7, #6]
 80117da:	8b3b      	ldrh	r3, [r7, #24]
 80117dc:	429a      	cmp	r2, r3
 80117de:	d01c      	beq.n	801181a <STMFLASH_Write+0x136>
			break;		//写入结束了
		else		//写入未结束
		{
			secpos++;				//扇区地址增1
 80117e0:	69fb      	ldr	r3, [r7, #28]
 80117e2:	3301      	adds	r3, #1
 80117e4:	61fb      	str	r3, [r7, #28]
			secoff = 0;				//偏移位置为0
 80117e6:	2300      	movs	r3, #0
 80117e8:	837b      	strh	r3, [r7, #26]
			pBuffer += secremain;  	//指针偏移
 80117ea:	8b3b      	ldrh	r3, [r7, #24]
 80117ec:	005b      	lsls	r3, r3, #1
 80117ee:	68ba      	ldr	r2, [r7, #8]
 80117f0:	4413      	add	r3, r2
 80117f2:	60bb      	str	r3, [r7, #8]
			WriteAddr += secremain;	//写地址偏移
 80117f4:	8b3b      	ldrh	r3, [r7, #24]
 80117f6:	68fa      	ldr	r2, [r7, #12]
 80117f8:	4413      	add	r3, r2
 80117fa:	60fb      	str	r3, [r7, #12]
			NumToWrite -= secremain;	//字节(16位)数递减
 80117fc:	88fa      	ldrh	r2, [r7, #6]
 80117fe:	8b3b      	ldrh	r3, [r7, #24]
 8011800:	1ad3      	subs	r3, r2, r3
 8011802:	80fb      	strh	r3, [r7, #6]
			if (NumToWrite > (STM_SECTOR_SIZE / 2))
 8011804:	88fb      	ldrh	r3, [r7, #6]
 8011806:	f5b3 6f80 	cmp.w	r3, #1024	; 0x400
 801180a:	d903      	bls.n	8011814 <STMFLASH_Write+0x130>
				secremain = STM_SECTOR_SIZE / 2;	//下一个扇区还是写不完
 801180c:	f44f 6380 	mov.w	r3, #1024	; 0x400
 8011810:	833b      	strh	r3, [r7, #24]
 8011812:	e790      	b.n	8011736 <STMFLASH_Write+0x52>
			else
				secremain = NumToWrite;	//下一个扇区可以写完了
 8011814:	88fb      	ldrh	r3, [r7, #6]
 8011816:	833b      	strh	r3, [r7, #24]
		STMFLASH_Read(secpos * STM_SECTOR_SIZE + STM32_FLASH_BASE, STMFLASH_BUF,
 8011818:	e78d      	b.n	8011736 <STMFLASH_Write+0x52>
			break;		//写入结束了
 801181a:	bf00      	nop
		}
	};
	FLASH_Lock();	//上锁
 801181c:	f002 fda8 	bl	8014370 <FLASH_Lock>
 8011820:	e000      	b.n	8011824 <STMFLASH_Write+0x140>
		return;   //非法地址
 8011822:	bf00      	nop
}
 8011824:	3720      	adds	r7, #32
 8011826:	46bd      	mov	sp, r7
 8011828:	bd80      	pop	{r7, pc}
 801182a:	bf00      	nop
 801182c:	0803ffff 	.word	0x0803ffff
 8011830:	20001aac 	.word	0x20001aac

08011834 <STMFLASH_Read>:
//从指定地址开始读出指定长度的数据
//ReadAddr:起始地址
//pBuffer:数据指针
//NumToWrite:半字(16位)数
void STMFLASH_Read(u32 ReadAddr, u16 *pBuffer, u16 NumToRead)
{
 8011834:	b590      	push	{r4, r7, lr}
 8011836:	b087      	sub	sp, #28
 8011838:	af00      	add	r7, sp, #0
 801183a:	60f8      	str	r0, [r7, #12]
 801183c:	60b9      	str	r1, [r7, #8]
 801183e:	4613      	mov	r3, r2
 8011840:	80fb      	strh	r3, [r7, #6]
	u16 i;
	for (i = 0; i < NumToRead; i++)
 8011842:	2300      	movs	r3, #0
 8011844:	82fb      	strh	r3, [r7, #22]
 8011846:	e00e      	b.n	8011866 <STMFLASH_Read+0x32>
	{
		pBuffer[i] = STMFLASH_ReadHalfWord(ReadAddr);	//读取2个字节.
 8011848:	8afb      	ldrh	r3, [r7, #22]
 801184a:	005b      	lsls	r3, r3, #1
 801184c:	68ba      	ldr	r2, [r7, #8]
 801184e:	18d4      	adds	r4, r2, r3
 8011850:	68f8      	ldr	r0, [r7, #12]
 8011852:	f7ff ff19 	bl	8011688 <STMFLASH_ReadHalfWord>
 8011856:	4603      	mov	r3, r0
 8011858:	8023      	strh	r3, [r4, #0]
		ReadAddr += 2;	//偏移2个字节.
 801185a:	68fb      	ldr	r3, [r7, #12]
 801185c:	3302      	adds	r3, #2
 801185e:	60fb      	str	r3, [r7, #12]
	for (i = 0; i < NumToRead; i++)
 8011860:	8afb      	ldrh	r3, [r7, #22]
 8011862:	3301      	adds	r3, #1
 8011864:	82fb      	strh	r3, [r7, #22]
 8011866:	8afa      	ldrh	r2, [r7, #22]
 8011868:	88fb      	ldrh	r3, [r7, #6]
 801186a:	429a      	cmp	r2, r3
 801186c:	d3ec      	bcc.n	8011848 <STMFLASH_Read+0x14>
	}
}
 801186e:	bf00      	nop
 8011870:	371c      	adds	r7, #28
 8011872:	46bd      	mov	sp, r7
 8011874:	bd90      	pop	{r4, r7, pc}
	...

08011878 <ReadDeviceID>:
void WriteDeviceID(void)
{
	STMFLASH_Write(EEPROM_ADDR, (u16 *) WDeviceID, 8);
}
void ReadDeviceID(void)
{
 8011878:	b580      	push	{r7, lr}
 801187a:	af00      	add	r7, sp, #0
	STMFLASH_Read(EEPROM_ADDR, (u16 *) RDeviceID, 8);
 801187c:	2208      	movs	r2, #8
 801187e:	4903      	ldr	r1, [pc, #12]	; (801188c <ReadDeviceID+0x14>)
 8011880:	4803      	ldr	r0, [pc, #12]	; (8011890 <ReadDeviceID+0x18>)
 8011882:	f7ff ffd7 	bl	8011834 <STMFLASH_Read>
}
 8011886:	bf00      	nop
 8011888:	bd80      	pop	{r7, pc}
 801188a:	bf00      	nop
 801188c:	200022c0 	.word	0x200022c0
 8011890:	0803f804 	.word	0x0803f804

08011894 <ReadVersion>:
{
	STMFLASH_Write(VERSION_ADDR, (u16 *) WVersion, 20);
}

void ReadVersion(void)
{
 8011894:	b580      	push	{r7, lr}
 8011896:	af00      	add	r7, sp, #0
	STMFLASH_Read(VERSION_ADDR, (u16 *) RVersion, 20);
 8011898:	2214      	movs	r2, #20
 801189a:	4903      	ldr	r1, [pc, #12]	; (80118a8 <ReadVersion+0x14>)
 801189c:	4803      	ldr	r0, [pc, #12]	; (80118ac <ReadVersion+0x18>)
 801189e:	f7ff ffc9 	bl	8011834 <STMFLASH_Read>
}
 80118a2:	bf00      	nop
 80118a4:	bd80      	pop	{r7, pc}
 80118a6:	bf00      	nop
 80118a8:	200022ac 	.word	0x200022ac
 80118ac:	0803f820 	.word	0x0803f820

080118b0 <ReadAPPServer>:
{
	STMFLASH_Write(APP_SERVER_ADDR, (u16 *) server, 100);
}

void ReadAPPServer(void)
{
 80118b0:	b580      	push	{r7, lr}
 80118b2:	af00      	add	r7, sp, #0
	STMFLASH_Read(APP_SERVER_ADDR, (u16 *) APPServer, 100);
 80118b4:	2264      	movs	r2, #100	; 0x64
 80118b6:	4903      	ldr	r1, [pc, #12]	; (80118c4 <ReadAPPServer+0x14>)
 80118b8:	4803      	ldr	r0, [pc, #12]	; (80118c8 <ReadAPPServer+0x18>)
 80118ba:	f7ff ffbb 	bl	8011834 <STMFLASH_Read>
}
 80118be:	bf00      	nop
 80118c0:	bd80      	pop	{r7, pc}
 80118c2:	bf00      	nop
 80118c4:	200022c8 	.word	0x200022c8
 80118c8:	0803f840 	.word	0x0803f840

080118cc <WriteIgnoreLock>:

void WriteIgnoreLock(u8 inx, u8 sta)
{
 80118cc:	b580      	push	{r7, lr}
 80118ce:	b082      	sub	sp, #8
 80118d0:	af00      	add	r7, sp, #0
 80118d2:	4603      	mov	r3, r0
 80118d4:	460a      	mov	r2, r1
 80118d6:	71fb      	strb	r3, [r7, #7]
 80118d8:	4613      	mov	r3, r2
 80118da:	71bb      	strb	r3, [r7, #6]
	 IgnoreLock[inx] = sta;
 80118dc:	79fb      	ldrb	r3, [r7, #7]
 80118de:	4906      	ldr	r1, [pc, #24]	; (80118f8 <WriteIgnoreLock+0x2c>)
 80118e0:	79ba      	ldrb	r2, [r7, #6]
 80118e2:	54ca      	strb	r2, [r1, r3]
	 STMFLASH_Write(IGNORE_LOCK_ADDR, (u16 *) IgnoreLock, 6);
 80118e4:	2206      	movs	r2, #6
 80118e6:	4904      	ldr	r1, [pc, #16]	; (80118f8 <WriteIgnoreLock+0x2c>)
 80118e8:	4804      	ldr	r0, [pc, #16]	; (80118fc <WriteIgnoreLock+0x30>)
 80118ea:	f7ff fefb 	bl	80116e4 <STMFLASH_Write>
}
 80118ee:	bf00      	nop
 80118f0:	3708      	adds	r7, #8
 80118f2:	46bd      	mov	sp, r7
 80118f4:	bd80      	pop	{r7, pc}
 80118f6:	bf00      	nop
 80118f8:	200006dc 	.word	0x200006dc
 80118fc:	0803ff00 	.word	0x0803ff00

08011900 <ReadIgnoreLock>:

u8 ReadIgnoreLock(u8 inx)
{
 8011900:	b580      	push	{r7, lr}
 8011902:	b082      	sub	sp, #8
 8011904:	af00      	add	r7, sp, #0
 8011906:	4603      	mov	r3, r0
 8011908:	71fb      	strb	r3, [r7, #7]
	STMFLASH_Read(IGNORE_LOCK_ADDR, (u16 *) IgnoreLock, 6);
 801190a:	2206      	movs	r2, #6
 801190c:	4905      	ldr	r1, [pc, #20]	; (8011924 <ReadIgnoreLock+0x24>)
 801190e:	4806      	ldr	r0, [pc, #24]	; (8011928 <ReadIgnoreLock+0x28>)
 8011910:	f7ff ff90 	bl	8011834 <STMFLASH_Read>
	return IgnoreLock[inx];
 8011914:	79fb      	ldrb	r3, [r7, #7]
 8011916:	4a03      	ldr	r2, [pc, #12]	; (8011924 <ReadIgnoreLock+0x24>)
 8011918:	5cd3      	ldrb	r3, [r2, r3]
}
 801191a:	4618      	mov	r0, r3
 801191c:	3708      	adds	r7, #8
 801191e:	46bd      	mov	sp, r7
 8011920:	bd80      	pop	{r7, pc}
 8011922:	bf00      	nop
 8011924:	200006dc 	.word	0x200006dc
 8011928:	0803ff00 	.word	0x0803ff00

0801192c <Init_led>:
 *      Author: loyer
 */
#include "led.h"

void Init_led(void)
{
 801192c:	b580      	push	{r7, lr}
 801192e:	b082      	sub	sp, #8
 8011930:	af00      	add	r7, sp, #0
	GPIO_InitTypeDef GPIO_InitStructure; //定义结构体变量

	RCC_APB2PeriphClockCmd(RCC_APB2Periph_GPIOA, ENABLE);
 8011932:	2101      	movs	r1, #1
 8011934:	2004      	movs	r0, #4
 8011936:	f003 f8d1 	bl	8014adc <RCC_APB2PeriphClockCmd>

	GPIO_InitStructure.GPIO_Pin = GPIO_Pin_15;  //选择你要设置的IO口
 801193a:	f44f 4300 	mov.w	r3, #32768	; 0x8000
 801193e:	80bb      	strh	r3, [r7, #4]
	GPIO_InitStructure.GPIO_Mode = GPIO_Mode_Out_PP;	 //设置推挽输出模式
 8011940:	2310      	movs	r3, #16
 8011942:	71fb      	strb	r3, [r7, #7]
	GPIO_InitStructure.GPIO_Speed = GPIO_Speed_50MHz;	  //设置传输速率
 8011944:	2303      	movs	r3, #3
 8011946:	71bb      	strb	r3, [r7, #6]
	GPIO_Init(GPIOA, &GPIO_InitStructure); /* 初始化GPIO */
 8011948:	1d3b      	adds	r3, r7, #4
 801194a:	4619      	mov	r1, r3
 801194c:	4809      	ldr	r0, [pc, #36]	; (8011974 <Init_led+0x48>)
 801194e:	f002 fdc9 	bl	80144e4 <GPIO_Init>

	RCC_APB2PeriphClockCmd(RCC_APB2Periph_AFIO, ENABLE);
 8011952:	2101      	movs	r1, #1
 8011954:	2001      	movs	r0, #1
 8011956:	f003 f8c1 	bl	8014adc <RCC_APB2PeriphClockCmd>
	//关闭JTAG，保留SWD，释放PB3 PB4 PA15
	GPIO_PinRemapConfig(GPIO_Remap_SWJ_JTAGDisable, ENABLE);
 801195a:	2101      	movs	r1, #1
 801195c:	4806      	ldr	r0, [pc, #24]	; (8011978 <Init_led+0x4c>)
 801195e:	f002 feb3 	bl	80146c8 <GPIO_PinRemapConfig>

	GPIO_ResetBits(GPIOA, GPIO_Pin_15);
 8011962:	f44f 4100 	mov.w	r1, #32768	; 0x8000
 8011966:	4803      	ldr	r0, [pc, #12]	; (8011974 <Init_led+0x48>)
 8011968:	f002 fe9f 	bl	80146aa <GPIO_ResetBits>
}
 801196c:	bf00      	nop
 801196e:	3708      	adds	r7, #8
 8011970:	46bd      	mov	sp, r7
 8011972:	bd80      	pop	{r7, pc}
 8011974:	40010800 	.word	0x40010800
 8011978:	00300200 	.word	0x00300200

0801197c <NVIC_SystemReset>:
/** \brief  System Reset

    This function initiate a system reset request to reset the MCU.
 */
static __INLINE void NVIC_SystemReset(void)
{
 801197c:	b480      	push	{r7}
 801197e:	af00      	add	r7, sp, #0
    This function acts as a special kind of Data Memory Barrier. 
    It completes when all explicit memory accesses before this instruction complete.
 */
__attribute__( ( always_inline ) ) static __INLINE void __DSB(void)
{
  __ASM volatile ("dsb");
 8011980:	f3bf 8f4f 	dsb	sy
  __DSB();                                                     /* Ensure all outstanding memory accesses included
                                                                  buffered write are completed before reset */
  SCB->AIRCR  = ((0x5FA << SCB_AIRCR_VECTKEY_Pos)      |
 8011984:	4905      	ldr	r1, [pc, #20]	; (801199c <NVIC_SystemReset+0x20>)
                 (SCB->AIRCR & SCB_AIRCR_PRIGROUP_Msk) |
 8011986:	4b05      	ldr	r3, [pc, #20]	; (801199c <NVIC_SystemReset+0x20>)
 8011988:	68db      	ldr	r3, [r3, #12]
 801198a:	f403 62e0 	and.w	r2, r3, #1792	; 0x700
 801198e:	4b04      	ldr	r3, [pc, #16]	; (80119a0 <NVIC_SystemReset+0x24>)
 8011990:	4313      	orrs	r3, r2
  SCB->AIRCR  = ((0x5FA << SCB_AIRCR_VECTKEY_Pos)      |
 8011992:	60cb      	str	r3, [r1, #12]
 8011994:	f3bf 8f4f 	dsb	sy
                 SCB_AIRCR_SYSRESETREQ_Msk);                   /* Keep priority group unchanged */
  __DSB();                                                     /* Ensure completion of memory access */
  while(1);                                                    /* wait until reset */
 8011998:	e7fe      	b.n	8011998 <NVIC_SystemReset+0x1c>
 801199a:	bf00      	nop
 801199c:	e000ed00 	.word	0xe000ed00
 80119a0:	05fa0004 	.word	0x05fa0004

080119a4 <USART2_Init>:

struct F4G_Params_Fram F4G_Params =
{ 0 };

void USART2_Init(uint32_t bound)
{
 80119a4:	b580      	push	{r7, lr}
 80119a6:	b088      	sub	sp, #32
 80119a8:	af00      	add	r7, sp, #0
 80119aa:	6078      	str	r0, [r7, #4]
	USART_DeInit(USART2);
 80119ac:	4827      	ldr	r0, [pc, #156]	; (8011a4c <USART2_Init+0xa8>)
 80119ae:	f003 fb55 	bl	801505c <USART_DeInit>

	GPIO_InitTypeDef GPIO_InitStructure;
	USART_InitTypeDef USART_InitStructure;
	NVIC_InitTypeDef NVIC_InitStructure;

	RCC_APB1PeriphClockCmd(RCC_APB1Periph_USART2, ENABLE);
 80119b2:	2101      	movs	r1, #1
 80119b4:	f44f 3000 	mov.w	r0, #131072	; 0x20000
 80119b8:	f003 f8ae 	bl	8014b18 <RCC_APB1PeriphClockCmd>
	RCC_APB2PeriphClockCmd(RCC_APB2Periph_GPIOA, ENABLE);
 80119bc:	2101      	movs	r1, #1
 80119be:	2004      	movs	r0, #4
 80119c0:	f003 f88c 	bl	8014adc <RCC_APB2PeriphClockCmd>

	GPIO_InitStructure.GPIO_Pin = GPIO_Pin_2; //PA2  TXD
 80119c4:	2304      	movs	r3, #4
 80119c6:	83bb      	strh	r3, [r7, #28]
	GPIO_InitStructure.GPIO_Speed = GPIO_Speed_50MHz;
 80119c8:	2303      	movs	r3, #3
 80119ca:	77bb      	strb	r3, [r7, #30]
	GPIO_InitStructure.GPIO_Mode = GPIO_Mode_AF_PP;	//复用推挽输出
 80119cc:	2318      	movs	r3, #24
 80119ce:	77fb      	strb	r3, [r7, #31]
	GPIO_Init(GPIOA, &GPIO_InitStructure);
 80119d0:	f107 031c 	add.w	r3, r7, #28
 80119d4:	4619      	mov	r1, r3
 80119d6:	481e      	ldr	r0, [pc, #120]	; (8011a50 <USART2_Init+0xac>)
 80119d8:	f002 fd84 	bl	80144e4 <GPIO_Init>

	GPIO_InitStructure.GPIO_Pin = GPIO_Pin_3;	//PA3  RXD
 80119dc:	2308      	movs	r3, #8
 80119de:	83bb      	strh	r3, [r7, #28]
	GPIO_InitStructure.GPIO_Mode = GPIO_Mode_IN_FLOATING;	//浮空输入
 80119e0:	2304      	movs	r3, #4
 80119e2:	77fb      	strb	r3, [r7, #31]
	GPIO_Init(GPIOA, &GPIO_InitStructure);	//初始化GPIOA3
 80119e4:	f107 031c 	add.w	r3, r7, #28
 80119e8:	4619      	mov	r1, r3
 80119ea:	4819      	ldr	r0, [pc, #100]	; (8011a50 <USART2_Init+0xac>)
 80119ec:	f002 fd7a 	bl	80144e4 <GPIO_Init>

	//Usart2 NVIC 配置
	NVIC_InitStructure.NVIC_IRQChannel = USART2_IRQn;
 80119f0:	2326      	movs	r3, #38	; 0x26
 80119f2:	723b      	strb	r3, [r7, #8]
	NVIC_InitStructure.NVIC_IRQChannelPreemptionPriority = 1;	//抢占优先级0
 80119f4:	2301      	movs	r3, #1
 80119f6:	727b      	strb	r3, [r7, #9]
	NVIC_InitStructure.NVIC_IRQChannelSubPriority = 2;		//子优先级0
 80119f8:	2302      	movs	r3, #2
 80119fa:	72bb      	strb	r3, [r7, #10]
	NVIC_InitStructure.NVIC_IRQChannelCmd = ENABLE;			//IRQ通道使能
 80119fc:	2301      	movs	r3, #1
 80119fe:	72fb      	strb	r3, [r7, #11]
	NVIC_Init(&NVIC_InitStructure);	//根据指定的参数初始化VIC寄存器
 8011a00:	f107 0308 	add.w	r3, r7, #8
 8011a04:	4618      	mov	r0, r3
 8011a06:	f002 fbd9 	bl	80141bc <NVIC_Init>

	//USART2 初始化设置
	USART_InitStructure.USART_BaudRate = bound;	//串口波特率
 8011a0a:	687b      	ldr	r3, [r7, #4]
 8011a0c:	60fb      	str	r3, [r7, #12]
	USART_InitStructure.USART_WordLength = USART_WordLength_8b;	//字长为8位数据格式
 8011a0e:	2300      	movs	r3, #0
 8011a10:	823b      	strh	r3, [r7, #16]
	USART_InitStructure.USART_StopBits = USART_StopBits_1;	//一个停止位
 8011a12:	2300      	movs	r3, #0
 8011a14:	827b      	strh	r3, [r7, #18]
	USART_InitStructure.USART_Parity = USART_Parity_No;	//无奇偶校验位
 8011a16:	2300      	movs	r3, #0
 8011a18:	82bb      	strh	r3, [r7, #20]
	USART_InitStructure.USART_HardwareFlowControl =
 8011a1a:	2300      	movs	r3, #0
 8011a1c:	833b      	strh	r3, [r7, #24]
	USART_HardwareFlowControl_None;	//无硬件数据流控制
	USART_InitStructure.USART_Mode = USART_Mode_Rx | USART_Mode_Tx;	//收发模式
 8011a1e:	230c      	movs	r3, #12
 8011a20:	82fb      	strh	r3, [r7, #22]
	USART_Init(USART2, &USART_InitStructure); //初始化串口2
 8011a22:	f107 030c 	add.w	r3, r7, #12
 8011a26:	4619      	mov	r1, r3
 8011a28:	4808      	ldr	r0, [pc, #32]	; (8011a4c <USART2_Init+0xa8>)
 8011a2a:	f003 fb73 	bl	8015114 <USART_Init>

	USART_ITConfig(USART2, USART_IT_RXNE | USART_IT_IDLE, ENABLE); //开启串口接受和总线空闲中断
 8011a2e:	2201      	movs	r2, #1
 8011a30:	f240 5125 	movw	r1, #1317	; 0x525
 8011a34:	4805      	ldr	r0, [pc, #20]	; (8011a4c <USART2_Init+0xa8>)
 8011a36:	f003 fc46 	bl	80152c6 <USART_ITConfig>

	USART_Cmd(USART2, ENABLE);
 8011a3a:	2101      	movs	r1, #1
 8011a3c:	4803      	ldr	r0, [pc, #12]	; (8011a4c <USART2_Init+0xa8>)
 8011a3e:	f003 fc23 	bl	8015288 <USART_Cmd>
}
 8011a42:	bf00      	nop
 8011a44:	3720      	adds	r7, #32
 8011a46:	46bd      	mov	sp, r7
 8011a48:	bd80      	pop	{r7, pc}
 8011a4a:	bf00      	nop
 8011a4c:	40004400 	.word	0x40004400
 8011a50:	40010800 	.word	0x40010800

08011a54 <F4G_Init>:

void F4G_Init(u32 bound)
{
 8011a54:	b580      	push	{r7, lr}
 8011a56:	b086      	sub	sp, #24
 8011a58:	af00      	add	r7, sp, #0
 8011a5a:	6078      	str	r0, [r7, #4]
	GPIO_InitTypeDef GPIO_InitStructure;

	F4G_Fram_Record_Struct.init = 1;
 8011a5c:	4b63      	ldr	r3, [pc, #396]	; (8011bec <F4G_Init+0x198>)
 8011a5e:	2201      	movs	r2, #1
 8011a60:	f883 2a3e 	strb.w	r2, [r3, #2622]	; 0xa3e
	F4G_Fram_Record_Struct.allowProcessServerData = 0;
 8011a64:	4b61      	ldr	r3, [pc, #388]	; (8011bec <F4G_Init+0x198>)
 8011a66:	2200      	movs	r2, #0
 8011a68:	f883 2a3d 	strb.w	r2, [r3, #2621]	; 0xa3d

	USART2_Init(bound);
 8011a6c:	6878      	ldr	r0, [r7, #4]
 8011a6e:	f7ff ff99 	bl	80119a4 <USART2_Init>

	RCC_APB2PeriphClockCmd(RCC_APB2Periph_GPIOC, ENABLE);
 8011a72:	2101      	movs	r1, #1
 8011a74:	2010      	movs	r0, #16
 8011a76:	f003 f831 	bl	8014adc <RCC_APB2PeriphClockCmd>

	GPIO_InitStructure.GPIO_Pin = PKEY_4G | RST_4G;
 8011a7a:	2303      	movs	r3, #3
 8011a7c:	81bb      	strh	r3, [r7, #12]
	GPIO_InitStructure.GPIO_Mode = GPIO_Mode_Out_PP; 	 //推挽输出
 8011a7e:	2310      	movs	r3, #16
 8011a80:	73fb      	strb	r3, [r7, #15]
	GPIO_InitStructure.GPIO_Speed = GPIO_Speed_50MHz;	 //IO口速度为50MHz
 8011a82:	2303      	movs	r3, #3
 8011a84:	73bb      	strb	r3, [r7, #14]

	GPIO_Init(GPIOC, &GPIO_InitStructure);
 8011a86:	f107 030c 	add.w	r3, r7, #12
 8011a8a:	4619      	mov	r1, r3
 8011a8c:	4858      	ldr	r0, [pc, #352]	; (8011bf0 <F4G_Init+0x19c>)
 8011a8e:	f002 fd29 	bl	80144e4 <GPIO_Init>

	//开机
	do
	{
		PKEY_4G_Pin_SetH;
 8011a92:	2102      	movs	r1, #2
 8011a94:	4856      	ldr	r0, [pc, #344]	; (8011bf0 <F4G_Init+0x19c>)
 8011a96:	f002 fdfa 	bl	801468e <GPIO_SetBits>
		delay_ms(1000);
 8011a9a:	f44f 707a 	mov.w	r0, #1000	; 0x3e8
 8011a9e:	f003 fd71 	bl	8015584 <delay_ms>
		delay_ms(1000);
 8011aa2:	f44f 707a 	mov.w	r0, #1000	; 0x3e8
 8011aa6:	f003 fd6d 	bl	8015584 <delay_ms>
		delay_ms(1000);
 8011aaa:	f44f 707a 	mov.w	r0, #1000	; 0x3e8
 8011aae:	f003 fd69 	bl	8015584 <delay_ms>
		//delay_ms(1000);
		PKEY_4G_Pin_SetL;
 8011ab2:	2102      	movs	r1, #2
 8011ab4:	484e      	ldr	r0, [pc, #312]	; (8011bf0 <F4G_Init+0x19c>)
 8011ab6:	f002 fdf8 	bl	80146aa <GPIO_ResetBits>
		//复位4G模块
		RST_4G_Pin_SetH;
 8011aba:	2101      	movs	r1, #1
 8011abc:	484c      	ldr	r0, [pc, #304]	; (8011bf0 <F4G_Init+0x19c>)
 8011abe:	f002 fde6 	bl	801468e <GPIO_SetBits>
		delay_ms(1100);
 8011ac2:	f240 404c 	movw	r0, #1100	; 0x44c
 8011ac6:	f003 fd5d 	bl	8015584 <delay_ms>
		RST_4G_Pin_SetL;
 8011aca:	2101      	movs	r1, #1
 8011acc:	4848      	ldr	r0, [pc, #288]	; (8011bf0 <F4G_Init+0x19c>)
 8011ace:	f002 fdec 	bl	80146aa <GPIO_ResetBits>
		delay_ms(500);
 8011ad2:	f44f 70fa 	mov.w	r0, #500	; 0x1f4
 8011ad6:	f003 fd55 	bl	8015584 <delay_ms>

		F4G_ExitUnvarnishSend();
 8011ada:	f000 fc69 	bl	80123b0 <F4G_ExitUnvarnishSend>
		Send_AT_Cmd("AT+CIPCLOSE", "OK", NULL, 500);
 8011ade:	f44f 73fa 	mov.w	r3, #500	; 0x1f4
 8011ae2:	2200      	movs	r2, #0
 8011ae4:	4943      	ldr	r1, [pc, #268]	; (8011bf4 <F4G_Init+0x1a0>)
 8011ae6:	4844      	ldr	r0, [pc, #272]	; (8011bf8 <F4G_Init+0x1a4>)
 8011ae8:	f000 fb32 	bl	8012150 <Send_AT_Cmd>
		Send_AT_Cmd("AT+RSTSET", "OK", NULL, 500);
 8011aec:	f44f 73fa 	mov.w	r3, #500	; 0x1f4
 8011af0:	2200      	movs	r2, #0
 8011af2:	4940      	ldr	r1, [pc, #256]	; (8011bf4 <F4G_Init+0x1a0>)
 8011af4:	4841      	ldr	r0, [pc, #260]	; (8011bfc <F4G_Init+0x1a8>)
 8011af6:	f000 fb2b 	bl	8012150 <Send_AT_Cmd>
	} while (!F4G_AT_Test());
 8011afa:	f000 fb93 	bl	8012224 <F4G_AT_Test>
 8011afe:	4603      	mov	r3, r0
 8011b00:	2b00      	cmp	r3, #0
 8011b02:	d0c6      	beq.n	8011a92 <F4G_Init+0x3e>

	//获取4G模块参数信息
	getModuleMes();
 8011b04:	f000 fc68 	bl	80123d8 <getModuleMes>
	//连接到服务器
	if (RegisterParams.ip != NULL && RegisterParams.port != NULL)
	{
		while (!connectToTCPServer(RegisterParams.ip, RegisterParams.port))
 8011b08:	bf00      	nop
 8011b0a:	493d      	ldr	r1, [pc, #244]	; (8011c00 <F4G_Init+0x1ac>)
 8011b0c:	483d      	ldr	r0, [pc, #244]	; (8011c04 <F4G_Init+0x1b0>)
 8011b0e:	f000 fbbb 	bl	8012288 <connectToTCPServer>
 8011b12:	4603      	mov	r3, r0
 8011b14:	f083 0301 	eor.w	r3, r3, #1
 8011b18:	b2db      	uxtb	r3, r3
 8011b1a:	2b00      	cmp	r3, #0
 8011b1c:	d1f5      	bne.n	8011b0a <F4G_Init+0xb6>
	else
	{
		while (!connectToTCPServer(TCPServer_IP, TCPServer_PORT))
			;
	}
	u8 request_cnt = 0;
 8011b1e:	2300      	movs	r3, #0
 8011b20:	75fb      	strb	r3, [r7, #23]
	//上电注册
	while (1)
	{
		if (request_cnt >= 3)
 8011b22:	7dfb      	ldrb	r3, [r7, #23]
 8011b24:	2b02      	cmp	r3, #2
 8011b26:	d901      	bls.n	8011b2c <F4G_Init+0xd8>
		{
			NVIC_SystemReset(); //重启
 8011b28:	f7ff ff28 	bl	801197c <NVIC_SystemReset>
			//RunApp();
		}
		request(REQ_REGISTER);
 8011b2c:	4836      	ldr	r0, [pc, #216]	; (8011c08 <F4G_Init+0x1b4>)
 8011b2e:	f000 fde1 	bl	80126f4 <request>
		request_cnt++;
 8011b32:	7dfb      	ldrb	r3, [r7, #23]
 8011b34:	3301      	adds	r3, #1
 8011b36:	75fb      	strb	r3, [r7, #23]
		delay_ms(500);
 8011b38:	f44f 70fa 	mov.w	r0, #500	; 0x1f4
 8011b3c:	f003 fd22 	bl	8015584 <delay_ms>
		if (F4G_Fram_Record_Struct.InfBit.FramFinishFlag)
 8011b40:	4b2a      	ldr	r3, [pc, #168]	; (8011bec <F4G_Init+0x198>)
 8011b42:	f8b3 3a42 	ldrh.w	r3, [r3, #2626]	; 0xa42
 8011b46:	f3c3 33c0 	ubfx	r3, r3, #15, #1
 8011b4a:	b2db      	uxtb	r3, r3
 8011b4c:	2b00      	cmp	r3, #0
 8011b4e:	d0e8      	beq.n	8011b22 <F4G_Init+0xce>
		{
			F4G_Fram_Record_Struct.InfBit.FramFinishFlag = 0;
 8011b50:	4a26      	ldr	r2, [pc, #152]	; (8011bec <F4G_Init+0x198>)
 8011b52:	f8b2 3a42 	ldrh.w	r3, [r2, #2626]	; 0xa42
 8011b56:	f36f 33cf 	bfc	r3, #15, #1
 8011b5a:	f8a2 3a42 	strh.w	r3, [r2, #2626]	; 0xa42
			split(F4G_Fram_Record_Struct.DeData, ",");
 8011b5e:	492b      	ldr	r1, [pc, #172]	; (8011c0c <F4G_Init+0x1b8>)
 8011b60:	482b      	ldr	r0, [pc, #172]	; (8011c10 <F4G_Init+0x1bc>)
 8011b62:	f000 fab9 	bl	80120d8 <split>
			//注册成功
			if (memcmp(F4G_Fram_Record_Struct.Server_Command[1],
 8011b66:	4b21      	ldr	r3, [pc, #132]	; (8011bec <F4G_Init+0x198>)
 8011b68:	f8d3 3a08 	ldr.w	r3, [r3, #2568]	; 0xa08
 8011b6c:	2202      	movs	r2, #2
 8011b6e:	4929      	ldr	r1, [pc, #164]	; (8011c14 <F4G_Init+0x1c0>)
 8011b70:	4618      	mov	r0, r3
 8011b72:	f004 fc6d 	bl	8016450 <memcmp>
 8011b76:	4603      	mov	r3, r0
 8011b78:	2b00      	cmp	r3, #0
 8011b7a:	d1d2      	bne.n	8011b22 <F4G_Init+0xce>
			RES_REGISTER, 2) == 0)
			{
				char *tem = F4G_Fram_Record_Struct.ServerData;
 8011b7c:	4b26      	ldr	r3, [pc, #152]	; (8011c18 <F4G_Init+0x1c4>)
 8011b7e:	613b      	str	r3, [r7, #16]
				tem = strtok(F4G_Fram_Record_Struct.ServerData, "_");
 8011b80:	4926      	ldr	r1, [pc, #152]	; (8011c1c <F4G_Init+0x1c8>)
 8011b82:	4825      	ldr	r0, [pc, #148]	; (8011c18 <F4G_Init+0x1c4>)
 8011b84:	f004 fdda 	bl	801673c <strtok>
 8011b88:	6138      	str	r0, [r7, #16]
				RegisterParams.heartTime = atoi(tem);
 8011b8a:	6938      	ldr	r0, [r7, #16]
 8011b8c:	f004 fc1e 	bl	80163cc <atoi>
 8011b90:	4603      	mov	r3, r0
 8011b92:	b2da      	uxtb	r2, r3
 8011b94:	4b22      	ldr	r3, [pc, #136]	; (8011c20 <F4G_Init+0x1cc>)
 8011b96:	f883 2031 	strb.w	r2, [r3, #49]	; 0x31
				tem = strtok(NULL, "_");
 8011b9a:	4920      	ldr	r1, [pc, #128]	; (8011c1c <F4G_Init+0x1c8>)
 8011b9c:	2000      	movs	r0, #0
 8011b9e:	f004 fdcd 	bl	801673c <strtok>
 8011ba2:	6138      	str	r0, [r7, #16]
				RegisterParams.statuHeartTime = atoi(tem);
 8011ba4:	6938      	ldr	r0, [r7, #16]
 8011ba6:	f004 fc11 	bl	80163cc <atoi>
 8011baa:	4603      	mov	r3, r0
 8011bac:	b2da      	uxtb	r2, r3
 8011bae:	4b1c      	ldr	r3, [pc, #112]	; (8011c20 <F4G_Init+0x1cc>)
 8011bb0:	f883 2032 	strb.w	r2, [r3, #50]	; 0x32
				printf("ht=%d,sht=%d\r\n", RegisterParams.heartTime,
 8011bb4:	4b1a      	ldr	r3, [pc, #104]	; (8011c20 <F4G_Init+0x1cc>)
 8011bb6:	f893 3031 	ldrb.w	r3, [r3, #49]	; 0x31
 8011bba:	4619      	mov	r1, r3
						RegisterParams.statuHeartTime);
 8011bbc:	4b18      	ldr	r3, [pc, #96]	; (8011c20 <F4G_Init+0x1cc>)
 8011bbe:	f893 3032 	ldrb.w	r3, [r3, #50]	; 0x32
				printf("ht=%d,sht=%d\r\n", RegisterParams.heartTime,
 8011bc2:	461a      	mov	r2, r3
 8011bc4:	4817      	ldr	r0, [pc, #92]	; (8011c24 <F4G_Init+0x1d0>)
 8011bc6:	f004 fc65 	bl	8016494 <printf>
				break;
 8011bca:	bf00      	nop
			}
		}
	}
	F4G_Fram_Record_Struct.registerSuccess = 1;
 8011bcc:	4b07      	ldr	r3, [pc, #28]	; (8011bec <F4G_Init+0x198>)
 8011bce:	2201      	movs	r2, #1
 8011bd0:	f883 2a3f 	strb.w	r2, [r3, #2623]	; 0xa3f
	RegisterParams.allowHeart = 1;
 8011bd4:	4b12      	ldr	r3, [pc, #72]	; (8011c20 <F4G_Init+0x1cc>)
 8011bd6:	2201      	movs	r2, #1
 8011bd8:	f883 2033 	strb.w	r2, [r3, #51]	; 0x33
	F4G_Fram_Record_Struct.allowProcessServerData = 1;
 8011bdc:	4b03      	ldr	r3, [pc, #12]	; (8011bec <F4G_Init+0x198>)
 8011bde:	2201      	movs	r2, #1
 8011be0:	f883 2a3d 	strb.w	r2, [r3, #2621]	; 0xa3d
//	strncpy(F4G_Params.htCMD, "32", 2);
//	F4G_Params.STHeart = 1;
}
 8011be4:	bf00      	nop
 8011be6:	3718      	adds	r7, #24
 8011be8:	46bd      	mov	sp, r7
 8011bea:	bd80      	pop	{r7, pc}
 8011bec:	200006e4 	.word	0x200006e4
 8011bf0:	40011000 	.word	0x40011000
 8011bf4:	0801b4d0 	.word	0x0801b4d0
 8011bf8:	0801b4d4 	.word	0x0801b4d4
 8011bfc:	0801b4e0 	.word	0x0801b4e0
 8011c00:	20001a54 	.word	0x20001a54
 8011c04:	20001a32 	.word	0x20001a32
 8011c08:	0801b4ec 	.word	0x0801b4ec
 8011c0c:	0801b4f0 	.word	0x0801b4f0
 8011c10:	20000ae4 	.word	0x20000ae4
 8011c14:	0801b4f4 	.word	0x0801b4f4
 8011c18:	20000ee8 	.word	0x20000ee8
 8011c1c:	0801b4f8 	.word	0x0801b4f8
 8011c20:	20001a20 	.word	0x20001a20
 8011c24:	0801b4fc 	.word	0x0801b4fc

08011c28 <USART2_IRQHandler>:

void USART2_IRQHandler(void)
{
 8011c28:	b580      	push	{r7, lr}
 8011c2a:	b086      	sub	sp, #24
 8011c2c:	af00      	add	r7, sp, #0
	u8 ucCh;
	if (USART_GetITStatus( USART2, USART_IT_RXNE) != RESET)
 8011c2e:	f240 5125 	movw	r1, #1317	; 0x525
 8011c32:	48be      	ldr	r0, [pc, #760]	; (8011f2c <USART2_IRQHandler+0x304>)
 8011c34:	f003 fbd9 	bl	80153ea <USART_GetITStatus>
 8011c38:	4603      	mov	r3, r0
 8011c3a:	2b00      	cmp	r3, #0
 8011c3c:	f000 8222 	beq.w	8012084 <USART2_IRQHandler+0x45c>
	{
		USART_ClearITPendingBit(USART2, USART_IT_RXNE);
 8011c40:	f240 5125 	movw	r1, #1317	; 0x525
 8011c44:	48b9      	ldr	r0, [pc, #740]	; (8011f2c <USART2_IRQHandler+0x304>)
 8011c46:	f003 fc2a 	bl	801549e <USART_ClearITPendingBit>
		ucCh = USART_ReceiveData( USART2);
 8011c4a:	48b8      	ldr	r0, [pc, #736]	; (8011f2c <USART2_IRQHandler+0x304>)
 8011c4c:	f003 fb93 	bl	8015376 <USART_ReceiveData>
 8011c50:	4603      	mov	r3, r0
 8011c52:	74fb      	strb	r3, [r7, #19]

		if (F4G_Fram_Record_Struct.InfBit.FramLength < (RX4G_BUF_MAX_LEN - 1))
 8011c54:	4bb6      	ldr	r3, [pc, #728]	; (8011f30 <USART2_IRQHandler+0x308>)
 8011c56:	f8b3 3a42 	ldrh.w	r3, [r3, #2626]	; 0xa42
 8011c5a:	f3c3 030e 	ubfx	r3, r3, #0, #15
 8011c5e:	b29b      	uxth	r3, r3
 8011c60:	461a      	mov	r2, r3
 8011c62:	f240 33fe 	movw	r3, #1022	; 0x3fe
 8011c66:	429a      	cmp	r2, r3
 8011c68:	dc14      	bgt.n	8011c94 <USART2_IRQHandler+0x6c>
		{
			F4G_Fram_Record_Struct.Data_RX_BUF[F4G_Fram_Record_Struct.InfBit.FramLength++] =
 8011c6a:	4bb1      	ldr	r3, [pc, #708]	; (8011f30 <USART2_IRQHandler+0x308>)
 8011c6c:	f8b3 3a42 	ldrh.w	r3, [r3, #2626]	; 0xa42
 8011c70:	f3c3 030e 	ubfx	r3, r3, #0, #15
 8011c74:	b299      	uxth	r1, r3
 8011c76:	1c4b      	adds	r3, r1, #1
 8011c78:	f3c3 030e 	ubfx	r3, r3, #0, #15
 8011c7c:	b298      	uxth	r0, r3
 8011c7e:	4aac      	ldr	r2, [pc, #688]	; (8011f30 <USART2_IRQHandler+0x308>)
 8011c80:	f8b2 3a42 	ldrh.w	r3, [r2, #2626]	; 0xa42
 8011c84:	f360 030e 	bfi	r3, r0, #0, #15
 8011c88:	f8a2 3a42 	strh.w	r3, [r2, #2626]	; 0xa42
 8011c8c:	4aa8      	ldr	r2, [pc, #672]	; (8011f30 <USART2_IRQHandler+0x308>)
 8011c8e:	7cfb      	ldrb	r3, [r7, #19]
 8011c90:	5453      	strb	r3, [r2, r1]
 8011c92:	e00f      	b.n	8011cb4 <USART2_IRQHandler+0x8c>
					ucCh;
		}
		else
		{
			printf("4G Cmd size over.\r\n");
 8011c94:	48a7      	ldr	r0, [pc, #668]	; (8011f34 <USART2_IRQHandler+0x30c>)
 8011c96:	f004 fc75 	bl	8016584 <puts>
			memset(F4G_Fram_Record_Struct.Data_RX_BUF, 0, RX4G_BUF_MAX_LEN);
 8011c9a:	f44f 6280 	mov.w	r2, #1024	; 0x400
 8011c9e:	2100      	movs	r1, #0
 8011ca0:	48a3      	ldr	r0, [pc, #652]	; (8011f30 <USART2_IRQHandler+0x308>)
 8011ca2:	f004 fbef 	bl	8016484 <memset>
			F4G_Fram_Record_Struct.InfBit.FramLength = 0;
 8011ca6:	4aa2      	ldr	r2, [pc, #648]	; (8011f30 <USART2_IRQHandler+0x308>)
 8011ca8:	f8b2 3a42 	ldrh.w	r3, [r2, #2626]	; 0xa42
 8011cac:	f36f 030e 	bfc	r3, #0, #15
 8011cb0:	f8a2 3a42 	strh.w	r3, [r2, #2626]	; 0xa42
		}
		//收到服务器端发回的数据
		if (ucCh == ']'
 8011cb4:	7cfb      	ldrb	r3, [r7, #19]
 8011cb6:	2b5d      	cmp	r3, #93	; 0x5d
 8011cb8:	d143      	bne.n	8011d42 <USART2_IRQHandler+0x11a>
				&& (bool) strchr(F4G_Fram_Record_Struct.Data_RX_BUF, '['))
 8011cba:	215b      	movs	r1, #91	; 0x5b
 8011cbc:	489c      	ldr	r0, [pc, #624]	; (8011f30 <USART2_IRQHandler+0x308>)
 8011cbe:	f004 fcd0 	bl	8016662 <strchr>
 8011cc2:	4603      	mov	r3, r0
 8011cc4:	2b00      	cmp	r3, #0
 8011cc6:	d03c      	beq.n	8011d42 <USART2_IRQHandler+0x11a>
		{
			char *res = F4G_Fram_Record_Struct.Data_RX_BUF;
 8011cc8:	4b99      	ldr	r3, [pc, #612]	; (8011f30 <USART2_IRQHandler+0x308>)
 8011cca:	617b      	str	r3, [r7, #20]
			F4G_Params.serverStatuCnt = 0;
 8011ccc:	4b9a      	ldr	r3, [pc, #616]	; (8011f38 <USART2_IRQHandler+0x310>)
 8011cce:	2200      	movs	r2, #0
 8011cd0:	f883 2030 	strb.w	r2, [r3, #48]	; 0x30
			while (*res != '[')
 8011cd4:	e002      	b.n	8011cdc <USART2_IRQHandler+0xb4>
			{
				res++;
 8011cd6:	697b      	ldr	r3, [r7, #20]
 8011cd8:	3301      	adds	r3, #1
 8011cda:	617b      	str	r3, [r7, #20]
			while (*res != '[')
 8011cdc:	697b      	ldr	r3, [r7, #20]
 8011cde:	781b      	ldrb	r3, [r3, #0]
 8011ce0:	2b5b      	cmp	r3, #91	; 0x5b
 8011ce2:	d1f8      	bne.n	8011cd6 <USART2_IRQHandler+0xae>
			}
			while (*res == '[')
 8011ce4:	e002      	b.n	8011cec <USART2_IRQHandler+0xc4>
				res++;
 8011ce6:	697b      	ldr	r3, [r7, #20]
 8011ce8:	3301      	adds	r3, #1
 8011cea:	617b      	str	r3, [r7, #20]
			while (*res == '[')
 8011cec:	697b      	ldr	r3, [r7, #20]
 8011cee:	781b      	ldrb	r3, [r3, #0]
 8011cf0:	2b5b      	cmp	r3, #91	; 0x5b
 8011cf2:	d0f8      	beq.n	8011ce6 <USART2_IRQHandler+0xbe>

			F4G_Fram_Record_Struct.base64Str = strtok(res, "]");
 8011cf4:	4991      	ldr	r1, [pc, #580]	; (8011f3c <USART2_IRQHandler+0x314>)
 8011cf6:	6978      	ldr	r0, [r7, #20]
 8011cf8:	f004 fd20 	bl	801673c <strtok>
 8011cfc:	4602      	mov	r2, r0
 8011cfe:	4b8c      	ldr	r3, [pc, #560]	; (8011f30 <USART2_IRQHandler+0x308>)
 8011d00:	f8c3 2800 	str.w	r2, [r3, #2048]	; 0x800
//			printf("before Decryption=%s\r\n",
//					F4G_Fram_Record_Struct.base64Str);
			base64_decode((const char *) F4G_Fram_Record_Struct.base64Str,
 8011d04:	4b8a      	ldr	r3, [pc, #552]	; (8011f30 <USART2_IRQHandler+0x308>)
 8011d06:	f8d3 3800 	ldr.w	r3, [r3, #2048]	; 0x800
 8011d0a:	498d      	ldr	r1, [pc, #564]	; (8011f40 <USART2_IRQHandler+0x318>)
 8011d0c:	4618      	mov	r0, r3
 8011d0e:	f002 f843 	bl	8013d98 <base64_decode>
					(unsigned char *) F4G_Fram_Record_Struct.DeData);
			printf("after Decryption=%s\r\n", F4G_Fram_Record_Struct.DeData);
 8011d12:	498b      	ldr	r1, [pc, #556]	; (8011f40 <USART2_IRQHandler+0x318>)
 8011d14:	488b      	ldr	r0, [pc, #556]	; (8011f44 <USART2_IRQHandler+0x31c>)
 8011d16:	f004 fbbd 	bl	8016494 <printf>
			//split(F4G_Fram_Record_Struct.DeData, ",");
			memset(F4G_Fram_Record_Struct.Data_RX_BUF, '\0', RX4G_BUF_MAX_LEN);
 8011d1a:	f44f 6280 	mov.w	r2, #1024	; 0x400
 8011d1e:	2100      	movs	r1, #0
 8011d20:	4883      	ldr	r0, [pc, #524]	; (8011f30 <USART2_IRQHandler+0x308>)
 8011d22:	f004 fbaf 	bl	8016484 <memset>
			F4G_Fram_Record_Struct.InfBit.FramLength = 0;
 8011d26:	4a82      	ldr	r2, [pc, #520]	; (8011f30 <USART2_IRQHandler+0x308>)
 8011d28:	f8b2 3a42 	ldrh.w	r3, [r2, #2626]	; 0xa42
 8011d2c:	f36f 030e 	bfc	r3, #0, #15
 8011d30:	f8a2 3a42 	strh.w	r3, [r2, #2626]	; 0xa42
			F4G_Fram_Record_Struct.InfBit.FramFinishFlag = 1;
 8011d34:	4a7e      	ldr	r2, [pc, #504]	; (8011f30 <USART2_IRQHandler+0x308>)
 8011d36:	f8b2 3a42 	ldrh.w	r3, [r2, #2626]	; 0xa42
 8011d3a:	f443 4300 	orr.w	r3, r3, #32768	; 0x8000
 8011d3e:	f8a2 3a42 	strh.w	r3, [r2, #2626]	; 0xa42
		}
		//=====================================================================
		if (F4G_Fram_Record_Struct.allowProcessServerData)
 8011d42:	4b7b      	ldr	r3, [pc, #492]	; (8011f30 <USART2_IRQHandler+0x308>)
 8011d44:	f893 3a3d 	ldrb.w	r3, [r3, #2621]	; 0xa3d
 8011d48:	b2db      	uxtb	r3, r3
 8011d4a:	2b00      	cmp	r3, #0
 8011d4c:	f000 819a 	beq.w	8012084 <USART2_IRQHandler+0x45c>
		{
			if (F4G_Fram_Record_Struct.InfBit.FramFinishFlag)
 8011d50:	4b77      	ldr	r3, [pc, #476]	; (8011f30 <USART2_IRQHandler+0x308>)
 8011d52:	f8b3 3a42 	ldrh.w	r3, [r3, #2626]	; 0xa42
 8011d56:	f3c3 33c0 	ubfx	r3, r3, #15, #1
 8011d5a:	b2db      	uxtb	r3, r3
 8011d5c:	2b00      	cmp	r3, #0
 8011d5e:	f000 8191 	beq.w	8012084 <USART2_IRQHandler+0x45c>
			{
				F4G_Fram_Record_Struct.InfBit.FramFinishFlag = 0;
 8011d62:	4a73      	ldr	r2, [pc, #460]	; (8011f30 <USART2_IRQHandler+0x308>)
 8011d64:	f8b2 3a42 	ldrh.w	r3, [r2, #2626]	; 0xa42
 8011d68:	f36f 33cf 	bfc	r3, #15, #1
 8011d6c:	f8a2 3a42 	strh.w	r3, [r2, #2626]	; 0xa42
				split(F4G_Fram_Record_Struct.DeData, ",");
 8011d70:	4975      	ldr	r1, [pc, #468]	; (8011f48 <USART2_IRQHandler+0x320>)
 8011d72:	4873      	ldr	r0, [pc, #460]	; (8011f40 <USART2_IRQHandler+0x318>)
 8011d74:	f000 f9b0 	bl	80120d8 <split>
				//解析数据
				if (memcmp(F4G_Fram_Record_Struct.Server_Command[1], "33", 2)
 8011d78:	4b6d      	ldr	r3, [pc, #436]	; (8011f30 <USART2_IRQHandler+0x308>)
 8011d7a:	f8d3 3a08 	ldr.w	r3, [r3, #2568]	; 0xa08
 8011d7e:	2202      	movs	r2, #2
 8011d80:	4972      	ldr	r1, [pc, #456]	; (8011f4c <USART2_IRQHandler+0x324>)
 8011d82:	4618      	mov	r0, r3
 8011d84:	f004 fb64 	bl	8016450 <memcmp>
 8011d88:	4603      	mov	r3, r0
 8011d8a:	2b00      	cmp	r3, #0
 8011d8c:	d10c      	bne.n	8011da8 <USART2_IRQHandler+0x180>
						== 0)
				{
					F4G_Params.serverStatuCnt = 0;
 8011d8e:	4b6a      	ldr	r3, [pc, #424]	; (8011f38 <USART2_IRQHandler+0x310>)
 8011d90:	2200      	movs	r2, #0
 8011d92:	f883 2030 	strb.w	r2, [r3, #48]	; 0x30
					F4G_Fram_Record_Struct.firstStatuHeartNotSucc = 0;
 8011d96:	4b66      	ldr	r3, [pc, #408]	; (8011f30 <USART2_IRQHandler+0x308>)
 8011d98:	2200      	movs	r2, #0
 8011d9a:	f883 2a40 	strb.w	r2, [r3, #2624]	; 0xa40
					F4G_Params.allowCheckChange = 1;
 8011d9e:	4b66      	ldr	r3, [pc, #408]	; (8011f38 <USART2_IRQHandler+0x310>)
 8011da0:	2201      	movs	r2, #1
 8011da2:	f883 202f 	strb.w	r2, [r3, #47]	; 0x2f
 8011da6:	e16d      	b.n	8012084 <USART2_IRQHandler+0x45c>
				}
				else if (memcmp(F4G_Fram_Record_Struct.Server_Command[1], "91",
 8011da8:	4b61      	ldr	r3, [pc, #388]	; (8011f30 <USART2_IRQHandler+0x308>)
 8011daa:	f8d3 3a08 	ldr.w	r3, [r3, #2568]	; 0xa08
 8011dae:	2202      	movs	r2, #2
 8011db0:	4967      	ldr	r1, [pc, #412]	; (8011f50 <USART2_IRQHandler+0x328>)
 8011db2:	4618      	mov	r0, r3
 8011db4:	f004 fb4c 	bl	8016450 <memcmp>
 8011db8:	4603      	mov	r3, r0
 8011dba:	2b00      	cmp	r3, #0
 8011dbc:	d104      	bne.n	8011dc8 <USART2_IRQHandler+0x1a0>
						2) == 0)
				{
					F4G_Params.serverStatuCnt = 0;
 8011dbe:	4b5e      	ldr	r3, [pc, #376]	; (8011f38 <USART2_IRQHandler+0x310>)
 8011dc0:	2200      	movs	r2, #0
 8011dc2:	f883 2030 	strb.w	r2, [r3, #48]	; 0x30
 8011dc6:	e15d      	b.n	8012084 <USART2_IRQHandler+0x45c>
				}
				else if (memcmp(F4G_Fram_Record_Struct.Server_Command[1], "94",
 8011dc8:	4b59      	ldr	r3, [pc, #356]	; (8011f30 <USART2_IRQHandler+0x308>)
 8011dca:	f8d3 3a08 	ldr.w	r3, [r3, #2568]	; 0xa08
 8011dce:	2202      	movs	r2, #2
 8011dd0:	4960      	ldr	r1, [pc, #384]	; (8011f54 <USART2_IRQHandler+0x32c>)
 8011dd2:	4618      	mov	r0, r3
 8011dd4:	f004 fb3c 	bl	8016450 <memcmp>
 8011dd8:	4603      	mov	r3, r0
 8011dda:	2b00      	cmp	r3, #0
 8011ddc:	d104      	bne.n	8011de8 <USART2_IRQHandler+0x1c0>
						2) == 0)
				{
					F4G_Params.serverStatuCnt = 0;
 8011dde:	4b56      	ldr	r3, [pc, #344]	; (8011f38 <USART2_IRQHandler+0x310>)
 8011de0:	2200      	movs	r2, #0
 8011de2:	f883 2030 	strb.w	r2, [r3, #48]	; 0x30
 8011de6:	e14d      	b.n	8012084 <USART2_IRQHandler+0x45c>
				}
				else if (memcmp(F4G_Fram_Record_Struct.Server_Command[1], "34",
 8011de8:	4b51      	ldr	r3, [pc, #324]	; (8011f30 <USART2_IRQHandler+0x308>)
 8011dea:	f8d3 3a08 	ldr.w	r3, [r3, #2568]	; 0xa08
 8011dee:	2202      	movs	r2, #2
 8011df0:	4959      	ldr	r1, [pc, #356]	; (8011f58 <USART2_IRQHandler+0x330>)
 8011df2:	4618      	mov	r0, r3
 8011df4:	f004 fb2c 	bl	8016450 <memcmp>
 8011df8:	4603      	mov	r3, r0
 8011dfa:	2b00      	cmp	r3, #0
 8011dfc:	d123      	bne.n	8011e46 <USART2_IRQHandler+0x21e>
						2) == 0)
				{
					//弹出充电宝
					char *tem = strtok(F4G_Fram_Record_Struct.ServerData, "-");
 8011dfe:	4957      	ldr	r1, [pc, #348]	; (8011f5c <USART2_IRQHandler+0x334>)
 8011e00:	4857      	ldr	r0, [pc, #348]	; (8011f60 <USART2_IRQHandler+0x338>)
 8011e02:	f004 fc9b 	bl	801673c <strtok>
 8011e06:	60f8      	str	r0, [r7, #12]

					F4G_Params.port = atoi(tem);
 8011e08:	68f8      	ldr	r0, [r7, #12]
 8011e0a:	f004 fadf 	bl	80163cc <atoi>
 8011e0e:	4602      	mov	r2, r0
 8011e10:	4b49      	ldr	r3, [pc, #292]	; (8011f38 <USART2_IRQHandler+0x310>)
 8011e12:	609a      	str	r2, [r3, #8]
					tem = strtok(NULL, "-");
 8011e14:	4951      	ldr	r1, [pc, #324]	; (8011f5c <USART2_IRQHandler+0x334>)
 8011e16:	2000      	movs	r0, #0
 8011e18:	f004 fc90 	bl	801673c <strtok>
 8011e1c:	60f8      	str	r0, [r7, #12]
					F4G_Params.play = (u8) atoi(tem);
 8011e1e:	68f8      	ldr	r0, [r7, #12]
 8011e20:	f004 fad4 	bl	80163cc <atoi>
 8011e24:	4603      	mov	r3, r0
 8011e26:	b2da      	uxtb	r2, r3
 8011e28:	4b43      	ldr	r3, [pc, #268]	; (8011f38 <USART2_IRQHandler+0x310>)
 8011e2a:	f883 2020 	strb.w	r2, [r3, #32]
					strcpy(F4G_Params.cmd, REQ_TC_POWERBANK);
 8011e2e:	4b4d      	ldr	r3, [pc, #308]	; (8011f64 <USART2_IRQHandler+0x33c>)
 8011e30:	4a4d      	ldr	r2, [pc, #308]	; (8011f68 <USART2_IRQHandler+0x340>)
 8011e32:	6812      	ldr	r2, [r2, #0]
 8011e34:	4611      	mov	r1, r2
 8011e36:	8019      	strh	r1, [r3, #0]
 8011e38:	3302      	adds	r3, #2
 8011e3a:	0c12      	lsrs	r2, r2, #16
 8011e3c:	701a      	strb	r2, [r3, #0]
					F4G_Params.sysTC = 1;
 8011e3e:	4b3e      	ldr	r3, [pc, #248]	; (8011f38 <USART2_IRQHandler+0x310>)
 8011e40:	2201      	movs	r2, #1
 8011e42:	709a      	strb	r2, [r3, #2]
 8011e44:	e11e      	b.n	8012084 <USART2_IRQHandler+0x45c>
				}
				//收到上报的信息的回复
				else if (memcmp(F4G_Fram_Record_Struct.Server_Command[1], "36",
 8011e46:	4b3a      	ldr	r3, [pc, #232]	; (8011f30 <USART2_IRQHandler+0x308>)
 8011e48:	f8d3 3a08 	ldr.w	r3, [r3, #2568]	; 0xa08
 8011e4c:	2202      	movs	r2, #2
 8011e4e:	4947      	ldr	r1, [pc, #284]	; (8011f6c <USART2_IRQHandler+0x344>)
 8011e50:	4618      	mov	r0, r3
 8011e52:	f004 fafd 	bl	8016450 <memcmp>
 8011e56:	4603      	mov	r3, r0
 8011e58:	2b00      	cmp	r3, #0
 8011e5a:	d10a      	bne.n	8011e72 <USART2_IRQHandler+0x24a>
						2) == 0)
				{
					if (F4G_Params.play)
 8011e5c:	4b36      	ldr	r3, [pc, #216]	; (8011f38 <USART2_IRQHandler+0x310>)
 8011e5e:	f893 3020 	ldrb.w	r3, [r3, #32]
 8011e62:	b2db      	uxtb	r3, r3
 8011e64:	2b00      	cmp	r3, #0
 8011e66:	f000 810d 	beq.w	8012084 <USART2_IRQHandler+0x45c>
					{
						play_audio(2);
 8011e6a:	2002      	movs	r0, #2
 8011e6c:	f7ff fbe0 	bl	8011630 <play_audio>
 8011e70:	e108      	b.n	8012084 <USART2_IRQHandler+0x45c>
					}
				}
				//归还成功
				else if (memcmp(F4G_Fram_Record_Struct.Server_Command[1], "38",
 8011e72:	4b2f      	ldr	r3, [pc, #188]	; (8011f30 <USART2_IRQHandler+0x308>)
 8011e74:	f8d3 3a08 	ldr.w	r3, [r3, #2568]	; 0xa08
 8011e78:	2202      	movs	r2, #2
 8011e7a:	493d      	ldr	r1, [pc, #244]	; (8011f70 <USART2_IRQHandler+0x348>)
 8011e7c:	4618      	mov	r0, r3
 8011e7e:	f004 fae7 	bl	8016450 <memcmp>
 8011e82:	4603      	mov	r3, r0
 8011e84:	2b00      	cmp	r3, #0
 8011e86:	d10a      	bne.n	8011e9e <USART2_IRQHandler+0x276>
						2) == 0)
				{
					if (F4G_Params.play)
 8011e88:	4b2b      	ldr	r3, [pc, #172]	; (8011f38 <USART2_IRQHandler+0x310>)
 8011e8a:	f893 3020 	ldrb.w	r3, [r3, #32]
 8011e8e:	b2db      	uxtb	r3, r3
 8011e90:	2b00      	cmp	r3, #0
 8011e92:	f000 80f7 	beq.w	8012084 <USART2_IRQHandler+0x45c>
					{
						play_audio(3); //归还成功
 8011e96:	2003      	movs	r0, #3
 8011e98:	f7ff fbca 	bl	8011630 <play_audio>
 8011e9c:	e0f2      	b.n	8012084 <USART2_IRQHandler+0x45c>
					}
				}
				else if (memcmp(F4G_Fram_Record_Struct.Server_Command[1], "71",
 8011e9e:	4b24      	ldr	r3, [pc, #144]	; (8011f30 <USART2_IRQHandler+0x308>)
 8011ea0:	f8d3 3a08 	ldr.w	r3, [r3, #2568]	; 0xa08
 8011ea4:	2202      	movs	r2, #2
 8011ea6:	4933      	ldr	r1, [pc, #204]	; (8011f74 <USART2_IRQHandler+0x34c>)
 8011ea8:	4618      	mov	r0, r3
 8011eaa:	f004 fad1 	bl	8016450 <memcmp>
 8011eae:	4603      	mov	r3, r0
 8011eb0:	2b00      	cmp	r3, #0
 8011eb2:	d114      	bne.n	8011ede <USART2_IRQHandler+0x2b6>
						2) == 0)
				{
					if (atoi(F4G_Fram_Record_Struct.ServerData) == 1)
 8011eb4:	482a      	ldr	r0, [pc, #168]	; (8011f60 <USART2_IRQHandler+0x338>)
 8011eb6:	f004 fa89 	bl	80163cc <atoi>
 8011eba:	4603      	mov	r3, r0
 8011ebc:	2b01      	cmp	r3, #1
 8011ebe:	d103      	bne.n	8011ec8 <USART2_IRQHandler+0x2a0>
					{
						play_audio(2); //租借成功
 8011ec0:	2002      	movs	r0, #2
 8011ec2:	f7ff fbb5 	bl	8011630 <play_audio>
 8011ec6:	e0dd      	b.n	8012084 <USART2_IRQHandler+0x45c>
					}
					else if (atoi(F4G_Fram_Record_Struct.ServerData) == 2)
 8011ec8:	4825      	ldr	r0, [pc, #148]	; (8011f60 <USART2_IRQHandler+0x338>)
 8011eca:	f004 fa7f 	bl	80163cc <atoi>
 8011ece:	4603      	mov	r3, r0
 8011ed0:	2b02      	cmp	r3, #2
 8011ed2:	f040 80d7 	bne.w	8012084 <USART2_IRQHandler+0x45c>
					{
						play_audio(3); //归还成功
 8011ed6:	2003      	movs	r0, #3
 8011ed8:	f7ff fbaa 	bl	8011630 <play_audio>
 8011edc:	e0d2      	b.n	8012084 <USART2_IRQHandler+0x45c>
					}
				}
				//强制心跳
				else if (memcmp(F4G_Fram_Record_Struct.Server_Command[1], "92",
 8011ede:	4b14      	ldr	r3, [pc, #80]	; (8011f30 <USART2_IRQHandler+0x308>)
 8011ee0:	f8d3 3a08 	ldr.w	r3, [r3, #2568]	; 0xa08
 8011ee4:	2202      	movs	r2, #2
 8011ee6:	4924      	ldr	r1, [pc, #144]	; (8011f78 <USART2_IRQHandler+0x350>)
 8011ee8:	4618      	mov	r0, r3
 8011eea:	f004 fab1 	bl	8016450 <memcmp>
 8011eee:	4603      	mov	r3, r0
 8011ef0:	2b00      	cmp	r3, #0
 8011ef2:	d109      	bne.n	8011f08 <USART2_IRQHandler+0x2e0>
						2) == 0)
				{
					strcpy(F4G_Params.htCMD, "93");
 8011ef4:	4b21      	ldr	r3, [pc, #132]	; (8011f7c <USART2_IRQHandler+0x354>)
 8011ef6:	4a22      	ldr	r2, [pc, #136]	; (8011f80 <USART2_IRQHandler+0x358>)
 8011ef8:	8811      	ldrh	r1, [r2, #0]
 8011efa:	7892      	ldrb	r2, [r2, #2]
 8011efc:	8019      	strh	r1, [r3, #0]
 8011efe:	709a      	strb	r2, [r3, #2]
					F4G_Params.reqSTheart = 1;
 8011f00:	4b0d      	ldr	r3, [pc, #52]	; (8011f38 <USART2_IRQHandler+0x310>)
 8011f02:	2201      	movs	r2, #1
 8011f04:	705a      	strb	r2, [r3, #1]
 8011f06:	e0bd      	b.n	8012084 <USART2_IRQHandler+0x45c>
				}
				//重启设备
				else if (memcmp(F4G_Fram_Record_Struct.Server_Command[1], "60",
 8011f08:	4b09      	ldr	r3, [pc, #36]	; (8011f30 <USART2_IRQHandler+0x308>)
 8011f0a:	f8d3 3a08 	ldr.w	r3, [r3, #2568]	; 0xa08
 8011f0e:	2202      	movs	r2, #2
 8011f10:	491c      	ldr	r1, [pc, #112]	; (8011f84 <USART2_IRQHandler+0x35c>)
 8011f12:	4618      	mov	r0, r3
 8011f14:	f004 fa9c 	bl	8016450 <memcmp>
 8011f18:	4603      	mov	r3, r0
 8011f1a:	2b00      	cmp	r3, #0
 8011f1c:	d136      	bne.n	8011f8c <USART2_IRQHandler+0x364>
						2) == 0)
				{
					response2reset("61");
 8011f1e:	481a      	ldr	r0, [pc, #104]	; (8011f88 <USART2_IRQHandler+0x360>)
 8011f20:	f000 fc02 	bl	8012728 <response2reset>
					NVIC_SystemReset();
 8011f24:	f7ff fd2a 	bl	801197c <NVIC_SystemReset>
 8011f28:	e0ac      	b.n	8012084 <USART2_IRQHandler+0x45c>
 8011f2a:	bf00      	nop
 8011f2c:	40004400 	.word	0x40004400
 8011f30:	200006e4 	.word	0x200006e4
 8011f34:	0801b50c 	.word	0x0801b50c
 8011f38:	20001128 	.word	0x20001128
 8011f3c:	0801b520 	.word	0x0801b520
 8011f40:	20000ae4 	.word	0x20000ae4
 8011f44:	0801b524 	.word	0x0801b524
 8011f48:	0801b4f0 	.word	0x0801b4f0
 8011f4c:	0801b53c 	.word	0x0801b53c
 8011f50:	0801b540 	.word	0x0801b540
 8011f54:	0801b544 	.word	0x0801b544
 8011f58:	0801b548 	.word	0x0801b548
 8011f5c:	0801b54c 	.word	0x0801b54c
 8011f60:	20000ee8 	.word	0x20000ee8
 8011f64:	2000112c 	.word	0x2000112c
 8011f68:	0801b550 	.word	0x0801b550
 8011f6c:	0801b554 	.word	0x0801b554
 8011f70:	0801b558 	.word	0x0801b558
 8011f74:	0801b55c 	.word	0x0801b55c
 8011f78:	0801b560 	.word	0x0801b560
 8011f7c:	20001155 	.word	0x20001155
 8011f80:	0801b564 	.word	0x0801b564
 8011f84:	0801b568 	.word	0x0801b568
 8011f88:	0801b56c 	.word	0x0801b56c
				}
				//订单弹出充电宝
				else if (memcmp(F4G_Fram_Record_Struct.Server_Command[1], "40",
 8011f8c:	4b46      	ldr	r3, [pc, #280]	; (80120a8 <USART2_IRQHandler+0x480>)
 8011f8e:	f8d3 3a08 	ldr.w	r3, [r3, #2568]	; 0xa08
 8011f92:	2202      	movs	r2, #2
 8011f94:	4945      	ldr	r1, [pc, #276]	; (80120ac <USART2_IRQHandler+0x484>)
 8011f96:	4618      	mov	r0, r3
 8011f98:	f004 fa5a 	bl	8016450 <memcmp>
 8011f9c:	4603      	mov	r3, r0
 8011f9e:	2b00      	cmp	r3, #0
 8011fa0:	d12c      	bne.n	8011ffc <USART2_IRQHandler+0x3d4>
						2) == 0)
				{
					//弹出充电宝
					char *temp = strtok(F4G_Fram_Record_Struct.ServerData, "-");
 8011fa2:	4943      	ldr	r1, [pc, #268]	; (80120b0 <USART2_IRQHandler+0x488>)
 8011fa4:	4843      	ldr	r0, [pc, #268]	; (80120b4 <USART2_IRQHandler+0x48c>)
 8011fa6:	f004 fbc9 	bl	801673c <strtok>
 8011faa:	60b8      	str	r0, [r7, #8]

					F4G_Params.port = atoi(temp);
 8011fac:	68b8      	ldr	r0, [r7, #8]
 8011fae:	f004 fa0d 	bl	80163cc <atoi>
 8011fb2:	4602      	mov	r2, r0
 8011fb4:	4b40      	ldr	r3, [pc, #256]	; (80120b8 <USART2_IRQHandler+0x490>)
 8011fb6:	609a      	str	r2, [r3, #8]
					temp = strtok(NULL, "-");
 8011fb8:	493d      	ldr	r1, [pc, #244]	; (80120b0 <USART2_IRQHandler+0x488>)
 8011fba:	2000      	movs	r0, #0
 8011fbc:	f004 fbbe 	bl	801673c <strtok>
 8011fc0:	60b8      	str	r0, [r7, #8]
					strcpy(F4G_Params.dd, temp);
 8011fc2:	68b9      	ldr	r1, [r7, #8]
 8011fc4:	483d      	ldr	r0, [pc, #244]	; (80120bc <USART2_IRQHandler+0x494>)
 8011fc6:	f004 fb5a 	bl	801667e <strcpy>
					temp = strtok(NULL, "-");
 8011fca:	4939      	ldr	r1, [pc, #228]	; (80120b0 <USART2_IRQHandler+0x488>)
 8011fcc:	2000      	movs	r0, #0
 8011fce:	f004 fbb5 	bl	801673c <strtok>
 8011fd2:	60b8      	str	r0, [r7, #8]
					F4G_Params.play = (u8) atoi(temp);
 8011fd4:	68b8      	ldr	r0, [r7, #8]
 8011fd6:	f004 f9f9 	bl	80163cc <atoi>
 8011fda:	4603      	mov	r3, r0
 8011fdc:	b2da      	uxtb	r2, r3
 8011fde:	4b36      	ldr	r3, [pc, #216]	; (80120b8 <USART2_IRQHandler+0x490>)
 8011fe0:	f883 2020 	strb.w	r2, [r3, #32]
					strcpy(F4G_Params.cmd, "41");
 8011fe4:	4b36      	ldr	r3, [pc, #216]	; (80120c0 <USART2_IRQHandler+0x498>)
 8011fe6:	4a37      	ldr	r2, [pc, #220]	; (80120c4 <USART2_IRQHandler+0x49c>)
 8011fe8:	6812      	ldr	r2, [r2, #0]
 8011fea:	4611      	mov	r1, r2
 8011fec:	8019      	strh	r1, [r3, #0]
 8011fee:	3302      	adds	r3, #2
 8011ff0:	0c12      	lsrs	r2, r2, #16
 8011ff2:	701a      	strb	r2, [r3, #0]

					F4G_Params.ddTC = 1;
 8011ff4:	4b30      	ldr	r3, [pc, #192]	; (80120b8 <USART2_IRQHandler+0x490>)
 8011ff6:	2201      	movs	r2, #1
 8011ff8:	70da      	strb	r2, [r3, #3]
 8011ffa:	e043      	b.n	8012084 <USART2_IRQHandler+0x45c>
					//					popUP_powerBank(F4G_Params.port + 1, 1);
					//					dd_tc(F4G_Params.port, "41");

				}
				else if (memcmp(F4G_Fram_Record_Struct.Server_Command[1], "42",
 8011ffc:	4b2a      	ldr	r3, [pc, #168]	; (80120a8 <USART2_IRQHandler+0x480>)
 8011ffe:	f8d3 3a08 	ldr.w	r3, [r3, #2568]	; 0xa08
 8012002:	2202      	movs	r2, #2
 8012004:	4930      	ldr	r1, [pc, #192]	; (80120c8 <USART2_IRQHandler+0x4a0>)
 8012006:	4618      	mov	r0, r3
 8012008:	f004 fa22 	bl	8016450 <memcmp>
 801200c:	4603      	mov	r3, r0
 801200e:	2b00      	cmp	r3, #0
 8012010:	d103      	bne.n	801201a <USART2_IRQHandler+0x3f2>
						2) == 0)
				{
					play_audio(2);
 8012012:	2002      	movs	r0, #2
 8012014:	f7ff fb0c 	bl	8011630 <play_audio>
 8012018:	e034      	b.n	8012084 <USART2_IRQHandler+0x45c>
//						2) == 0)
//				{
//					//给充电宝设置ID
//
//				}
				else if (memcmp(F4G_Fram_Record_Struct.Server_Command[1], "99",
 801201a:	4b23      	ldr	r3, [pc, #140]	; (80120a8 <USART2_IRQHandler+0x480>)
 801201c:	f8d3 3a08 	ldr.w	r3, [r3, #2568]	; 0xa08
 8012020:	2202      	movs	r2, #2
 8012022:	492a      	ldr	r1, [pc, #168]	; (80120cc <USART2_IRQHandler+0x4a4>)
 8012024:	4618      	mov	r0, r3
 8012026:	f004 fa13 	bl	8016450 <memcmp>
 801202a:	4603      	mov	r3, r0
 801202c:	2b00      	cmp	r3, #0
 801202e:	d104      	bne.n	801203a <USART2_IRQHandler+0x412>
						2) == 0)
				{
					//弹出所有充电宝
					F4G_Params.popAll = 1;
 8012030:	4b21      	ldr	r3, [pc, #132]	; (80120b8 <USART2_IRQHandler+0x490>)
 8012032:	2201      	movs	r2, #1
 8012034:	f883 2033 	strb.w	r2, [r3, #51]	; 0x33
 8012038:	e024      	b.n	8012084 <USART2_IRQHandler+0x45c>
					//popUP_All();
				}
				else if (memcmp(F4G_Fram_Record_Struct.Server_Command[1], "77",
 801203a:	4b1b      	ldr	r3, [pc, #108]	; (80120a8 <USART2_IRQHandler+0x480>)
 801203c:	f8d3 3a08 	ldr.w	r3, [r3, #2568]	; 0xa08
 8012040:	2202      	movs	r2, #2
 8012042:	4923      	ldr	r1, [pc, #140]	; (80120d0 <USART2_IRQHandler+0x4a8>)
 8012044:	4618      	mov	r0, r3
 8012046:	f004 fa03 	bl	8016450 <memcmp>
 801204a:	4603      	mov	r3, r0
 801204c:	2b00      	cmp	r3, #0
 801204e:	d119      	bne.n	8012084 <USART2_IRQHandler+0x45c>
						2) == 0)
				{
					//修改忽略某卡口锁异常状态
					//接口参数：卡口_状态（1表示写死，0表示正常读取
					//弹出充电宝
					char *tem = strtok(F4G_Fram_Record_Struct.ServerData, "-");
 8012050:	4917      	ldr	r1, [pc, #92]	; (80120b0 <USART2_IRQHandler+0x488>)
 8012052:	4818      	ldr	r0, [pc, #96]	; (80120b4 <USART2_IRQHandler+0x48c>)
 8012054:	f004 fb72 	bl	801673c <strtok>
 8012058:	6078      	str	r0, [r7, #4]
					u8 kk = atoi(tem);
 801205a:	6878      	ldr	r0, [r7, #4]
 801205c:	f004 f9b6 	bl	80163cc <atoi>
 8012060:	4603      	mov	r3, r0
 8012062:	70fb      	strb	r3, [r7, #3]
					tem = strtok(NULL, "-");
 8012064:	4912      	ldr	r1, [pc, #72]	; (80120b0 <USART2_IRQHandler+0x488>)
 8012066:	2000      	movs	r0, #0
 8012068:	f004 fb68 	bl	801673c <strtok>
 801206c:	6078      	str	r0, [r7, #4]
					u8 ksta = atoi(tem);
 801206e:	6878      	ldr	r0, [r7, #4]
 8012070:	f004 f9ac 	bl	80163cc <atoi>
 8012074:	4603      	mov	r3, r0
 8012076:	70bb      	strb	r3, [r7, #2]
					WriteIgnoreLock(kk, ksta);
 8012078:	78ba      	ldrb	r2, [r7, #2]
 801207a:	78fb      	ldrb	r3, [r7, #3]
 801207c:	4611      	mov	r1, r2
 801207e:	4618      	mov	r0, r3
 8012080:	f7ff fc24 	bl	80118cc <WriteIgnoreLock>
				}
			}
		}
	}
	if (USART_GetFlagStatus(USART2, USART_FLAG_ORE) != RESET)
 8012084:	2108      	movs	r1, #8
 8012086:	4813      	ldr	r0, [pc, #76]	; (80120d4 <USART2_IRQHandler+0x4ac>)
 8012088:	f003 f984 	bl	8015394 <USART_GetFlagStatus>
 801208c:	4603      	mov	r3, r0
 801208e:	2b00      	cmp	r3, #0
 8012090:	d006      	beq.n	80120a0 <USART2_IRQHandler+0x478>
	{
		USART_ClearFlag(USART2, USART_FLAG_ORE);
 8012092:	2108      	movs	r1, #8
 8012094:	480f      	ldr	r0, [pc, #60]	; (80120d4 <USART2_IRQHandler+0x4ac>)
 8012096:	f003 f998 	bl	80153ca <USART_ClearFlag>
		USART_ReceiveData(USART2);
 801209a:	480e      	ldr	r0, [pc, #56]	; (80120d4 <USART2_IRQHandler+0x4ac>)
 801209c:	f003 f96b 	bl	8015376 <USART_ReceiveData>
//		F4G_Params.linkedClosed =
//				strstr(F4G_Fram_Record_Struct.Data_RX_BUF, "CLOSED\r\n") ?
//						1 : 0;
//	}
//	USART_ClearFlag(USART2, USART_FLAG_TC);
}
 80120a0:	bf00      	nop
 80120a2:	3718      	adds	r7, #24
 80120a4:	46bd      	mov	sp, r7
 80120a6:	bd80      	pop	{r7, pc}
 80120a8:	200006e4 	.word	0x200006e4
 80120ac:	0801b570 	.word	0x0801b570
 80120b0:	0801b54c 	.word	0x0801b54c
 80120b4:	20000ee8 	.word	0x20000ee8
 80120b8:	20001128 	.word	0x20001128
 80120bc:	20001134 	.word	0x20001134
 80120c0:	2000112c 	.word	0x2000112c
 80120c4:	0801b574 	.word	0x0801b574
 80120c8:	0801b578 	.word	0x0801b578
 80120cc:	0801b57c 	.word	0x0801b57c
 80120d0:	0801b580 	.word	0x0801b580
 80120d4:	40004400 	.word	0x40004400

080120d8 <split>:
 * 将str通过delims进行分割,所得的字符串填充在res中
 * @str 待转换的数据字符串
 * @delims 分隔符
 */
void split(char str[], char *delims)
{
 80120d8:	b580      	push	{r7, lr}
 80120da:	b084      	sub	sp, #16
 80120dc:	af00      	add	r7, sp, #0
 80120de:	6078      	str	r0, [r7, #4]
 80120e0:	6039      	str	r1, [r7, #0]
	char *result = str;
 80120e2:	687b      	ldr	r3, [r7, #4]
 80120e4:	60fb      	str	r3, [r7, #12]
	u8 inx = 0;
 80120e6:	2300      	movs	r3, #0
 80120e8:	72fb      	strb	r3, [r7, #11]
	while (inx < 2)
 80120ea:	e009      	b.n	8012100 <split+0x28>
	{
		result++;
 80120ec:	68fb      	ldr	r3, [r7, #12]
 80120ee:	3301      	adds	r3, #1
 80120f0:	60fb      	str	r3, [r7, #12]
		if (*result == ',')
 80120f2:	68fb      	ldr	r3, [r7, #12]
 80120f4:	781b      	ldrb	r3, [r3, #0]
 80120f6:	2b2c      	cmp	r3, #44	; 0x2c
 80120f8:	d102      	bne.n	8012100 <split+0x28>
		{
			++inx;
 80120fa:	7afb      	ldrb	r3, [r7, #11]
 80120fc:	3301      	adds	r3, #1
 80120fe:	72fb      	strb	r3, [r7, #11]
	while (inx < 2)
 8012100:	7afb      	ldrb	r3, [r7, #11]
 8012102:	2b01      	cmp	r3, #1
 8012104:	d9f2      	bls.n	80120ec <split+0x14>
		}
	}
	result++;
 8012106:	68fb      	ldr	r3, [r7, #12]
 8012108:	3301      	adds	r3, #1
 801210a:	60fb      	str	r3, [r7, #12]
	memcpy(F4G_Fram_Record_Struct.ServerData, result, BASE64_BUF_LEN);
 801210c:	4b0f      	ldr	r3, [pc, #60]	; (801214c <split+0x74>)
 801210e:	68fa      	ldr	r2, [r7, #12]
 8012110:	f603 0304 	addw	r3, r3, #2052	; 0x804
 8012114:	4611      	mov	r1, r2
 8012116:	f44f 7200 	mov.w	r2, #512	; 0x200
 801211a:	4618      	mov	r0, r3
 801211c:	f004 f9a7 	bl	801646e <memcpy>
//printf("comd2=%s\r\n", F4G_Fram_Record_Struct.ServerData);
	result = strtok(str, delims);
 8012120:	6839      	ldr	r1, [r7, #0]
 8012122:	6878      	ldr	r0, [r7, #4]
 8012124:	f004 fb0a 	bl	801673c <strtok>
 8012128:	60f8      	str	r0, [r7, #12]
	F4G_Fram_Record_Struct.Server_Command[0] = result;
 801212a:	4a08      	ldr	r2, [pc, #32]	; (801214c <split+0x74>)
 801212c:	68fb      	ldr	r3, [r7, #12]
 801212e:	f8c2 3a04 	str.w	r3, [r2, #2564]	; 0xa04
	result = strtok( NULL, delims);
 8012132:	6839      	ldr	r1, [r7, #0]
 8012134:	2000      	movs	r0, #0
 8012136:	f004 fb01 	bl	801673c <strtok>
 801213a:	60f8      	str	r0, [r7, #12]
	F4G_Fram_Record_Struct.Server_Command[1] = result;
 801213c:	4a03      	ldr	r2, [pc, #12]	; (801214c <split+0x74>)
 801213e:	68fb      	ldr	r3, [r7, #12]
 8012140:	f8c2 3a08 	str.w	r3, [r2, #2568]	; 0xa08
}
 8012144:	bf00      	nop
 8012146:	3710      	adds	r7, #16
 8012148:	46bd      	mov	sp, r7
 801214a:	bd80      	pop	{r7, pc}
 801214c:	200006e4 	.word	0x200006e4

08012150 <Send_AT_Cmd>:
 * @ack1 @ack2：期待的响应，为NULL表不需响应，两者为或逻辑关系
 * @time：等待响应的时间
 * @return 1：发送成功 0：失败
 */
bool Send_AT_Cmd(char *cmd, char *ack1, char *ack2, u32 time)
{
 8012150:	b580      	push	{r7, lr}
 8012152:	b084      	sub	sp, #16
 8012154:	af00      	add	r7, sp, #0
 8012156:	60f8      	str	r0, [r7, #12]
 8012158:	60b9      	str	r1, [r7, #8]
 801215a:	607a      	str	r2, [r7, #4]
 801215c:	603b      	str	r3, [r7, #0]
	F4G_Fram_Record_Struct.InfAll = 0; //重新开始接收数据包
 801215e:	4b2d      	ldr	r3, [pc, #180]	; (8012214 <Send_AT_Cmd+0xc4>)
 8012160:	2200      	movs	r2, #0
 8012162:	f8a3 2a42 	strh.w	r2, [r3, #2626]	; 0xa42
	F4G_USART("%s\r\n", cmd);
 8012166:	68fa      	ldr	r2, [r7, #12]
 8012168:	492b      	ldr	r1, [pc, #172]	; (8012218 <Send_AT_Cmd+0xc8>)
 801216a:	482c      	ldr	r0, [pc, #176]	; (801221c <Send_AT_Cmd+0xcc>)
 801216c:	f001 ff70 	bl	8014050 <Wifi_USART_printf>
	if (ack1 == 0 && ack2 == 0)	 //不需要接收数据
 8012170:	68bb      	ldr	r3, [r7, #8]
 8012172:	2b00      	cmp	r3, #0
 8012174:	d104      	bne.n	8012180 <Send_AT_Cmd+0x30>
 8012176:	687b      	ldr	r3, [r7, #4]
 8012178:	2b00      	cmp	r3, #0
 801217a:	d101      	bne.n	8012180 <Send_AT_Cmd+0x30>
	{
		return true;
 801217c:	2301      	movs	r3, #1
 801217e:	e045      	b.n	801220c <Send_AT_Cmd+0xbc>
	}
	delay_ms(time);	  //延时time时间
 8012180:	683b      	ldr	r3, [r7, #0]
 8012182:	b29b      	uxth	r3, r3
 8012184:	4618      	mov	r0, r3
 8012186:	f003 f9fd 	bl	8015584 <delay_ms>

	F4G_Fram_Record_Struct.Data_RX_BUF[F4G_Fram_Record_Struct.InfBit.FramLength] =
 801218a:	4b22      	ldr	r3, [pc, #136]	; (8012214 <Send_AT_Cmd+0xc4>)
 801218c:	f8b3 3a42 	ldrh.w	r3, [r3, #2626]	; 0xa42
 8012190:	f3c3 030e 	ubfx	r3, r3, #0, #15
 8012194:	b29b      	uxth	r3, r3
 8012196:	461a      	mov	r2, r3
 8012198:	4b1e      	ldr	r3, [pc, #120]	; (8012214 <Send_AT_Cmd+0xc4>)
 801219a:	2100      	movs	r1, #0
 801219c:	5499      	strb	r1, [r3, r2]
			'\0';

	PC_USART("%s", F4G_Fram_Record_Struct.Data_RX_BUF);
 801219e:	491d      	ldr	r1, [pc, #116]	; (8012214 <Send_AT_Cmd+0xc4>)
 80121a0:	481f      	ldr	r0, [pc, #124]	; (8012220 <Send_AT_Cmd+0xd0>)
 80121a2:	f004 f977 	bl	8016494 <printf>

	if (ack1 != 0 && ack2 != 0)
 80121a6:	68bb      	ldr	r3, [r7, #8]
 80121a8:	2b00      	cmp	r3, #0
 80121aa:	d017      	beq.n	80121dc <Send_AT_Cmd+0x8c>
 80121ac:	687b      	ldr	r3, [r7, #4]
 80121ae:	2b00      	cmp	r3, #0
 80121b0:	d014      	beq.n	80121dc <Send_AT_Cmd+0x8c>
	{
		return ((bool) strstr(F4G_Fram_Record_Struct.Data_RX_BUF, ack1)
 80121b2:	68b9      	ldr	r1, [r7, #8]
 80121b4:	4817      	ldr	r0, [pc, #92]	; (8012214 <Send_AT_Cmd+0xc4>)
 80121b6:	f004 faa5 	bl	8016704 <strstr>
 80121ba:	4603      	mov	r3, r0
				|| (bool) strstr(F4G_Fram_Record_Struct.Data_RX_BUF, ack2));
 80121bc:	2b00      	cmp	r3, #0
 80121be:	d106      	bne.n	80121ce <Send_AT_Cmd+0x7e>
 80121c0:	6879      	ldr	r1, [r7, #4]
 80121c2:	4814      	ldr	r0, [pc, #80]	; (8012214 <Send_AT_Cmd+0xc4>)
 80121c4:	f004 fa9e 	bl	8016704 <strstr>
 80121c8:	4603      	mov	r3, r0
 80121ca:	2b00      	cmp	r3, #0
 80121cc:	d001      	beq.n	80121d2 <Send_AT_Cmd+0x82>
 80121ce:	2301      	movs	r3, #1
 80121d0:	e000      	b.n	80121d4 <Send_AT_Cmd+0x84>
 80121d2:	2300      	movs	r3, #0
 80121d4:	f003 0301 	and.w	r3, r3, #1
 80121d8:	b2db      	uxtb	r3, r3
 80121da:	e017      	b.n	801220c <Send_AT_Cmd+0xbc>
	}
	else if (ack1 != 0)
 80121dc:	68bb      	ldr	r3, [r7, #8]
 80121de:	2b00      	cmp	r3, #0
 80121e0:	d00a      	beq.n	80121f8 <Send_AT_Cmd+0xa8>
		return ((bool) strstr(F4G_Fram_Record_Struct.Data_RX_BUF, ack1));
 80121e2:	68b9      	ldr	r1, [r7, #8]
 80121e4:	480b      	ldr	r0, [pc, #44]	; (8012214 <Send_AT_Cmd+0xc4>)
 80121e6:	f004 fa8d 	bl	8016704 <strstr>
 80121ea:	4603      	mov	r3, r0
 80121ec:	2b00      	cmp	r3, #0
 80121ee:	bf14      	ite	ne
 80121f0:	2301      	movne	r3, #1
 80121f2:	2300      	moveq	r3, #0
 80121f4:	b2db      	uxtb	r3, r3
 80121f6:	e009      	b.n	801220c <Send_AT_Cmd+0xbc>

	else
		return ((bool) strstr(F4G_Fram_Record_Struct.Data_RX_BUF, ack2));
 80121f8:	6879      	ldr	r1, [r7, #4]
 80121fa:	4806      	ldr	r0, [pc, #24]	; (8012214 <Send_AT_Cmd+0xc4>)
 80121fc:	f004 fa82 	bl	8016704 <strstr>
 8012200:	4603      	mov	r3, r0
 8012202:	2b00      	cmp	r3, #0
 8012204:	bf14      	ite	ne
 8012206:	2301      	movne	r3, #1
 8012208:	2300      	moveq	r3, #0
 801220a:	b2db      	uxtb	r3, r3

}
 801220c:	4618      	mov	r0, r3
 801220e:	3710      	adds	r7, #16
 8012210:	46bd      	mov	sp, r7
 8012212:	bd80      	pop	{r7, pc}
 8012214:	200006e4 	.word	0x200006e4
 8012218:	0801b584 	.word	0x0801b584
 801221c:	40004400 	.word	0x40004400
 8012220:	0801b58c 	.word	0x0801b58c

08012224 <F4G_AT_Test>:
/**
 * 测试4G模块是否正常(支持AT指令)
 */
u8 F4G_AT_Test(void)
{
 8012224:	b580      	push	{r7, lr}
 8012226:	b082      	sub	sp, #8
 8012228:	af00      	add	r7, sp, #0
	char count = 0;
 801222a:	2300      	movs	r3, #0
 801222c:	71fb      	strb	r3, [r7, #7]
	while (count < 8)
 801222e:	e009      	b.n	8012244 <F4G_AT_Test+0x20>
	{
		Send_AT_Cmd("AT", "OK", NULL, 500);
 8012230:	f44f 73fa 	mov.w	r3, #500	; 0x1f4
 8012234:	2200      	movs	r2, #0
 8012236:	4910      	ldr	r1, [pc, #64]	; (8012278 <F4G_AT_Test+0x54>)
 8012238:	4810      	ldr	r0, [pc, #64]	; (801227c <F4G_AT_Test+0x58>)
 801223a:	f7ff ff89 	bl	8012150 <Send_AT_Cmd>
		++count;
 801223e:	79fb      	ldrb	r3, [r7, #7]
 8012240:	3301      	adds	r3, #1
 8012242:	71fb      	strb	r3, [r7, #7]
	while (count < 8)
 8012244:	79fb      	ldrb	r3, [r7, #7]
 8012246:	2b07      	cmp	r3, #7
 8012248:	d9f2      	bls.n	8012230 <F4G_AT_Test+0xc>
	}
	if (Send_AT_Cmd("AT", "OK", NULL, 500))
 801224a:	f44f 73fa 	mov.w	r3, #500	; 0x1f4
 801224e:	2200      	movs	r2, #0
 8012250:	4909      	ldr	r1, [pc, #36]	; (8012278 <F4G_AT_Test+0x54>)
 8012252:	480a      	ldr	r0, [pc, #40]	; (801227c <F4G_AT_Test+0x58>)
 8012254:	f7ff ff7c 	bl	8012150 <Send_AT_Cmd>
 8012258:	4603      	mov	r3, r0
 801225a:	2b00      	cmp	r3, #0
 801225c:	d004      	beq.n	8012268 <F4G_AT_Test+0x44>
	{
		printf("test 4G module success!\r\n");
 801225e:	4808      	ldr	r0, [pc, #32]	; (8012280 <F4G_AT_Test+0x5c>)
 8012260:	f004 f990 	bl	8016584 <puts>
		return 1;
 8012264:	2301      	movs	r3, #1
 8012266:	e003      	b.n	8012270 <F4G_AT_Test+0x4c>
	}
	printf("test 4G module fail!\r\n");
 8012268:	4806      	ldr	r0, [pc, #24]	; (8012284 <F4G_AT_Test+0x60>)
 801226a:	f004 f98b 	bl	8016584 <puts>
	return 0;
 801226e:	2300      	movs	r3, #0
}
 8012270:	4618      	mov	r0, r3
 8012272:	3708      	adds	r7, #8
 8012274:	46bd      	mov	sp, r7
 8012276:	bd80      	pop	{r7, pc}
 8012278:	0801b4d0 	.word	0x0801b4d0
 801227c:	0801b590 	.word	0x0801b590
 8012280:	0801b594 	.word	0x0801b594
 8012284:	0801b5b0 	.word	0x0801b5b0

08012288 <connectToTCPServer>:
 * @IP 服务器ip地址
 * @PORT 服务器开放的端口
 * @return 1--连接成功  0--连接失败
 */
bool connectToTCPServer(char *IP, char * PORT)
{
 8012288:	b580      	push	{r7, lr}
 801228a:	b09c      	sub	sp, #112	; 0x70
 801228c:	af00      	add	r7, sp, #0
 801228e:	6078      	str	r0, [r7, #4]
 8012290:	6039      	str	r1, [r7, #0]
	char gCmd[100] =
 8012292:	f107 030c 	add.w	r3, r7, #12
 8012296:	2264      	movs	r2, #100	; 0x64
 8012298:	2100      	movs	r1, #0
 801229a:	4618      	mov	r0, r3
 801229c:	f004 f8f2 	bl	8016484 <memset>
	{ 0 };
//1.设置模式为TCP透传模式
	Send_AT_Cmd("AT+CIPMODE=1", "OK", NULL, 500);
 80122a0:	f44f 73fa 	mov.w	r3, #500	; 0x1f4
 80122a4:	2200      	movs	r2, #0
 80122a6:	490c      	ldr	r1, [pc, #48]	; (80122d8 <connectToTCPServer+0x50>)
 80122a8:	480c      	ldr	r0, [pc, #48]	; (80122dc <connectToTCPServer+0x54>)
 80122aa:	f7ff ff51 	bl	8012150 <Send_AT_Cmd>
	sprintf(gCmd, "AT+CIPSTART=\"TCP\",\"%s\",%s", IP, PORT);
 80122ae:	f107 000c 	add.w	r0, r7, #12
 80122b2:	683b      	ldr	r3, [r7, #0]
 80122b4:	687a      	ldr	r2, [r7, #4]
 80122b6:	490a      	ldr	r1, [pc, #40]	; (80122e0 <connectToTCPServer+0x58>)
 80122b8:	f004 f9a0 	bl	80165fc <sprintf>
	return Send_AT_Cmd(gCmd, "OK", NULL, 1800);
 80122bc:	f107 000c 	add.w	r0, r7, #12
 80122c0:	f44f 63e1 	mov.w	r3, #1800	; 0x708
 80122c4:	2200      	movs	r2, #0
 80122c6:	4904      	ldr	r1, [pc, #16]	; (80122d8 <connectToTCPServer+0x50>)
 80122c8:	f7ff ff42 	bl	8012150 <Send_AT_Cmd>
 80122cc:	4603      	mov	r3, r0
}
 80122ce:	4618      	mov	r0, r3
 80122d0:	3770      	adds	r7, #112	; 0x70
 80122d2:	46bd      	mov	sp, r7
 80122d4:	bd80      	pop	{r7, pc}
 80122d6:	bf00      	nop
 80122d8:	0801b4d0 	.word	0x0801b4d0
 80122dc:	0801b5c8 	.word	0x0801b5c8
 80122e0:	0801b5d8 	.word	0x0801b5d8

080122e4 <F4G_sendStr>:

/**
 * 透传模式下4G模块发送字符串
 */
void F4G_sendStr(char *str)
{
 80122e4:	b580      	push	{r7, lr}
 80122e6:	f5ad 7d04 	sub.w	sp, sp, #528	; 0x210
 80122ea:	af00      	add	r7, sp, #0
 80122ec:	1d3b      	adds	r3, r7, #4
 80122ee:	6018      	str	r0, [r3, #0]
	u8 i = 0;
 80122f0:	2300      	movs	r3, #0
 80122f2:	f887 320f 	strb.w	r3, [r7, #527]	; 0x20f
	char cmd[512] = "{(";
 80122f6:	f107 030c 	add.w	r3, r7, #12
 80122fa:	f642 027b 	movw	r2, #10363	; 0x287b
 80122fe:	601a      	str	r2, [r3, #0]
 8012300:	3304      	adds	r3, #4
 8012302:	f44f 72fe 	mov.w	r2, #508	; 0x1fc
 8012306:	2100      	movs	r1, #0
 8012308:	4618      	mov	r0, r3
 801230a:	f004 f8bb 	bl	8016484 <memset>
	strcat(cmd, str);
 801230e:	1d3b      	adds	r3, r7, #4
 8012310:	f107 020c 	add.w	r2, r7, #12
 8012314:	6819      	ldr	r1, [r3, #0]
 8012316:	4610      	mov	r0, r2
 8012318:	f004 f994 	bl	8016644 <strcat>
	strcat(cmd, "}");
 801231c:	f107 030c 	add.w	r3, r7, #12
 8012320:	4618      	mov	r0, r3
 8012322:	f7fd ff8b 	bl	801023c <strlen>
 8012326:	4603      	mov	r3, r0
 8012328:	461a      	mov	r2, r3
 801232a:	f107 030c 	add.w	r3, r7, #12
 801232e:	4413      	add	r3, r2
 8012330:	491d      	ldr	r1, [pc, #116]	; (80123a8 <F4G_sendStr+0xc4>)
 8012332:	461a      	mov	r2, r3
 8012334:	460b      	mov	r3, r1
 8012336:	881b      	ldrh	r3, [r3, #0]
 8012338:	8013      	strh	r3, [r2, #0]
//	sprintf(cmd, "{(%s}", str);
	while (cmd[i] != '}')
 801233a:	e016      	b.n	801236a <F4G_sendStr+0x86>
	{
		USART_SendData(USART2, cmd[i]);
 801233c:	f897 320f 	ldrb.w	r3, [r7, #527]	; 0x20f
 8012340:	f107 020c 	add.w	r2, r7, #12
 8012344:	5cd3      	ldrb	r3, [r2, r3]
 8012346:	b29b      	uxth	r3, r3
 8012348:	4619      	mov	r1, r3
 801234a:	4818      	ldr	r0, [pc, #96]	; (80123ac <F4G_sendStr+0xc8>)
 801234c:	f003 f802 	bl	8015354 <USART_SendData>
		while (USART_GetFlagStatus(USART2, USART_FLAG_TXE) == RESET)
 8012350:	bf00      	nop
 8012352:	2180      	movs	r1, #128	; 0x80
 8012354:	4815      	ldr	r0, [pc, #84]	; (80123ac <F4G_sendStr+0xc8>)
 8012356:	f003 f81d 	bl	8015394 <USART_GetFlagStatus>
 801235a:	4603      	mov	r3, r0
 801235c:	2b00      	cmp	r3, #0
 801235e:	d0f8      	beq.n	8012352 <F4G_sendStr+0x6e>
			;
		i++;
 8012360:	f897 320f 	ldrb.w	r3, [r7, #527]	; 0x20f
 8012364:	3301      	adds	r3, #1
 8012366:	f887 320f 	strb.w	r3, [r7, #527]	; 0x20f
	while (cmd[i] != '}')
 801236a:	f897 320f 	ldrb.w	r3, [r7, #527]	; 0x20f
 801236e:	f107 020c 	add.w	r2, r7, #12
 8012372:	5cd3      	ldrb	r3, [r2, r3]
 8012374:	2b7d      	cmp	r3, #125	; 0x7d
 8012376:	d1e1      	bne.n	801233c <F4G_sendStr+0x58>
	}
	USART_SendData(USART2, cmd[i]);
 8012378:	f897 320f 	ldrb.w	r3, [r7, #527]	; 0x20f
 801237c:	f107 020c 	add.w	r2, r7, #12
 8012380:	5cd3      	ldrb	r3, [r2, r3]
 8012382:	b29b      	uxth	r3, r3
 8012384:	4619      	mov	r1, r3
 8012386:	4809      	ldr	r0, [pc, #36]	; (80123ac <F4G_sendStr+0xc8>)
 8012388:	f002 ffe4 	bl	8015354 <USART_SendData>
	while (USART_GetFlagStatus(USART2, USART_FLAG_TXE) == RESET)
 801238c:	bf00      	nop
 801238e:	2180      	movs	r1, #128	; 0x80
 8012390:	4806      	ldr	r0, [pc, #24]	; (80123ac <F4G_sendStr+0xc8>)
 8012392:	f002 ffff 	bl	8015394 <USART_GetFlagStatus>
 8012396:	4603      	mov	r3, r0
 8012398:	2b00      	cmp	r3, #0
 801239a:	d0f8      	beq.n	801238e <F4G_sendStr+0xaa>
		;
//	printf("%s\r\n", cmd);
}
 801239c:	bf00      	nop
 801239e:	f507 7704 	add.w	r7, r7, #528	; 0x210
 80123a2:	46bd      	mov	sp, r7
 80123a4:	bd80      	pop	{r7, pc}
 80123a6:	bf00      	nop
 80123a8:	0801b604 	.word	0x0801b604
 80123ac:	40004400 	.word	0x40004400

080123b0 <F4G_ExitUnvarnishSend>:

/**
 * 4G模块退出透传模式
 */
void F4G_ExitUnvarnishSend(void)
{
 80123b0:	b580      	push	{r7, lr}
 80123b2:	af00      	add	r7, sp, #0
	delay_ms(1000);
 80123b4:	f44f 707a 	mov.w	r0, #1000	; 0x3e8
 80123b8:	f003 f8e4 	bl	8015584 <delay_ms>
	F4G_USART("+++");
 80123bc:	4904      	ldr	r1, [pc, #16]	; (80123d0 <F4G_ExitUnvarnishSend+0x20>)
 80123be:	4805      	ldr	r0, [pc, #20]	; (80123d4 <F4G_ExitUnvarnishSend+0x24>)
 80123c0:	f001 fe46 	bl	8014050 <Wifi_USART_printf>
	delay_ms(500);
 80123c4:	f44f 70fa 	mov.w	r0, #500	; 0x1f4
 80123c8:	f003 f8dc 	bl	8015584 <delay_ms>
}
 80123cc:	bf00      	nop
 80123ce:	bd80      	pop	{r7, pc}
 80123d0:	0801b608 	.word	0x0801b608
 80123d4:	40004400 	.word	0x40004400

080123d8 <getModuleMes>:
/***********************以下开始为与服务器通信业务代码部分*************************************/
void getModuleMes(void)
{
 80123d8:	b580      	push	{r7, lr}
 80123da:	b082      	sub	sp, #8
 80123dc:	af00      	add	r7, sp, #0
	char *result = NULL;
 80123de:	2300      	movs	r3, #0
 80123e0:	607b      	str	r3, [r7, #4]
	u8 inx = 0;
 80123e2:	2300      	movs	r3, #0
 80123e4:	70fb      	strb	r3, [r7, #3]
//		;
//	while (!Send_AT_Cmd("AT+SAPBR=2,1", "OK", NULL, 500))
//		;
	//AT + CIPGSMLOC = 1, 1
	//获取经纬度和时间
	while (!Send_AT_Cmd("AT+CIPGSMLOC=1,1", "OK", NULL, 500))
 80123e6:	bf00      	nop
 80123e8:	f44f 73fa 	mov.w	r3, #500	; 0x1f4
 80123ec:	2200      	movs	r2, #0
 80123ee:	4984      	ldr	r1, [pc, #528]	; (8012600 <getModuleMes+0x228>)
 80123f0:	4884      	ldr	r0, [pc, #528]	; (8012604 <getModuleMes+0x22c>)
 80123f2:	f7ff fead 	bl	8012150 <Send_AT_Cmd>
 80123f6:	4603      	mov	r3, r0
 80123f8:	f083 0301 	eor.w	r3, r3, #1
 80123fc:	b2db      	uxtb	r3, r3
 80123fe:	2b00      	cmp	r3, #0
 8012400:	d1f2      	bne.n	80123e8 <getModuleMes+0x10>
//	printf("longitude is \"%s\"\n", F4G_Fram_Record_Struct.locations[0]);
//	result = strtok( NULL, ",");
//	strcpy(F4G_Fram_Record_Struct.locations[1], result);
//	printf("latitude is \"%s\"\n", F4G_Fram_Record_Struct.locations[1]);

	strcpy(F4G_Fram_Record_Struct.locations[0], "0");
 8012402:	4b81      	ldr	r3, [pc, #516]	; (8012608 <getModuleMes+0x230>)
 8012404:	2230      	movs	r2, #48	; 0x30
 8012406:	801a      	strh	r2, [r3, #0]
	strcpy(F4G_Fram_Record_Struct.locations[1], "0");
 8012408:	4b80      	ldr	r3, [pc, #512]	; (801260c <getModuleMes+0x234>)
 801240a:	2230      	movs	r2, #48	; 0x30
 801240c:	801a      	strh	r2, [r3, #0]
//	while (!Send_AT_Cmd("AT+SAPBR=3,1,\"APN\",\"\"", "OK", NULL, 500))
//		;
//	while (!Send_AT_Cmd("AT+SAPBR=1,1", "OK", NULL, 500))
//		;
//获取物联网卡号
	while (!Send_AT_Cmd("AT+CCID", "OK", NULL, 500))
 801240e:	bf00      	nop
 8012410:	f44f 73fa 	mov.w	r3, #500	; 0x1f4
 8012414:	2200      	movs	r2, #0
 8012416:	497a      	ldr	r1, [pc, #488]	; (8012600 <getModuleMes+0x228>)
 8012418:	487d      	ldr	r0, [pc, #500]	; (8012610 <getModuleMes+0x238>)
 801241a:	f7ff fe99 	bl	8012150 <Send_AT_Cmd>
 801241e:	4603      	mov	r3, r0
 8012420:	f083 0301 	eor.w	r3, r3, #1
 8012424:	b2db      	uxtb	r3, r3
 8012426:	2b00      	cmp	r3, #0
 8012428:	d1f2      	bne.n	8012410 <getModuleMes+0x38>
		;
	result = F4G_Fram_Record_Struct.Data_RX_BUF;
 801242a:	4b7a      	ldr	r3, [pc, #488]	; (8012614 <getModuleMes+0x23c>)
 801242c:	607b      	str	r3, [r7, #4]
	inx = 0;
 801242e:	2300      	movs	r3, #0
 8012430:	70fb      	strb	r3, [r7, #3]
	while (!(*result <= '9' && *result >= '0'))
 8012432:	e002      	b.n	801243a <getModuleMes+0x62>
	{
		result++;
 8012434:	687b      	ldr	r3, [r7, #4]
 8012436:	3301      	adds	r3, #1
 8012438:	607b      	str	r3, [r7, #4]
	while (!(*result <= '9' && *result >= '0'))
 801243a:	687b      	ldr	r3, [r7, #4]
 801243c:	781b      	ldrb	r3, [r3, #0]
 801243e:	2b39      	cmp	r3, #57	; 0x39
 8012440:	d8f8      	bhi.n	8012434 <getModuleMes+0x5c>
 8012442:	687b      	ldr	r3, [r7, #4]
 8012444:	781b      	ldrb	r3, [r3, #0]
 8012446:	2b2f      	cmp	r3, #47	; 0x2f
 8012448:	d9f4      	bls.n	8012434 <getModuleMes+0x5c>
	}
//当值为字母和数字时
	while ((*result <= '9' && *result >= '0')
 801244a:	e00c      	b.n	8012466 <getModuleMes+0x8e>
			|| (*result <= 'Z' && *result >= 'A')
			|| (*result <= 'z' && *result >= 'a'))
	{
		F4G_Fram_Record_Struct.ccid[inx++] = *result;
 801244c:	78fb      	ldrb	r3, [r7, #3]
 801244e:	1c5a      	adds	r2, r3, #1
 8012450:	70fa      	strb	r2, [r7, #3]
 8012452:	4619      	mov	r1, r3
 8012454:	687b      	ldr	r3, [r7, #4]
 8012456:	781a      	ldrb	r2, [r3, #0]
 8012458:	4b6e      	ldr	r3, [pc, #440]	; (8012614 <getModuleMes+0x23c>)
 801245a:	440b      	add	r3, r1
 801245c:	f883 2a24 	strb.w	r2, [r3, #2596]	; 0xa24
		result++;
 8012460:	687b      	ldr	r3, [r7, #4]
 8012462:	3301      	adds	r3, #1
 8012464:	607b      	str	r3, [r7, #4]
	while ((*result <= '9' && *result >= '0')
 8012466:	687b      	ldr	r3, [r7, #4]
 8012468:	781b      	ldrb	r3, [r3, #0]
 801246a:	2b39      	cmp	r3, #57	; 0x39
 801246c:	d803      	bhi.n	8012476 <getModuleMes+0x9e>
 801246e:	687b      	ldr	r3, [r7, #4]
 8012470:	781b      	ldrb	r3, [r3, #0]
 8012472:	2b2f      	cmp	r3, #47	; 0x2f
 8012474:	d8ea      	bhi.n	801244c <getModuleMes+0x74>
			|| (*result <= 'Z' && *result >= 'A')
 8012476:	687b      	ldr	r3, [r7, #4]
 8012478:	781b      	ldrb	r3, [r3, #0]
 801247a:	2b5a      	cmp	r3, #90	; 0x5a
 801247c:	d803      	bhi.n	8012486 <getModuleMes+0xae>
 801247e:	687b      	ldr	r3, [r7, #4]
 8012480:	781b      	ldrb	r3, [r3, #0]
 8012482:	2b40      	cmp	r3, #64	; 0x40
 8012484:	d8e2      	bhi.n	801244c <getModuleMes+0x74>
			|| (*result <= 'z' && *result >= 'a'))
 8012486:	687b      	ldr	r3, [r7, #4]
 8012488:	781b      	ldrb	r3, [r3, #0]
 801248a:	2b7a      	cmp	r3, #122	; 0x7a
 801248c:	d803      	bhi.n	8012496 <getModuleMes+0xbe>
 801248e:	687b      	ldr	r3, [r7, #4]
 8012490:	781b      	ldrb	r3, [r3, #0]
 8012492:	2b60      	cmp	r3, #96	; 0x60
 8012494:	d8da      	bhi.n	801244c <getModuleMes+0x74>
	}
	printf("CCID=%s\r\n", F4G_Fram_Record_Struct.ccid);
 8012496:	4960      	ldr	r1, [pc, #384]	; (8012618 <getModuleMes+0x240>)
 8012498:	4860      	ldr	r0, [pc, #384]	; (801261c <getModuleMes+0x244>)
 801249a:	f003 fffb 	bl	8016494 <printf>

//获取模块网络信息
	while (!Send_AT_Cmd("AT+COPS=0,1", "OK", NULL, 1000))
 801249e:	bf00      	nop
 80124a0:	f44f 737a 	mov.w	r3, #1000	; 0x3e8
 80124a4:	2200      	movs	r2, #0
 80124a6:	4956      	ldr	r1, [pc, #344]	; (8012600 <getModuleMes+0x228>)
 80124a8:	485d      	ldr	r0, [pc, #372]	; (8012620 <getModuleMes+0x248>)
 80124aa:	f7ff fe51 	bl	8012150 <Send_AT_Cmd>
 80124ae:	4603      	mov	r3, r0
 80124b0:	f083 0301 	eor.w	r3, r3, #1
 80124b4:	b2db      	uxtb	r3, r3
 80124b6:	2b00      	cmp	r3, #0
 80124b8:	d1f2      	bne.n	80124a0 <getModuleMes+0xc8>
		;
	while (!Send_AT_Cmd("AT+COPS?", "OK", NULL, 500))
 80124ba:	bf00      	nop
 80124bc:	f44f 73fa 	mov.w	r3, #500	; 0x1f4
 80124c0:	2200      	movs	r2, #0
 80124c2:	494f      	ldr	r1, [pc, #316]	; (8012600 <getModuleMes+0x228>)
 80124c4:	4857      	ldr	r0, [pc, #348]	; (8012624 <getModuleMes+0x24c>)
 80124c6:	f7ff fe43 	bl	8012150 <Send_AT_Cmd>
 80124ca:	4603      	mov	r3, r0
 80124cc:	f083 0301 	eor.w	r3, r3, #1
 80124d0:	b2db      	uxtb	r3, r3
 80124d2:	2b00      	cmp	r3, #0
 80124d4:	d1f2      	bne.n	80124bc <getModuleMes+0xe4>
		;
	if ((bool) strstr(F4G_Fram_Record_Struct.Data_RX_BUF, "CMCC"))
 80124d6:	4954      	ldr	r1, [pc, #336]	; (8012628 <getModuleMes+0x250>)
 80124d8:	484e      	ldr	r0, [pc, #312]	; (8012614 <getModuleMes+0x23c>)
 80124da:	f004 f913 	bl	8016704 <strstr>
 80124de:	4603      	mov	r3, r0
 80124e0:	2b00      	cmp	r3, #0
 80124e2:	d004      	beq.n	80124ee <getModuleMes+0x116>
	{
		F4G_Fram_Record_Struct.cops = '3';
 80124e4:	4b4b      	ldr	r3, [pc, #300]	; (8012614 <getModuleMes+0x23c>)
 80124e6:	2233      	movs	r2, #51	; 0x33
 80124e8:	f883 2a3c 	strb.w	r2, [r3, #2620]	; 0xa3c
 80124ec:	e00f      	b.n	801250e <getModuleMes+0x136>
	}
	else if ((bool) strstr(F4G_Fram_Record_Struct.Data_RX_BUF, "UNICOM"))
 80124ee:	494f      	ldr	r1, [pc, #316]	; (801262c <getModuleMes+0x254>)
 80124f0:	4848      	ldr	r0, [pc, #288]	; (8012614 <getModuleMes+0x23c>)
 80124f2:	f004 f907 	bl	8016704 <strstr>
 80124f6:	4603      	mov	r3, r0
 80124f8:	2b00      	cmp	r3, #0
 80124fa:	d004      	beq.n	8012506 <getModuleMes+0x12e>
	{
		F4G_Fram_Record_Struct.cops = '6';
 80124fc:	4b45      	ldr	r3, [pc, #276]	; (8012614 <getModuleMes+0x23c>)
 80124fe:	2236      	movs	r2, #54	; 0x36
 8012500:	f883 2a3c 	strb.w	r2, [r3, #2620]	; 0xa3c
 8012504:	e003      	b.n	801250e <getModuleMes+0x136>
	}
	else
	{
		F4G_Fram_Record_Struct.cops = '9';
 8012506:	4b43      	ldr	r3, [pc, #268]	; (8012614 <getModuleMes+0x23c>)
 8012508:	2239      	movs	r2, #57	; 0x39
 801250a:	f883 2a3c 	strb.w	r2, [r3, #2620]	; 0xa3c
	}
	printf("COPS is \"%c\"\n", F4G_Fram_Record_Struct.cops);
 801250e:	4b41      	ldr	r3, [pc, #260]	; (8012614 <getModuleMes+0x23c>)
 8012510:	f893 3a3c 	ldrb.w	r3, [r3, #2620]	; 0xa3c
 8012514:	4619      	mov	r1, r3
 8012516:	4846      	ldr	r0, [pc, #280]	; (8012630 <getModuleMes+0x258>)
 8012518:	f003 ffbc 	bl	8016494 <printf>
//获取信号
	while (!Send_AT_Cmd("AT+CSQ", "OK", NULL, 500))
 801251c:	bf00      	nop
 801251e:	f44f 73fa 	mov.w	r3, #500	; 0x1f4
 8012522:	2200      	movs	r2, #0
 8012524:	4936      	ldr	r1, [pc, #216]	; (8012600 <getModuleMes+0x228>)
 8012526:	4843      	ldr	r0, [pc, #268]	; (8012634 <getModuleMes+0x25c>)
 8012528:	f7ff fe12 	bl	8012150 <Send_AT_Cmd>
 801252c:	4603      	mov	r3, r0
 801252e:	f083 0301 	eor.w	r3, r3, #1
 8012532:	b2db      	uxtb	r3, r3
 8012534:	2b00      	cmp	r3, #0
 8012536:	d1f2      	bne.n	801251e <getModuleMes+0x146>
		;
	result = F4G_Fram_Record_Struct.Data_RX_BUF;
 8012538:	4b36      	ldr	r3, [pc, #216]	; (8012614 <getModuleMes+0x23c>)
 801253a:	607b      	str	r3, [r7, #4]
	while (*result++ != ':')
 801253c:	bf00      	nop
 801253e:	687b      	ldr	r3, [r7, #4]
 8012540:	1c5a      	adds	r2, r3, #1
 8012542:	607a      	str	r2, [r7, #4]
 8012544:	781b      	ldrb	r3, [r3, #0]
 8012546:	2b3a      	cmp	r3, #58	; 0x3a
 8012548:	d1f9      	bne.n	801253e <getModuleMes+0x166>
		;
	result++;
 801254a:	687b      	ldr	r3, [r7, #4]
 801254c:	3301      	adds	r3, #1
 801254e:	607b      	str	r3, [r7, #4]
	F4G_Fram_Record_Struct.rssi = atoi(strtok(result, ","));
 8012550:	4939      	ldr	r1, [pc, #228]	; (8012638 <getModuleMes+0x260>)
 8012552:	6878      	ldr	r0, [r7, #4]
 8012554:	f004 f8f2 	bl	801673c <strtok>
 8012558:	4603      	mov	r3, r0
 801255a:	4618      	mov	r0, r3
 801255c:	f003 ff36 	bl	80163cc <atoi>
 8012560:	4603      	mov	r3, r0
 8012562:	b2da      	uxtb	r2, r3
 8012564:	4b2b      	ldr	r3, [pc, #172]	; (8012614 <getModuleMes+0x23c>)
 8012566:	f883 2a41 	strb.w	r2, [r3, #2625]	; 0xa41
	printf("CSQ is %d\n", F4G_Fram_Record_Struct.rssi);
 801256a:	4b2a      	ldr	r3, [pc, #168]	; (8012614 <getModuleMes+0x23c>)
 801256c:	f893 3a41 	ldrb.w	r3, [r3, #2625]	; 0xa41
 8012570:	4619      	mov	r1, r3
 8012572:	4832      	ldr	r0, [pc, #200]	; (801263c <getModuleMes+0x264>)
 8012574:	f003 ff8e 	bl	8016494 <printf>
	//暂时将联通APN配死
	if (F4G_Fram_Record_Struct.cops == '3')
 8012578:	4b26      	ldr	r3, [pc, #152]	; (8012614 <getModuleMes+0x23c>)
 801257a:	f893 3a3c 	ldrb.w	r3, [r3, #2620]	; 0xa3c
 801257e:	2b33      	cmp	r3, #51	; 0x33
 8012580:	d10e      	bne.n	80125a0 <getModuleMes+0x1c8>
	{
		while (!Send_AT_Cmd("AT+CPNETAPN=1,cmiot,\"\",\"\",0", "OK",
 8012582:	bf00      	nop
 8012584:	f44f 63e1 	mov.w	r3, #1800	; 0x708
 8012588:	2200      	movs	r2, #0
 801258a:	491d      	ldr	r1, [pc, #116]	; (8012600 <getModuleMes+0x228>)
 801258c:	482c      	ldr	r0, [pc, #176]	; (8012640 <getModuleMes+0x268>)
 801258e:	f7ff fddf 	bl	8012150 <Send_AT_Cmd>
 8012592:	4603      	mov	r3, r0
 8012594:	f083 0301 	eor.w	r3, r3, #1
 8012598:	b2db      	uxtb	r3, r3
 801259a:	2b00      	cmp	r3, #0
 801259c:	d1f2      	bne.n	8012584 <getModuleMes+0x1ac>
 801259e:	e026      	b.n	80125ee <getModuleMes+0x216>
		NULL, 1800))
			;
	}
	else if (F4G_Fram_Record_Struct.cops == '6')
 80125a0:	4b1c      	ldr	r3, [pc, #112]	; (8012614 <getModuleMes+0x23c>)
 80125a2:	f893 3a3c 	ldrb.w	r3, [r3, #2620]	; 0xa3c
 80125a6:	2b36      	cmp	r3, #54	; 0x36
 80125a8:	d10e      	bne.n	80125c8 <getModuleMes+0x1f0>
	{
		while (!Send_AT_Cmd("AT+CPNETAPN=1,UNIM2M.NJM2MAPN,\"\",\"\",0", "OK",
 80125aa:	bf00      	nop
 80125ac:	f44f 63e1 	mov.w	r3, #1800	; 0x708
 80125b0:	2200      	movs	r2, #0
 80125b2:	4913      	ldr	r1, [pc, #76]	; (8012600 <getModuleMes+0x228>)
 80125b4:	4823      	ldr	r0, [pc, #140]	; (8012644 <getModuleMes+0x26c>)
 80125b6:	f7ff fdcb 	bl	8012150 <Send_AT_Cmd>
 80125ba:	4603      	mov	r3, r0
 80125bc:	f083 0301 	eor.w	r3, r3, #1
 80125c0:	b2db      	uxtb	r3, r3
 80125c2:	2b00      	cmp	r3, #0
 80125c4:	d1f2      	bne.n	80125ac <getModuleMes+0x1d4>
 80125c6:	e012      	b.n	80125ee <getModuleMes+0x216>
		NULL, 1800))
			;
	}
	else if (F4G_Fram_Record_Struct.cops == '9')
 80125c8:	4b12      	ldr	r3, [pc, #72]	; (8012614 <getModuleMes+0x23c>)
 80125ca:	f893 3a3c 	ldrb.w	r3, [r3, #2620]	; 0xa3c
 80125ce:	2b39      	cmp	r3, #57	; 0x39
 80125d0:	d10d      	bne.n	80125ee <getModuleMes+0x216>
	{
		while (!Send_AT_Cmd("AT+CPNETAPN=1,CTNET,\"\",\"\",0", "OK",
 80125d2:	bf00      	nop
 80125d4:	f44f 63e1 	mov.w	r3, #1800	; 0x708
 80125d8:	2200      	movs	r2, #0
 80125da:	4909      	ldr	r1, [pc, #36]	; (8012600 <getModuleMes+0x228>)
 80125dc:	481a      	ldr	r0, [pc, #104]	; (8012648 <getModuleMes+0x270>)
 80125de:	f7ff fdb7 	bl	8012150 <Send_AT_Cmd>
 80125e2:	4603      	mov	r3, r0
 80125e4:	f083 0301 	eor.w	r3, r3, #1
 80125e8:	b2db      	uxtb	r3, r3
 80125ea:	2b00      	cmp	r3, #0
 80125ec:	d1f2      	bne.n	80125d4 <getModuleMes+0x1fc>
		NULL, 1800))
			;
	}
	delay_ms(1000); //强制等待1S
 80125ee:	f44f 707a 	mov.w	r0, #1000	; 0x3e8
 80125f2:	f002 ffc7 	bl	8015584 <delay_ms>
}
 80125f6:	bf00      	nop
 80125f8:	3708      	adds	r7, #8
 80125fa:	46bd      	mov	sp, r7
 80125fc:	bd80      	pop	{r7, pc}
 80125fe:	bf00      	nop
 8012600:	0801b4d0 	.word	0x0801b4d0
 8012604:	0801b60c 	.word	0x0801b60c
 8012608:	200010f0 	.word	0x200010f0
 801260c:	200010fc 	.word	0x200010fc
 8012610:	0801b620 	.word	0x0801b620
 8012614:	200006e4 	.word	0x200006e4
 8012618:	20001108 	.word	0x20001108
 801261c:	0801b628 	.word	0x0801b628
 8012620:	0801b634 	.word	0x0801b634
 8012624:	0801b640 	.word	0x0801b640
 8012628:	0801b64c 	.word	0x0801b64c
 801262c:	0801b654 	.word	0x0801b654
 8012630:	0801b65c 	.word	0x0801b65c
 8012634:	0801b66c 	.word	0x0801b66c
 8012638:	0801b4f0 	.word	0x0801b4f0
 801263c:	0801b674 	.word	0x0801b674
 8012640:	0801b680 	.word	0x0801b680
 8012644:	0801b69c 	.word	0x0801b69c
 8012648:	0801b6c4 	.word	0x0801b6c4

0801264c <communicateWithHost>:
 * @num  几口机型
 * @return 无
 */
void communicateWithHost(char buf[], char *cmd, char *ccid, char net,
		char *module, char *ver, char *longitude, char *latitude, char *num)
{
 801264c:	b580      	push	{r7, lr}
 801264e:	b08e      	sub	sp, #56	; 0x38
 8012650:	af08      	add	r7, sp, #32
 8012652:	60f8      	str	r0, [r7, #12]
 8012654:	60b9      	str	r1, [r7, #8]
 8012656:	607a      	str	r2, [r7, #4]
 8012658:	70fb      	strb	r3, [r7, #3]
	const char* template = "%s,%s,%s-%c-%s-%s-%s_%s-%s";
 801265a:	4b0e      	ldr	r3, [pc, #56]	; (8012694 <communicateWithHost+0x48>)
 801265c:	617b      	str	r3, [r7, #20]
	ReadDeviceID();
 801265e:	f7ff f90b 	bl	8011878 <ReadDeviceID>
	sprintf(buf, template, RDeviceID, cmd, ccid, net, module, ver, longitude,
 8012662:	78fb      	ldrb	r3, [r7, #3]
 8012664:	6b3a      	ldr	r2, [r7, #48]	; 0x30
 8012666:	9206      	str	r2, [sp, #24]
 8012668:	6afa      	ldr	r2, [r7, #44]	; 0x2c
 801266a:	9205      	str	r2, [sp, #20]
 801266c:	6aba      	ldr	r2, [r7, #40]	; 0x28
 801266e:	9204      	str	r2, [sp, #16]
 8012670:	6a7a      	ldr	r2, [r7, #36]	; 0x24
 8012672:	9203      	str	r2, [sp, #12]
 8012674:	6a3a      	ldr	r2, [r7, #32]
 8012676:	9202      	str	r2, [sp, #8]
 8012678:	9301      	str	r3, [sp, #4]
 801267a:	687b      	ldr	r3, [r7, #4]
 801267c:	9300      	str	r3, [sp, #0]
 801267e:	68bb      	ldr	r3, [r7, #8]
 8012680:	4a05      	ldr	r2, [pc, #20]	; (8012698 <communicateWithHost+0x4c>)
 8012682:	6979      	ldr	r1, [r7, #20]
 8012684:	68f8      	ldr	r0, [r7, #12]
 8012686:	f003 ffb9 	bl	80165fc <sprintf>
			latitude, num);
}
 801268a:	bf00      	nop
 801268c:	3718      	adds	r7, #24
 801268e:	46bd      	mov	sp, r7
 8012690:	bd80      	pop	{r7, pc}
 8012692:	bf00      	nop
 8012694:	0801b6e0 	.word	0x0801b6e0
 8012698:	200022c0 	.word	0x200022c0

0801269c <catRequestStr>:

void catRequestStr(char buf[], char *cmd)
{
 801269c:	b580      	push	{r7, lr}
 801269e:	b088      	sub	sp, #32
 80126a0:	af06      	add	r7, sp, #24
 80126a2:	6078      	str	r0, [r7, #4]
 80126a4:	6039      	str	r1, [r7, #0]
	ReadVersion();
 80126a6:	f7ff f8f5 	bl	8011894 <ReadVersion>
	communicateWithHost(buf, cmd, F4G_Fram_Record_Struct.ccid,
 80126aa:	4b0b      	ldr	r3, [pc, #44]	; (80126d8 <catRequestStr+0x3c>)
 80126ac:	f893 2a3c 	ldrb.w	r2, [r3, #2620]	; 0xa3c
 80126b0:	4b0a      	ldr	r3, [pc, #40]	; (80126dc <catRequestStr+0x40>)
 80126b2:	9304      	str	r3, [sp, #16]
 80126b4:	4b0a      	ldr	r3, [pc, #40]	; (80126e0 <catRequestStr+0x44>)
 80126b6:	9303      	str	r3, [sp, #12]
 80126b8:	4b0a      	ldr	r3, [pc, #40]	; (80126e4 <catRequestStr+0x48>)
 80126ba:	9302      	str	r3, [sp, #8]
 80126bc:	4b0a      	ldr	r3, [pc, #40]	; (80126e8 <catRequestStr+0x4c>)
 80126be:	9301      	str	r3, [sp, #4]
 80126c0:	4b0a      	ldr	r3, [pc, #40]	; (80126ec <catRequestStr+0x50>)
 80126c2:	9300      	str	r3, [sp, #0]
 80126c4:	4613      	mov	r3, r2
 80126c6:	4a0a      	ldr	r2, [pc, #40]	; (80126f0 <catRequestStr+0x54>)
 80126c8:	6839      	ldr	r1, [r7, #0]
 80126ca:	6878      	ldr	r0, [r7, #4]
 80126cc:	f7ff ffbe 	bl	801264c <communicateWithHost>
			F4G_Fram_Record_Struct.cops, "2", RVersion,
			F4G_Fram_Record_Struct.locations[0],
			F4G_Fram_Record_Struct.locations[1], "06");
}
 80126d0:	bf00      	nop
 80126d2:	3708      	adds	r7, #8
 80126d4:	46bd      	mov	sp, r7
 80126d6:	bd80      	pop	{r7, pc}
 80126d8:	200006e4 	.word	0x200006e4
 80126dc:	0801b6fc 	.word	0x0801b6fc
 80126e0:	200010fc 	.word	0x200010fc
 80126e4:	200010f0 	.word	0x200010f0
 80126e8:	200022ac 	.word	0x200022ac
 80126ec:	0801b700 	.word	0x0801b700
 80126f0:	20001108 	.word	0x20001108

080126f4 <request>:
/**
 * 向服务器发起请求
 * @cmd 请求的控制字
 */
void request(char *cmd)
{
 80126f4:	b580      	push	{r7, lr}
 80126f6:	b0a2      	sub	sp, #136	; 0x88
 80126f8:	af00      	add	r7, sp, #0
 80126fa:	6078      	str	r0, [r7, #4]
	char rBuf1[128] =
 80126fc:	f107 0308 	add.w	r3, r7, #8
 8012700:	2280      	movs	r2, #128	; 0x80
 8012702:	2100      	movs	r1, #0
 8012704:	4618      	mov	r0, r3
 8012706:	f003 febd 	bl	8016484 <memset>
	{ 0 };
	catRequestStr(rBuf1, cmd);
 801270a:	f107 0308 	add.w	r3, r7, #8
 801270e:	6879      	ldr	r1, [r7, #4]
 8012710:	4618      	mov	r0, r3
 8012712:	f7ff ffc3 	bl	801269c <catRequestStr>
	request2Server(rBuf1);
 8012716:	f107 0308 	add.w	r3, r7, #8
 801271a:	4618      	mov	r0, r3
 801271c:	f000 f9ba 	bl	8012a94 <request2Server>
}
 8012720:	bf00      	nop
 8012722:	3788      	adds	r7, #136	; 0x88
 8012724:	46bd      	mov	sp, r7
 8012726:	bd80      	pop	{r7, pc}

08012728 <response2reset>:

void response2reset(char *cmd)
{
 8012728:	b580      	push	{r7, lr}
 801272a:	b0a2      	sub	sp, #136	; 0x88
 801272c:	af00      	add	r7, sp, #0
 801272e:	6078      	str	r0, [r7, #4]
	char rBuf2[128] =
 8012730:	f107 0308 	add.w	r3, r7, #8
 8012734:	2280      	movs	r2, #128	; 0x80
 8012736:	2100      	movs	r1, #0
 8012738:	4618      	mov	r0, r3
 801273a:	f003 fea3 	bl	8016484 <memset>
	{ 0 };
	ReadDeviceID();
 801273e:	f7ff f89b 	bl	8011878 <ReadDeviceID>
	sprintf(rBuf2, "%s,%s", RDeviceID, cmd);
 8012742:	f107 0008 	add.w	r0, r7, #8
 8012746:	687b      	ldr	r3, [r7, #4]
 8012748:	4a06      	ldr	r2, [pc, #24]	; (8012764 <response2reset+0x3c>)
 801274a:	4907      	ldr	r1, [pc, #28]	; (8012768 <response2reset+0x40>)
 801274c:	f003 ff56 	bl	80165fc <sprintf>
	request2Server(rBuf2);
 8012750:	f107 0308 	add.w	r3, r7, #8
 8012754:	4618      	mov	r0, r3
 8012756:	f000 f99d 	bl	8012a94 <request2Server>
}
 801275a:	bf00      	nop
 801275c:	3788      	adds	r7, #136	; 0x88
 801275e:	46bd      	mov	sp, r7
 8012760:	bd80      	pop	{r7, pc}
 8012762:	bf00      	nop
 8012764:	200022c0 	.word	0x200022c0
 8012768:	0801b704 	.word	0x0801b704

0801276c <common_heart>:
/**
 * 普通心跳
 */
void common_heart(void)
{
 801276c:	b580      	push	{r7, lr}
 801276e:	b082      	sub	sp, #8
 8012770:	af00      	add	r7, sp, #0
	const char *heart = "{(}";
 8012772:	4b1a      	ldr	r3, [pc, #104]	; (80127dc <common_heart+0x70>)
 8012774:	607b      	str	r3, [r7, #4]
//	printf("%s\r\n", heart);
	F4G_Params.serverStatuCnt += 1;
 8012776:	4b1a      	ldr	r3, [pc, #104]	; (80127e0 <common_heart+0x74>)
 8012778:	f893 3030 	ldrb.w	r3, [r3, #48]	; 0x30
 801277c:	b2db      	uxtb	r3, r3
 801277e:	3301      	adds	r3, #1
 8012780:	b2da      	uxtb	r2, r3
 8012782:	4b17      	ldr	r3, [pc, #92]	; (80127e0 <common_heart+0x74>)
 8012784:	f883 2030 	strb.w	r2, [r3, #48]	; 0x30
	while (*heart != '}')
 8012788:	e011      	b.n	80127ae <common_heart+0x42>
	{
		USART_SendData(USART2, *heart);
 801278a:	687b      	ldr	r3, [r7, #4]
 801278c:	781b      	ldrb	r3, [r3, #0]
 801278e:	b29b      	uxth	r3, r3
 8012790:	4619      	mov	r1, r3
 8012792:	4814      	ldr	r0, [pc, #80]	; (80127e4 <common_heart+0x78>)
 8012794:	f002 fdde 	bl	8015354 <USART_SendData>
		while (USART_GetFlagStatus(USART2, USART_FLAG_TXE) == RESET)
 8012798:	bf00      	nop
 801279a:	2180      	movs	r1, #128	; 0x80
 801279c:	4811      	ldr	r0, [pc, #68]	; (80127e4 <common_heart+0x78>)
 801279e:	f002 fdf9 	bl	8015394 <USART_GetFlagStatus>
 80127a2:	4603      	mov	r3, r0
 80127a4:	2b00      	cmp	r3, #0
 80127a6:	d0f8      	beq.n	801279a <common_heart+0x2e>
			;
		heart++;
 80127a8:	687b      	ldr	r3, [r7, #4]
 80127aa:	3301      	adds	r3, #1
 80127ac:	607b      	str	r3, [r7, #4]
	while (*heart != '}')
 80127ae:	687b      	ldr	r3, [r7, #4]
 80127b0:	781b      	ldrb	r3, [r3, #0]
 80127b2:	2b7d      	cmp	r3, #125	; 0x7d
 80127b4:	d1e9      	bne.n	801278a <common_heart+0x1e>
	}
	USART_SendData(USART2, *heart);
 80127b6:	687b      	ldr	r3, [r7, #4]
 80127b8:	781b      	ldrb	r3, [r3, #0]
 80127ba:	b29b      	uxth	r3, r3
 80127bc:	4619      	mov	r1, r3
 80127be:	4809      	ldr	r0, [pc, #36]	; (80127e4 <common_heart+0x78>)
 80127c0:	f002 fdc8 	bl	8015354 <USART_SendData>
	while (USART_GetFlagStatus(USART2, USART_FLAG_TXE) == RESET)
 80127c4:	bf00      	nop
 80127c6:	2180      	movs	r1, #128	; 0x80
 80127c8:	4806      	ldr	r0, [pc, #24]	; (80127e4 <common_heart+0x78>)
 80127ca:	f002 fde3 	bl	8015394 <USART_GetFlagStatus>
 80127ce:	4603      	mov	r3, r0
 80127d0:	2b00      	cmp	r3, #0
 80127d2:	d0f8      	beq.n	80127c6 <common_heart+0x5a>
		;
}
 80127d4:	bf00      	nop
 80127d6:	3708      	adds	r7, #8
 80127d8:	46bd      	mov	sp, r7
 80127da:	bd80      	pop	{r7, pc}
 80127dc:	0801b70c 	.word	0x0801b70c
 80127e0:	20001128 	.word	0x20001128
 80127e4:	40004400 	.word	0x40004400

080127e8 <statu_heart>:
}
/**
 * 状态心跳
 */
void statu_heart(char *cmds)
{
 80127e8:	b580      	push	{r7, lr}
 80127ea:	b0cc      	sub	sp, #304	; 0x130
 80127ec:	af08      	add	r7, sp, #32
 80127ee:	1d3b      	adds	r3, r7, #4
 80127f0:	6018      	str	r0, [r3, #0]
//拼接字符串
	char reqBuf[256] =
 80127f2:	f107 030c 	add.w	r3, r7, #12
 80127f6:	4618      	mov	r0, r3
 80127f8:	f44f 7380 	mov.w	r3, #256	; 0x100
 80127fc:	461a      	mov	r2, r3
 80127fe:	2100      	movs	r1, #0
 8012800:	f003 fe40 	bl	8016484 <memset>
	{ 0 };
	const char* template = "%s,%s,%s-%s-%s-%s-%s-%s-%s-%s";
 8012804:	4b16      	ldr	r3, [pc, #88]	; (8012860 <statu_heart+0x78>)
 8012806:	f8c7 310c 	str.w	r3, [r7, #268]	; 0x10c
//	F4G_Params.serverStatuCnt += 1;
	ReadDeviceID();
 801280a:	f7ff f835 	bl	8011878 <ReadDeviceID>
	sprintf(reqBuf, template, RDeviceID, cmds, powerbankStatu.powerBankBuf[0],
 801280e:	4b15      	ldr	r3, [pc, #84]	; (8012864 <statu_heart+0x7c>)
 8012810:	f893 3a41 	ldrb.w	r3, [r3, #2625]	; 0xa41
 8012814:	4618      	mov	r0, r3
 8012816:	f000 f929 	bl	8012a6c <Int2Strs>
 801281a:	4601      	mov	r1, r0
 801281c:	1d3b      	adds	r3, r7, #4
 801281e:	f107 000c 	add.w	r0, r7, #12
 8012822:	4a11      	ldr	r2, [pc, #68]	; (8012868 <statu_heart+0x80>)
 8012824:	9207      	str	r2, [sp, #28]
 8012826:	9106      	str	r1, [sp, #24]
 8012828:	4a10      	ldr	r2, [pc, #64]	; (801286c <statu_heart+0x84>)
 801282a:	9205      	str	r2, [sp, #20]
 801282c:	4a10      	ldr	r2, [pc, #64]	; (8012870 <statu_heart+0x88>)
 801282e:	9204      	str	r2, [sp, #16]
 8012830:	4a10      	ldr	r2, [pc, #64]	; (8012874 <statu_heart+0x8c>)
 8012832:	9203      	str	r2, [sp, #12]
 8012834:	4a10      	ldr	r2, [pc, #64]	; (8012878 <statu_heart+0x90>)
 8012836:	9202      	str	r2, [sp, #8]
 8012838:	4a10      	ldr	r2, [pc, #64]	; (801287c <statu_heart+0x94>)
 801283a:	9201      	str	r2, [sp, #4]
 801283c:	4a10      	ldr	r2, [pc, #64]	; (8012880 <statu_heart+0x98>)
 801283e:	9200      	str	r2, [sp, #0]
 8012840:	681b      	ldr	r3, [r3, #0]
 8012842:	4a10      	ldr	r2, [pc, #64]	; (8012884 <statu_heart+0x9c>)
 8012844:	f8d7 110c 	ldr.w	r1, [r7, #268]	; 0x10c
 8012848:	f003 fed8 	bl	80165fc <sprintf>
			powerbankStatu.powerBankBuf[1], powerbankStatu.powerBankBuf[2],
			powerbankStatu.powerBankBuf[3], powerbankStatu.powerBankBuf[4],
			powerbankStatu.powerBankBuf[5],
			Int2Strs(F4G_Fram_Record_Struct.rssi), "aaaaa");
	request2Server(reqBuf);
 801284c:	f107 030c 	add.w	r3, r7, #12
 8012850:	4618      	mov	r0, r3
 8012852:	f000 f91f 	bl	8012a94 <request2Server>
}
 8012856:	bf00      	nop
 8012858:	f507 7788 	add.w	r7, r7, #272	; 0x110
 801285c:	46bd      	mov	sp, r7
 801285e:	bd80      	pop	{r7, pc}
 8012860:	0801b738 	.word	0x0801b738
 8012864:	200006e4 	.word	0x200006e4
 8012868:	0801b758 	.word	0x0801b758
 801286c:	200011ff 	.word	0x200011ff
 8012870:	200011ed 	.word	0x200011ed
 8012874:	200011db 	.word	0x200011db
 8012878:	200011c9 	.word	0x200011c9
 801287c:	200011b7 	.word	0x200011b7
 8012880:	200011a5 	.word	0x200011a5
 8012884:	200022c0 	.word	0x200022c0

08012888 <dd_tc>:
/**
 * 订单弹出
 *
 */
void dd_tc(u8 port, char *cmds)
{
 8012888:	b590      	push	{r4, r7, lr}
 801288a:	b0c9      	sub	sp, #292	; 0x124
 801288c:	af04      	add	r7, sp, #16
 801288e:	4602      	mov	r2, r0
 8012890:	463b      	mov	r3, r7
 8012892:	6019      	str	r1, [r3, #0]
 8012894:	1dfb      	adds	r3, r7, #7
 8012896:	701a      	strb	r2, [r3, #0]
//拼接字符串
	char reqBuf2[256] =
 8012898:	f107 030c 	add.w	r3, r7, #12
 801289c:	4618      	mov	r0, r3
 801289e:	f44f 7380 	mov.w	r3, #256	; 0x100
 80128a2:	461a      	mov	r2, r3
 80128a4:	2100      	movs	r1, #0
 80128a6:	f003 fded 	bl	8016484 <memset>
	{ 0 };
	const char* template = "%s,%s,%s-%s-%s";
 80128aa:	4b1f      	ldr	r3, [pc, #124]	; (8012928 <dd_tc+0xa0>)
 80128ac:	f8c7 310c 	str.w	r3, [r7, #268]	; 0x10c
	F4G_Params.statuCode[port] = checkPowerbankStatus(port,
 80128b0:	1dfb      	adds	r3, r7, #7
 80128b2:	781c      	ldrb	r4, [r3, #0]
			powerbankStatu.powerBankBuf[port]);
 80128b4:	1dfb      	adds	r3, r7, #7
 80128b6:	781a      	ldrb	r2, [r3, #0]
 80128b8:	4613      	mov	r3, r2
 80128ba:	00db      	lsls	r3, r3, #3
 80128bc:	4413      	add	r3, r2
 80128be:	005b      	lsls	r3, r3, #1
 80128c0:	3310      	adds	r3, #16
 80128c2:	4a1a      	ldr	r2, [pc, #104]	; (801292c <dd_tc+0xa4>)
 80128c4:	4413      	add	r3, r2
 80128c6:	1d5a      	adds	r2, r3, #5
	F4G_Params.statuCode[port] = checkPowerbankStatus(port,
 80128c8:	1dfb      	adds	r3, r7, #7
 80128ca:	781b      	ldrb	r3, [r3, #0]
 80128cc:	4611      	mov	r1, r2
 80128ce:	4618      	mov	r0, r3
 80128d0:	f000 fd06 	bl	80132e0 <checkPowerbankStatus>
 80128d4:	4603      	mov	r3, r0
 80128d6:	461a      	mov	r2, r3
 80128d8:	4b15      	ldr	r3, [pc, #84]	; (8012930 <dd_tc+0xa8>)
 80128da:	4423      	add	r3, r4
 80128dc:	f883 2021 	strb.w	r2, [r3, #33]	; 0x21
	ReadDeviceID();
 80128e0:	f7fe ffca 	bl	8011878 <ReadDeviceID>
	sprintf(reqBuf2, template, RDeviceID, cmds,
			powerbankStatu.powerBankBuf[port], F4G_Params.dd, "aaaaa");
 80128e4:	1dfb      	adds	r3, r7, #7
 80128e6:	781a      	ldrb	r2, [r3, #0]
 80128e8:	4613      	mov	r3, r2
 80128ea:	00db      	lsls	r3, r3, #3
 80128ec:	4413      	add	r3, r2
 80128ee:	005b      	lsls	r3, r3, #1
 80128f0:	3310      	adds	r3, #16
 80128f2:	4a0e      	ldr	r2, [pc, #56]	; (801292c <dd_tc+0xa4>)
 80128f4:	4413      	add	r3, r2
 80128f6:	1d5a      	adds	r2, r3, #5
	sprintf(reqBuf2, template, RDeviceID, cmds,
 80128f8:	463b      	mov	r3, r7
 80128fa:	f107 000c 	add.w	r0, r7, #12
 80128fe:	490d      	ldr	r1, [pc, #52]	; (8012934 <dd_tc+0xac>)
 8012900:	9102      	str	r1, [sp, #8]
 8012902:	490d      	ldr	r1, [pc, #52]	; (8012938 <dd_tc+0xb0>)
 8012904:	9101      	str	r1, [sp, #4]
 8012906:	9200      	str	r2, [sp, #0]
 8012908:	681b      	ldr	r3, [r3, #0]
 801290a:	4a0c      	ldr	r2, [pc, #48]	; (801293c <dd_tc+0xb4>)
 801290c:	f8d7 110c 	ldr.w	r1, [r7, #268]	; 0x10c
 8012910:	f003 fe74 	bl	80165fc <sprintf>
	request2Server(reqBuf2);
 8012914:	f107 030c 	add.w	r3, r7, #12
 8012918:	4618      	mov	r0, r3
 801291a:	f000 f8bb 	bl	8012a94 <request2Server>
}
 801291e:	bf00      	nop
 8012920:	f507 778a 	add.w	r7, r7, #276	; 0x114
 8012924:	46bd      	mov	sp, r7
 8012926:	bd90      	pop	{r4, r7, pc}
 8012928:	0801b760 	.word	0x0801b760
 801292c:	20001190 	.word	0x20001190
 8012930:	20001128 	.word	0x20001128
 8012934:	0801b758 	.word	0x0801b758
 8012938:	20001134 	.word	0x20001134
 801293c:	200022c0 	.word	0x200022c0

08012940 <sys_tc>:
/**
 * 系统弹出
 */
void sys_tc(u8 port, char *cmds)
{
 8012940:	b590      	push	{r4, r7, lr}
 8012942:	b0c7      	sub	sp, #284	; 0x11c
 8012944:	af02      	add	r7, sp, #8
 8012946:	4602      	mov	r2, r0
 8012948:	463b      	mov	r3, r7
 801294a:	6019      	str	r1, [r3, #0]
 801294c:	1dfb      	adds	r3, r7, #7
 801294e:	701a      	strb	r2, [r3, #0]
//拼接字符串
	char reqBuf3[256] =
 8012950:	f107 030c 	add.w	r3, r7, #12
 8012954:	4618      	mov	r0, r3
 8012956:	f44f 7380 	mov.w	r3, #256	; 0x100
 801295a:	461a      	mov	r2, r3
 801295c:	2100      	movs	r1, #0
 801295e:	f003 fd91 	bl	8016484 <memset>
	{ 0 };
	const char* template = "%s,%s,%s-%s";
 8012962:	4b1e      	ldr	r3, [pc, #120]	; (80129dc <sys_tc+0x9c>)
 8012964:	f8c7 310c 	str.w	r3, [r7, #268]	; 0x10c
	F4G_Params.statuCode[port] = checkPowerbankStatus(port,
 8012968:	1dfb      	adds	r3, r7, #7
 801296a:	781c      	ldrb	r4, [r3, #0]
			powerbankStatu.powerBankBuf[port]);
 801296c:	1dfb      	adds	r3, r7, #7
 801296e:	781a      	ldrb	r2, [r3, #0]
 8012970:	4613      	mov	r3, r2
 8012972:	00db      	lsls	r3, r3, #3
 8012974:	4413      	add	r3, r2
 8012976:	005b      	lsls	r3, r3, #1
 8012978:	3310      	adds	r3, #16
 801297a:	4a19      	ldr	r2, [pc, #100]	; (80129e0 <sys_tc+0xa0>)
 801297c:	4413      	add	r3, r2
 801297e:	1d5a      	adds	r2, r3, #5
	F4G_Params.statuCode[port] = checkPowerbankStatus(port,
 8012980:	1dfb      	adds	r3, r7, #7
 8012982:	781b      	ldrb	r3, [r3, #0]
 8012984:	4611      	mov	r1, r2
 8012986:	4618      	mov	r0, r3
 8012988:	f000 fcaa 	bl	80132e0 <checkPowerbankStatus>
 801298c:	4603      	mov	r3, r0
 801298e:	461a      	mov	r2, r3
 8012990:	4b14      	ldr	r3, [pc, #80]	; (80129e4 <sys_tc+0xa4>)
 8012992:	4423      	add	r3, r4
 8012994:	f883 2021 	strb.w	r2, [r3, #33]	; 0x21
	ReadDeviceID();
 8012998:	f7fe ff6e 	bl	8011878 <ReadDeviceID>
	sprintf(reqBuf3, template, RDeviceID, cmds,
			powerbankStatu.powerBankBuf[port], "aaaaa");
 801299c:	1dfb      	adds	r3, r7, #7
 801299e:	781a      	ldrb	r2, [r3, #0]
 80129a0:	4613      	mov	r3, r2
 80129a2:	00db      	lsls	r3, r3, #3
 80129a4:	4413      	add	r3, r2
 80129a6:	005b      	lsls	r3, r3, #1
 80129a8:	3310      	adds	r3, #16
 80129aa:	4a0d      	ldr	r2, [pc, #52]	; (80129e0 <sys_tc+0xa0>)
 80129ac:	4413      	add	r3, r2
 80129ae:	1d5a      	adds	r2, r3, #5
	sprintf(reqBuf3, template, RDeviceID, cmds,
 80129b0:	463b      	mov	r3, r7
 80129b2:	f107 000c 	add.w	r0, r7, #12
 80129b6:	490c      	ldr	r1, [pc, #48]	; (80129e8 <sys_tc+0xa8>)
 80129b8:	9101      	str	r1, [sp, #4]
 80129ba:	9200      	str	r2, [sp, #0]
 80129bc:	681b      	ldr	r3, [r3, #0]
 80129be:	4a0b      	ldr	r2, [pc, #44]	; (80129ec <sys_tc+0xac>)
 80129c0:	f8d7 110c 	ldr.w	r1, [r7, #268]	; 0x10c
 80129c4:	f003 fe1a 	bl	80165fc <sprintf>
	request2Server(reqBuf3);
 80129c8:	f107 030c 	add.w	r3, r7, #12
 80129cc:	4618      	mov	r0, r3
 80129ce:	f000 f861 	bl	8012a94 <request2Server>
}
 80129d2:	bf00      	nop
 80129d4:	f507 778a 	add.w	r7, r7, #276	; 0x114
 80129d8:	46bd      	mov	sp, r7
 80129da:	bd90      	pop	{r4, r7, pc}
 80129dc:	0801b770 	.word	0x0801b770
 80129e0:	20001190 	.word	0x20001190
 80129e4:	20001128 	.word	0x20001128
 80129e8:	0801b758 	.word	0x0801b758
 80129ec:	200022c0 	.word	0x200022c0

080129f0 <currentPortStatuChanged>:

void currentPortStatuChanged(u8 port)
{
 80129f0:	b580      	push	{r7, lr}
 80129f2:	b0c6      	sub	sp, #280	; 0x118
 80129f4:	af02      	add	r7, sp, #8
 80129f6:	4602      	mov	r2, r0
 80129f8:	1dfb      	adds	r3, r7, #7
 80129fa:	701a      	strb	r2, [r3, #0]
//拼接字符串
	char reqBuf4[256] =
 80129fc:	f107 030c 	add.w	r3, r7, #12
 8012a00:	4618      	mov	r0, r3
 8012a02:	f44f 7380 	mov.w	r3, #256	; 0x100
 8012a06:	461a      	mov	r2, r3
 8012a08:	2100      	movs	r1, #0
 8012a0a:	f003 fd3b 	bl	8016484 <memset>
	{ 0 };
	const char* template = "%s,%s,%s-%s";
 8012a0e:	4b12      	ldr	r3, [pc, #72]	; (8012a58 <currentPortStatuChanged+0x68>)
 8012a10:	f8c7 310c 	str.w	r3, [r7, #268]	; 0x10c
	ReadDeviceID();
 8012a14:	f7fe ff30 	bl	8011878 <ReadDeviceID>
	sprintf(reqBuf4, template, RDeviceID, "37",
			powerbankStatu.powerBankBuf[port], "aaaaa");
 8012a18:	1dfb      	adds	r3, r7, #7
 8012a1a:	781a      	ldrb	r2, [r3, #0]
 8012a1c:	4613      	mov	r3, r2
 8012a1e:	00db      	lsls	r3, r3, #3
 8012a20:	4413      	add	r3, r2
 8012a22:	005b      	lsls	r3, r3, #1
 8012a24:	3310      	adds	r3, #16
 8012a26:	4a0d      	ldr	r2, [pc, #52]	; (8012a5c <currentPortStatuChanged+0x6c>)
 8012a28:	4413      	add	r3, r2
 8012a2a:	3305      	adds	r3, #5
	sprintf(reqBuf4, template, RDeviceID, "37",
 8012a2c:	f107 000c 	add.w	r0, r7, #12
 8012a30:	4a0b      	ldr	r2, [pc, #44]	; (8012a60 <currentPortStatuChanged+0x70>)
 8012a32:	9201      	str	r2, [sp, #4]
 8012a34:	9300      	str	r3, [sp, #0]
 8012a36:	4b0b      	ldr	r3, [pc, #44]	; (8012a64 <currentPortStatuChanged+0x74>)
 8012a38:	4a0b      	ldr	r2, [pc, #44]	; (8012a68 <currentPortStatuChanged+0x78>)
 8012a3a:	f8d7 110c 	ldr.w	r1, [r7, #268]	; 0x10c
 8012a3e:	f003 fddd 	bl	80165fc <sprintf>
	request2Server(reqBuf4);
 8012a42:	f107 030c 	add.w	r3, r7, #12
 8012a46:	4618      	mov	r0, r3
 8012a48:	f000 f824 	bl	8012a94 <request2Server>
}
 8012a4c:	bf00      	nop
 8012a4e:	f507 7788 	add.w	r7, r7, #272	; 0x110
 8012a52:	46bd      	mov	sp, r7
 8012a54:	bd80      	pop	{r7, pc}
 8012a56:	bf00      	nop
 8012a58:	0801b770 	.word	0x0801b770
 8012a5c:	20001190 	.word	0x20001190
 8012a60:	0801b758 	.word	0x0801b758
 8012a64:	0801b77c 	.word	0x0801b77c
 8012a68:	200022c0 	.word	0x200022c0

08012a6c <Int2Strs>:

char *Int2Strs(u8 num)
{
 8012a6c:	b580      	push	{r7, lr}
 8012a6e:	b082      	sub	sp, #8
 8012a70:	af00      	add	r7, sp, #0
 8012a72:	4603      	mov	r3, r0
 8012a74:	71fb      	strb	r3, [r7, #7]
	static char tem[3] =
	{ 0 };
	snprintf(tem, 3, "%d", num);
 8012a76:	79fb      	ldrb	r3, [r7, #7]
 8012a78:	4a04      	ldr	r2, [pc, #16]	; (8012a8c <Int2Strs+0x20>)
 8012a7a:	2103      	movs	r1, #3
 8012a7c:	4804      	ldr	r0, [pc, #16]	; (8012a90 <Int2Strs+0x24>)
 8012a7e:	f003 fd89 	bl	8016594 <snprintf>
	return tem;
 8012a82:	4b03      	ldr	r3, [pc, #12]	; (8012a90 <Int2Strs+0x24>)
}
 8012a84:	4618      	mov	r0, r3
 8012a86:	3708      	adds	r7, #8
 8012a88:	46bd      	mov	sp, r7
 8012a8a:	bd80      	pop	{r7, pc}
 8012a8c:	0801b780 	.word	0x0801b780
 8012a90:	20001160 	.word	0x20001160

08012a94 <request2Server>:

/**
 * 向服务器发起请求
 */
void request2Server(char str[])
{
 8012a94:	b580      	push	{r7, lr}
 8012a96:	b082      	sub	sp, #8
 8012a98:	af00      	add	r7, sp, #0
 8012a9a:	6078      	str	r0, [r7, #4]
	printf("%s\r\n", str);
 8012a9c:	6879      	ldr	r1, [r7, #4]
 8012a9e:	4807      	ldr	r0, [pc, #28]	; (8012abc <request2Server+0x28>)
 8012aa0:	f003 fcf8 	bl	8016494 <printf>
	base64_encode((const unsigned char *) str, F4G_Fram_Record_Struct.EnData);
 8012aa4:	4906      	ldr	r1, [pc, #24]	; (8012ac0 <request2Server+0x2c>)
 8012aa6:	6878      	ldr	r0, [r7, #4]
 8012aa8:	f001 f88e 	bl	8013bc8 <base64_encode>
	F4G_sendStr(F4G_Fram_Record_Struct.EnData);
 8012aac:	4804      	ldr	r0, [pc, #16]	; (8012ac0 <request2Server+0x2c>)
 8012aae:	f7ff fc19 	bl	80122e4 <F4G_sendStr>
}
 8012ab2:	bf00      	nop
 8012ab4:	3708      	adds	r7, #8
 8012ab6:	46bd      	mov	sp, r7
 8012ab8:	bd80      	pop	{r7, pc}
 8012aba:	bf00      	nop
 8012abc:	0801b584 	.word	0x0801b584
 8012ac0:	20000ce4 	.word	0x20000ce4

08012ac4 <Init_Motor>:
 *      Author: loyer
 */
#include "motor.h"

void Init_Motor(void)
{
 8012ac4:	b580      	push	{r7, lr}
 8012ac6:	b082      	sub	sp, #8
 8012ac8:	af00      	add	r7, sp, #0
	GPIO_InitTypeDef GPIO_InitStructure; //定义结构体变量

	RCC_APB2PeriphClockCmd(
 8012aca:	2101      	movs	r1, #1
 8012acc:	2038      	movs	r0, #56	; 0x38
 8012ace:	f002 f805 	bl	8014adc <RCC_APB2PeriphClockCmd>
	RCC_APB2Periph_GPIOB | RCC_APB2Periph_GPIOC | RCC_APB2Periph_GPIOD, ENABLE);

	GPIO_InitStructure.GPIO_Pin = GPIO_Pin_12 | GPIO_Pin_13 | GPIO_Pin_14
 8012ad2:	f44f 4370 	mov.w	r3, #61440	; 0xf000
 8012ad6:	80bb      	strh	r3, [r7, #4]
			| GPIO_Pin_15;  //选择你要设置的IO口
	GPIO_InitStructure.GPIO_Mode = GPIO_Mode_Out_PP;	 //设置推挽输出模式
 8012ad8:	2310      	movs	r3, #16
 8012ada:	71fb      	strb	r3, [r7, #7]
	GPIO_InitStructure.GPIO_Speed = GPIO_Speed_50MHz;	  //设置传输速率
 8012adc:	2303      	movs	r3, #3
 8012ade:	71bb      	strb	r3, [r7, #6]
	GPIO_Init(GPIOC, &GPIO_InitStructure); /* 初始化GPIO */
 8012ae0:	1d3b      	adds	r3, r7, #4
 8012ae2:	4619      	mov	r1, r3
 8012ae4:	4819      	ldr	r0, [pc, #100]	; (8012b4c <Init_Motor+0x88>)
 8012ae6:	f001 fcfd 	bl	80144e4 <GPIO_Init>

	GPIO_InitStructure.GPIO_Pin = GPIO_Pin_3 | GPIO_Pin_4 | GPIO_Pin_5
 8012aea:	f44f 737e 	mov.w	r3, #1016	; 0x3f8
 8012aee:	80bb      	strh	r3, [r7, #4]
			| GPIO_Pin_6 | GPIO_Pin_7 | GPIO_Pin_8 | GPIO_Pin_9;  //选择你要设置的IO口
	GPIO_InitStructure.GPIO_Mode = GPIO_Mode_Out_PP;	 //设置推挽输出模式
 8012af0:	2310      	movs	r3, #16
 8012af2:	71fb      	strb	r3, [r7, #7]
	GPIO_InitStructure.GPIO_Speed = GPIO_Speed_50MHz;	  //设置传输速率
 8012af4:	2303      	movs	r3, #3
 8012af6:	71bb      	strb	r3, [r7, #6]
	GPIO_Init(GPIOB, &GPIO_InitStructure); /* 初始化GPIO */
 8012af8:	1d3b      	adds	r3, r7, #4
 8012afa:	4619      	mov	r1, r3
 8012afc:	4814      	ldr	r0, [pc, #80]	; (8012b50 <Init_Motor+0x8c>)
 8012afe:	f001 fcf1 	bl	80144e4 <GPIO_Init>

	GPIO_InitStructure.GPIO_Pin = GPIO_Pin_2;  //选择你要设置的IO口
 8012b02:	2304      	movs	r3, #4
 8012b04:	80bb      	strh	r3, [r7, #4]
	GPIO_InitStructure.GPIO_Mode = GPIO_Mode_Out_PP;	 //设置推挽输出模式
 8012b06:	2310      	movs	r3, #16
 8012b08:	71fb      	strb	r3, [r7, #7]
	GPIO_InitStructure.GPIO_Speed = GPIO_Speed_50MHz;	  //设置传输速率
 8012b0a:	2303      	movs	r3, #3
 8012b0c:	71bb      	strb	r3, [r7, #6]
	GPIO_Init(GPIOD, &GPIO_InitStructure); /* 初始化GPIO */
 8012b0e:	1d3b      	adds	r3, r7, #4
 8012b10:	4619      	mov	r1, r3
 8012b12:	4810      	ldr	r0, [pc, #64]	; (8012b54 <Init_Motor+0x90>)
 8012b14:	f001 fce6 	bl	80144e4 <GPIO_Init>

	RCC_APB2PeriphClockCmd(RCC_APB2Periph_AFIO, ENABLE);
 8012b18:	2101      	movs	r1, #1
 8012b1a:	2001      	movs	r0, #1
 8012b1c:	f001 ffde 	bl	8014adc <RCC_APB2PeriphClockCmd>
	//关闭JTAG，保留SWD，释放PB3 PB4 PA15
	GPIO_PinRemapConfig(GPIO_Remap_SWJ_JTAGDisable, ENABLE);
 8012b20:	2101      	movs	r1, #1
 8012b22:	480d      	ldr	r0, [pc, #52]	; (8012b58 <Init_Motor+0x94>)
 8012b24:	f001 fdd0 	bl	80146c8 <GPIO_PinRemapConfig>

	//使全部电机待机
	GPIO_ResetBits(GPIOB, 0x3F8); //PB3-9
 8012b28:	f44f 717e 	mov.w	r1, #1016	; 0x3f8
 8012b2c:	4808      	ldr	r0, [pc, #32]	; (8012b50 <Init_Motor+0x8c>)
 8012b2e:	f001 fdbc 	bl	80146aa <GPIO_ResetBits>
	GPIO_ResetBits(GPIOC, 0xF000); //PC12-15
 8012b32:	f44f 4170 	mov.w	r1, #61440	; 0xf000
 8012b36:	4805      	ldr	r0, [pc, #20]	; (8012b4c <Init_Motor+0x88>)
 8012b38:	f001 fdb7 	bl	80146aa <GPIO_ResetBits>
	GPIO_ResetBits(GPIOD, GPIO_Pin_2);
 8012b3c:	2104      	movs	r1, #4
 8012b3e:	4805      	ldr	r0, [pc, #20]	; (8012b54 <Init_Motor+0x90>)
 8012b40:	f001 fdb3 	bl	80146aa <GPIO_ResetBits>

	//GPIO_SetBits(GPIOB, GPIO_Pin_4);

}
 8012b44:	bf00      	nop
 8012b46:	3708      	adds	r7, #8
 8012b48:	46bd      	mov	sp, r7
 8012b4a:	bd80      	pop	{r7, pc}
 8012b4c:	40011000 	.word	0x40011000
 8012b50:	40010c00 	.word	0x40010c00
 8012b54:	40011400 	.word	0x40011400
 8012b58:	00300200 	.word	0x00300200

08012b5c <motor_run>:
 * 控制马达转动
 * @mot 数字1-6代表马达1-6
 * @dir 1--正转  0--反转(传参数时使用宏定义FORWARD和BACKWARD)
 */
void motor_run(u8 mot, u8 dir)
{
 8012b5c:	b480      	push	{r7}
 8012b5e:	b083      	sub	sp, #12
 8012b60:	af00      	add	r7, sp, #0
 8012b62:	4603      	mov	r3, r0
 8012b64:	460a      	mov	r2, r1
 8012b66:	71fb      	strb	r3, [r7, #7]
 8012b68:	4613      	mov	r3, r2
 8012b6a:	71bb      	strb	r3, [r7, #6]
	switch (mot)
 8012b6c:	79fb      	ldrb	r3, [r7, #7]
 8012b6e:	3b01      	subs	r3, #1
 8012b70:	2b05      	cmp	r3, #5
 8012b72:	d857      	bhi.n	8012c24 <motor_run+0xc8>
 8012b74:	a201      	add	r2, pc, #4	; (adr r2, 8012b7c <motor_run+0x20>)
 8012b76:	f852 f023 	ldr.w	pc, [r2, r3, lsl #2]
 8012b7a:	bf00      	nop
 8012b7c:	08012b95 	.word	0x08012b95
 8012b80:	08012bad 	.word	0x08012bad
 8012b84:	08012bc5 	.word	0x08012bc5
 8012b88:	08012bdd 	.word	0x08012bdd
 8012b8c:	08012bf5 	.word	0x08012bf5
 8012b90:	08012c0d 	.word	0x08012c0d
	{
	case 1:
		PC_out(15) = dir;
 8012b94:	4a26      	ldr	r2, [pc, #152]	; (8012c30 <motor_run+0xd4>)
 8012b96:	79bb      	ldrb	r3, [r7, #6]
 8012b98:	6013      	str	r3, [r2, #0]
		PC_out(14) = dir ? 0 : 1;
 8012b9a:	4a26      	ldr	r2, [pc, #152]	; (8012c34 <motor_run+0xd8>)
 8012b9c:	79bb      	ldrb	r3, [r7, #6]
 8012b9e:	2b00      	cmp	r3, #0
 8012ba0:	bf0c      	ite	eq
 8012ba2:	2301      	moveq	r3, #1
 8012ba4:	2300      	movne	r3, #0
 8012ba6:	b2db      	uxtb	r3, r3
 8012ba8:	6013      	str	r3, [r2, #0]
		break;
 8012baa:	e03c      	b.n	8012c26 <motor_run+0xca>
	case 2:
		PC_out(13) = dir;
 8012bac:	4a22      	ldr	r2, [pc, #136]	; (8012c38 <motor_run+0xdc>)
 8012bae:	79bb      	ldrb	r3, [r7, #6]
 8012bb0:	6013      	str	r3, [r2, #0]
		PB_out(9) = dir ? 0 : 1;
 8012bb2:	4a22      	ldr	r2, [pc, #136]	; (8012c3c <motor_run+0xe0>)
 8012bb4:	79bb      	ldrb	r3, [r7, #6]
 8012bb6:	2b00      	cmp	r3, #0
 8012bb8:	bf0c      	ite	eq
 8012bba:	2301      	moveq	r3, #1
 8012bbc:	2300      	movne	r3, #0
 8012bbe:	b2db      	uxtb	r3, r3
 8012bc0:	6013      	str	r3, [r2, #0]
		break;
 8012bc2:	e030      	b.n	8012c26 <motor_run+0xca>
	case 3:
		PB_out(8) = dir;
 8012bc4:	4a1e      	ldr	r2, [pc, #120]	; (8012c40 <motor_run+0xe4>)
 8012bc6:	79bb      	ldrb	r3, [r7, #6]
 8012bc8:	6013      	str	r3, [r2, #0]
		PB_out(7) = dir ? 0 : 1;
 8012bca:	4a1e      	ldr	r2, [pc, #120]	; (8012c44 <motor_run+0xe8>)
 8012bcc:	79bb      	ldrb	r3, [r7, #6]
 8012bce:	2b00      	cmp	r3, #0
 8012bd0:	bf0c      	ite	eq
 8012bd2:	2301      	moveq	r3, #1
 8012bd4:	2300      	movne	r3, #0
 8012bd6:	b2db      	uxtb	r3, r3
 8012bd8:	6013      	str	r3, [r2, #0]
		break;
 8012bda:	e024      	b.n	8012c26 <motor_run+0xca>
	case 4:
		PB_out(6) = dir;
 8012bdc:	4a1a      	ldr	r2, [pc, #104]	; (8012c48 <motor_run+0xec>)
 8012bde:	79bb      	ldrb	r3, [r7, #6]
 8012be0:	6013      	str	r3, [r2, #0]
		PB_out(5) = dir ? 0 : 1;
 8012be2:	4a1a      	ldr	r2, [pc, #104]	; (8012c4c <motor_run+0xf0>)
 8012be4:	79bb      	ldrb	r3, [r7, #6]
 8012be6:	2b00      	cmp	r3, #0
 8012be8:	bf0c      	ite	eq
 8012bea:	2301      	moveq	r3, #1
 8012bec:	2300      	movne	r3, #0
 8012bee:	b2db      	uxtb	r3, r3
 8012bf0:	6013      	str	r3, [r2, #0]
		break;
 8012bf2:	e018      	b.n	8012c26 <motor_run+0xca>
	case 5:
		PB_out(4) = dir;
 8012bf4:	4a16      	ldr	r2, [pc, #88]	; (8012c50 <motor_run+0xf4>)
 8012bf6:	79bb      	ldrb	r3, [r7, #6]
 8012bf8:	6013      	str	r3, [r2, #0]
		PB_out(3) = dir ? 0 : 1;
 8012bfa:	4a16      	ldr	r2, [pc, #88]	; (8012c54 <motor_run+0xf8>)
 8012bfc:	79bb      	ldrb	r3, [r7, #6]
 8012bfe:	2b00      	cmp	r3, #0
 8012c00:	bf0c      	ite	eq
 8012c02:	2301      	moveq	r3, #1
 8012c04:	2300      	movne	r3, #0
 8012c06:	b2db      	uxtb	r3, r3
 8012c08:	6013      	str	r3, [r2, #0]
		break;
 8012c0a:	e00c      	b.n	8012c26 <motor_run+0xca>
	case 6:
		PD_out(2) = dir;
 8012c0c:	4a12      	ldr	r2, [pc, #72]	; (8012c58 <motor_run+0xfc>)
 8012c0e:	79bb      	ldrb	r3, [r7, #6]
 8012c10:	6013      	str	r3, [r2, #0]
		PC_out(12) = dir ? 0 : 1;
 8012c12:	4a12      	ldr	r2, [pc, #72]	; (8012c5c <motor_run+0x100>)
 8012c14:	79bb      	ldrb	r3, [r7, #6]
 8012c16:	2b00      	cmp	r3, #0
 8012c18:	bf0c      	ite	eq
 8012c1a:	2301      	moveq	r3, #1
 8012c1c:	2300      	movne	r3, #0
 8012c1e:	b2db      	uxtb	r3, r3
 8012c20:	6013      	str	r3, [r2, #0]
		break;
 8012c22:	e000      	b.n	8012c26 <motor_run+0xca>
	default:
		break;
 8012c24:	bf00      	nop
	}
}
 8012c26:	bf00      	nop
 8012c28:	370c      	adds	r7, #12
 8012c2a:	46bd      	mov	sp, r7
 8012c2c:	bc80      	pop	{r7}
 8012c2e:	4770      	bx	lr
 8012c30:	422201bc 	.word	0x422201bc
 8012c34:	422201b8 	.word	0x422201b8
 8012c38:	422201b4 	.word	0x422201b4
 8012c3c:	422181a4 	.word	0x422181a4
 8012c40:	422181a0 	.word	0x422181a0
 8012c44:	4221819c 	.word	0x4221819c
 8012c48:	42218198 	.word	0x42218198
 8012c4c:	42218194 	.word	0x42218194
 8012c50:	42218190 	.word	0x42218190
 8012c54:	4221818c 	.word	0x4221818c
 8012c58:	42228188 	.word	0x42228188
 8012c5c:	422201b0 	.word	0x422201b0

08012c60 <popUP_powerBank>:
 * 弹出充电宝
 * @powerBank 1-6表示充电宝1-6
 * @play 播报语音
 */
void popUP_powerBank(u8 powerBank, u8 play)
{
 8012c60:	b580      	push	{r7, lr}
 8012c62:	b084      	sub	sp, #16
 8012c64:	af00      	add	r7, sp, #0
 8012c66:	4603      	mov	r3, r0
 8012c68:	460a      	mov	r2, r1
 8012c6a:	71fb      	strb	r3, [r7, #7]
 8012c6c:	4613      	mov	r3, r2
 8012c6e:	71bb      	strb	r3, [r7, #6]
	u16 cnt;
	if (powerBank >= 1 && powerBank <= 6 && play)
 8012c70:	79fb      	ldrb	r3, [r7, #7]
 8012c72:	2b00      	cmp	r3, #0
 8012c74:	d008      	beq.n	8012c88 <popUP_powerBank+0x28>
 8012c76:	79fb      	ldrb	r3, [r7, #7]
 8012c78:	2b06      	cmp	r3, #6
 8012c7a:	d805      	bhi.n	8012c88 <popUP_powerBank+0x28>
 8012c7c:	79bb      	ldrb	r3, [r7, #6]
 8012c7e:	2b00      	cmp	r3, #0
 8012c80:	d002      	beq.n	8012c88 <popUP_powerBank+0x28>
	{
		play_audio(1);
 8012c82:	2001      	movs	r0, #1
 8012c84:	f7fe fcd4 	bl	8011630 <play_audio>
	}
	switch (powerBank)
 8012c88:	79fb      	ldrb	r3, [r7, #7]
 8012c8a:	3b01      	subs	r3, #1
 8012c8c:	2b05      	cmp	r3, #5
 8012c8e:	f200 8111 	bhi.w	8012eb4 <popUP_powerBank+0x254>
 8012c92:	a201      	add	r2, pc, #4	; (adr r2, 8012c98 <popUP_powerBank+0x38>)
 8012c94:	f852 f023 	ldr.w	pc, [r2, r3, lsl #2]
 8012c98:	08012cb1 	.word	0x08012cb1
 8012c9c:	08012d07 	.word	0x08012d07
 8012ca0:	08012d5d 	.word	0x08012d5d
 8012ca4:	08012db3 	.word	0x08012db3
 8012ca8:	08012e09 	.word	0x08012e09
 8012cac:	08012e5f 	.word	0x08012e5f
	{
	case 1:
		PC_out(15) = 1;
 8012cb0:	4b85      	ldr	r3, [pc, #532]	; (8012ec8 <popUP_powerBank+0x268>)
 8012cb2:	2201      	movs	r2, #1
 8012cb4:	601a      	str	r2, [r3, #0]
		PC_out(14) = 0;
 8012cb6:	4b85      	ldr	r3, [pc, #532]	; (8012ecc <popUP_powerBank+0x26c>)
 8012cb8:	2200      	movs	r2, #0
 8012cba:	601a      	str	r2, [r3, #0]
		for (cnt = 0; cnt < RegisterParams.motor_TCtime; cnt++)
 8012cbc:	2300      	movs	r3, #0
 8012cbe:	81fb      	strh	r3, [r7, #14]
 8012cc0:	e005      	b.n	8012cce <popUP_powerBank+0x6e>
		{
			delay_ms(100);
 8012cc2:	2064      	movs	r0, #100	; 0x64
 8012cc4:	f002 fc5e 	bl	8015584 <delay_ms>
		for (cnt = 0; cnt < RegisterParams.motor_TCtime; cnt++)
 8012cc8:	89fb      	ldrh	r3, [r7, #14]
 8012cca:	3301      	adds	r3, #1
 8012ccc:	81fb      	strh	r3, [r7, #14]
 8012cce:	4b80      	ldr	r3, [pc, #512]	; (8012ed0 <popUP_powerBank+0x270>)
 8012cd0:	7c1b      	ldrb	r3, [r3, #16]
 8012cd2:	b29b      	uxth	r3, r3
 8012cd4:	89fa      	ldrh	r2, [r7, #14]
 8012cd6:	429a      	cmp	r2, r3
 8012cd8:	d3f3      	bcc.n	8012cc2 <popUP_powerBank+0x62>
		}
		PC_out(15) = 0;
 8012cda:	4b7b      	ldr	r3, [pc, #492]	; (8012ec8 <popUP_powerBank+0x268>)
 8012cdc:	2200      	movs	r2, #0
 8012cde:	601a      	str	r2, [r3, #0]
		PC_out(14) = 1;
 8012ce0:	4b7a      	ldr	r3, [pc, #488]	; (8012ecc <popUP_powerBank+0x26c>)
 8012ce2:	2201      	movs	r2, #1
 8012ce4:	601a      	str	r2, [r3, #0]
		for (cnt = 0; cnt < RegisterParams.motor_HTtime; cnt++)
 8012ce6:	2300      	movs	r3, #0
 8012ce8:	81fb      	strh	r3, [r7, #14]
 8012cea:	e005      	b.n	8012cf8 <popUP_powerBank+0x98>
		{
			delay_ms(100);
 8012cec:	2064      	movs	r0, #100	; 0x64
 8012cee:	f002 fc49 	bl	8015584 <delay_ms>
		for (cnt = 0; cnt < RegisterParams.motor_HTtime; cnt++)
 8012cf2:	89fb      	ldrh	r3, [r7, #14]
 8012cf4:	3301      	adds	r3, #1
 8012cf6:	81fb      	strh	r3, [r7, #14]
 8012cf8:	4b75      	ldr	r3, [pc, #468]	; (8012ed0 <popUP_powerBank+0x270>)
 8012cfa:	7c5b      	ldrb	r3, [r3, #17]
 8012cfc:	b29b      	uxth	r3, r3
 8012cfe:	89fa      	ldrh	r2, [r7, #14]
 8012d00:	429a      	cmp	r2, r3
 8012d02:	d3f3      	bcc.n	8012cec <popUP_powerBank+0x8c>
		}
		break;
 8012d04:	e0d7      	b.n	8012eb6 <popUP_powerBank+0x256>
	case 2:
		PC_out(13) = 1;
 8012d06:	4b73      	ldr	r3, [pc, #460]	; (8012ed4 <popUP_powerBank+0x274>)
 8012d08:	2201      	movs	r2, #1
 8012d0a:	601a      	str	r2, [r3, #0]
		PB_out(9) = 0;
 8012d0c:	4b72      	ldr	r3, [pc, #456]	; (8012ed8 <popUP_powerBank+0x278>)
 8012d0e:	2200      	movs	r2, #0
 8012d10:	601a      	str	r2, [r3, #0]
		for (cnt = 0; cnt < RegisterParams.motor_TCtime; cnt++)
 8012d12:	2300      	movs	r3, #0
 8012d14:	81fb      	strh	r3, [r7, #14]
 8012d16:	e005      	b.n	8012d24 <popUP_powerBank+0xc4>
		{
			delay_ms(100);
 8012d18:	2064      	movs	r0, #100	; 0x64
 8012d1a:	f002 fc33 	bl	8015584 <delay_ms>
		for (cnt = 0; cnt < RegisterParams.motor_TCtime; cnt++)
 8012d1e:	89fb      	ldrh	r3, [r7, #14]
 8012d20:	3301      	adds	r3, #1
 8012d22:	81fb      	strh	r3, [r7, #14]
 8012d24:	4b6a      	ldr	r3, [pc, #424]	; (8012ed0 <popUP_powerBank+0x270>)
 8012d26:	7c1b      	ldrb	r3, [r3, #16]
 8012d28:	b29b      	uxth	r3, r3
 8012d2a:	89fa      	ldrh	r2, [r7, #14]
 8012d2c:	429a      	cmp	r2, r3
 8012d2e:	d3f3      	bcc.n	8012d18 <popUP_powerBank+0xb8>
		}
		PC_out(13) = 0;
 8012d30:	4b68      	ldr	r3, [pc, #416]	; (8012ed4 <popUP_powerBank+0x274>)
 8012d32:	2200      	movs	r2, #0
 8012d34:	601a      	str	r2, [r3, #0]
		PB_out(9) = 1;
 8012d36:	4b68      	ldr	r3, [pc, #416]	; (8012ed8 <popUP_powerBank+0x278>)
 8012d38:	2201      	movs	r2, #1
 8012d3a:	601a      	str	r2, [r3, #0]
		for (cnt = 0; cnt < RegisterParams.motor_HTtime; cnt++)
 8012d3c:	2300      	movs	r3, #0
 8012d3e:	81fb      	strh	r3, [r7, #14]
 8012d40:	e005      	b.n	8012d4e <popUP_powerBank+0xee>
		{
			delay_ms(100);
 8012d42:	2064      	movs	r0, #100	; 0x64
 8012d44:	f002 fc1e 	bl	8015584 <delay_ms>
		for (cnt = 0; cnt < RegisterParams.motor_HTtime; cnt++)
 8012d48:	89fb      	ldrh	r3, [r7, #14]
 8012d4a:	3301      	adds	r3, #1
 8012d4c:	81fb      	strh	r3, [r7, #14]
 8012d4e:	4b60      	ldr	r3, [pc, #384]	; (8012ed0 <popUP_powerBank+0x270>)
 8012d50:	7c5b      	ldrb	r3, [r3, #17]
 8012d52:	b29b      	uxth	r3, r3
 8012d54:	89fa      	ldrh	r2, [r7, #14]
 8012d56:	429a      	cmp	r2, r3
 8012d58:	d3f3      	bcc.n	8012d42 <popUP_powerBank+0xe2>
		}
		break;
 8012d5a:	e0ac      	b.n	8012eb6 <popUP_powerBank+0x256>
	case 3:
		PB_out(8) = 1;
 8012d5c:	4b5f      	ldr	r3, [pc, #380]	; (8012edc <popUP_powerBank+0x27c>)
 8012d5e:	2201      	movs	r2, #1
 8012d60:	601a      	str	r2, [r3, #0]
		PB_out(7) = 0;
 8012d62:	4b5f      	ldr	r3, [pc, #380]	; (8012ee0 <popUP_powerBank+0x280>)
 8012d64:	2200      	movs	r2, #0
 8012d66:	601a      	str	r2, [r3, #0]
		for (cnt = 0; cnt < RegisterParams.motor_TCtime; cnt++)
 8012d68:	2300      	movs	r3, #0
 8012d6a:	81fb      	strh	r3, [r7, #14]
 8012d6c:	e005      	b.n	8012d7a <popUP_powerBank+0x11a>
		{
			delay_ms(100);
 8012d6e:	2064      	movs	r0, #100	; 0x64
 8012d70:	f002 fc08 	bl	8015584 <delay_ms>
		for (cnt = 0; cnt < RegisterParams.motor_TCtime; cnt++)
 8012d74:	89fb      	ldrh	r3, [r7, #14]
 8012d76:	3301      	adds	r3, #1
 8012d78:	81fb      	strh	r3, [r7, #14]
 8012d7a:	4b55      	ldr	r3, [pc, #340]	; (8012ed0 <popUP_powerBank+0x270>)
 8012d7c:	7c1b      	ldrb	r3, [r3, #16]
 8012d7e:	b29b      	uxth	r3, r3
 8012d80:	89fa      	ldrh	r2, [r7, #14]
 8012d82:	429a      	cmp	r2, r3
 8012d84:	d3f3      	bcc.n	8012d6e <popUP_powerBank+0x10e>
		}
		PB_out(8) = 0;
 8012d86:	4b55      	ldr	r3, [pc, #340]	; (8012edc <popUP_powerBank+0x27c>)
 8012d88:	2200      	movs	r2, #0
 8012d8a:	601a      	str	r2, [r3, #0]
		PB_out(7) = 1;
 8012d8c:	4b54      	ldr	r3, [pc, #336]	; (8012ee0 <popUP_powerBank+0x280>)
 8012d8e:	2201      	movs	r2, #1
 8012d90:	601a      	str	r2, [r3, #0]
		for (cnt = 0; cnt < RegisterParams.motor_HTtime; cnt++)
 8012d92:	2300      	movs	r3, #0
 8012d94:	81fb      	strh	r3, [r7, #14]
 8012d96:	e005      	b.n	8012da4 <popUP_powerBank+0x144>
		{
			delay_ms(100);
 8012d98:	2064      	movs	r0, #100	; 0x64
 8012d9a:	f002 fbf3 	bl	8015584 <delay_ms>
		for (cnt = 0; cnt < RegisterParams.motor_HTtime; cnt++)
 8012d9e:	89fb      	ldrh	r3, [r7, #14]
 8012da0:	3301      	adds	r3, #1
 8012da2:	81fb      	strh	r3, [r7, #14]
 8012da4:	4b4a      	ldr	r3, [pc, #296]	; (8012ed0 <popUP_powerBank+0x270>)
 8012da6:	7c5b      	ldrb	r3, [r3, #17]
 8012da8:	b29b      	uxth	r3, r3
 8012daa:	89fa      	ldrh	r2, [r7, #14]
 8012dac:	429a      	cmp	r2, r3
 8012dae:	d3f3      	bcc.n	8012d98 <popUP_powerBank+0x138>
		}
		break;
 8012db0:	e081      	b.n	8012eb6 <popUP_powerBank+0x256>
	case 4:
		PB_out(6) = 1;
 8012db2:	4b4c      	ldr	r3, [pc, #304]	; (8012ee4 <popUP_powerBank+0x284>)
 8012db4:	2201      	movs	r2, #1
 8012db6:	601a      	str	r2, [r3, #0]
		PB_out(5) = 0;
 8012db8:	4b4b      	ldr	r3, [pc, #300]	; (8012ee8 <popUP_powerBank+0x288>)
 8012dba:	2200      	movs	r2, #0
 8012dbc:	601a      	str	r2, [r3, #0]
		for (cnt = 0; cnt < RegisterParams.motor_TCtime; cnt++)
 8012dbe:	2300      	movs	r3, #0
 8012dc0:	81fb      	strh	r3, [r7, #14]
 8012dc2:	e005      	b.n	8012dd0 <popUP_powerBank+0x170>
		{
			delay_ms(100);
 8012dc4:	2064      	movs	r0, #100	; 0x64
 8012dc6:	f002 fbdd 	bl	8015584 <delay_ms>
		for (cnt = 0; cnt < RegisterParams.motor_TCtime; cnt++)
 8012dca:	89fb      	ldrh	r3, [r7, #14]
 8012dcc:	3301      	adds	r3, #1
 8012dce:	81fb      	strh	r3, [r7, #14]
 8012dd0:	4b3f      	ldr	r3, [pc, #252]	; (8012ed0 <popUP_powerBank+0x270>)
 8012dd2:	7c1b      	ldrb	r3, [r3, #16]
 8012dd4:	b29b      	uxth	r3, r3
 8012dd6:	89fa      	ldrh	r2, [r7, #14]
 8012dd8:	429a      	cmp	r2, r3
 8012dda:	d3f3      	bcc.n	8012dc4 <popUP_powerBank+0x164>
		}
		PB_out(6) = 0;
 8012ddc:	4b41      	ldr	r3, [pc, #260]	; (8012ee4 <popUP_powerBank+0x284>)
 8012dde:	2200      	movs	r2, #0
 8012de0:	601a      	str	r2, [r3, #0]
		PB_out(5) = 1;
 8012de2:	4b41      	ldr	r3, [pc, #260]	; (8012ee8 <popUP_powerBank+0x288>)
 8012de4:	2201      	movs	r2, #1
 8012de6:	601a      	str	r2, [r3, #0]
		for (cnt = 0; cnt < RegisterParams.motor_HTtime; cnt++)
 8012de8:	2300      	movs	r3, #0
 8012dea:	81fb      	strh	r3, [r7, #14]
 8012dec:	e005      	b.n	8012dfa <popUP_powerBank+0x19a>
		{
			delay_ms(100);
 8012dee:	2064      	movs	r0, #100	; 0x64
 8012df0:	f002 fbc8 	bl	8015584 <delay_ms>
		for (cnt = 0; cnt < RegisterParams.motor_HTtime; cnt++)
 8012df4:	89fb      	ldrh	r3, [r7, #14]
 8012df6:	3301      	adds	r3, #1
 8012df8:	81fb      	strh	r3, [r7, #14]
 8012dfa:	4b35      	ldr	r3, [pc, #212]	; (8012ed0 <popUP_powerBank+0x270>)
 8012dfc:	7c5b      	ldrb	r3, [r3, #17]
 8012dfe:	b29b      	uxth	r3, r3
 8012e00:	89fa      	ldrh	r2, [r7, #14]
 8012e02:	429a      	cmp	r2, r3
 8012e04:	d3f3      	bcc.n	8012dee <popUP_powerBank+0x18e>
		}
		break;
 8012e06:	e056      	b.n	8012eb6 <popUP_powerBank+0x256>
	case 5:
		PB_out(4) = 1;
 8012e08:	4b38      	ldr	r3, [pc, #224]	; (8012eec <popUP_powerBank+0x28c>)
 8012e0a:	2201      	movs	r2, #1
 8012e0c:	601a      	str	r2, [r3, #0]
		PB_out(3) = 0;
 8012e0e:	4b38      	ldr	r3, [pc, #224]	; (8012ef0 <popUP_powerBank+0x290>)
 8012e10:	2200      	movs	r2, #0
 8012e12:	601a      	str	r2, [r3, #0]
		for (cnt = 0; cnt < RegisterParams.motor_TCtime; cnt++)
 8012e14:	2300      	movs	r3, #0
 8012e16:	81fb      	strh	r3, [r7, #14]
 8012e18:	e005      	b.n	8012e26 <popUP_powerBank+0x1c6>
		{
			delay_ms(100);
 8012e1a:	2064      	movs	r0, #100	; 0x64
 8012e1c:	f002 fbb2 	bl	8015584 <delay_ms>
		for (cnt = 0; cnt < RegisterParams.motor_TCtime; cnt++)
 8012e20:	89fb      	ldrh	r3, [r7, #14]
 8012e22:	3301      	adds	r3, #1
 8012e24:	81fb      	strh	r3, [r7, #14]
 8012e26:	4b2a      	ldr	r3, [pc, #168]	; (8012ed0 <popUP_powerBank+0x270>)
 8012e28:	7c1b      	ldrb	r3, [r3, #16]
 8012e2a:	b29b      	uxth	r3, r3
 8012e2c:	89fa      	ldrh	r2, [r7, #14]
 8012e2e:	429a      	cmp	r2, r3
 8012e30:	d3f3      	bcc.n	8012e1a <popUP_powerBank+0x1ba>
		}
		PB_out(4) = 0;
 8012e32:	4b2e      	ldr	r3, [pc, #184]	; (8012eec <popUP_powerBank+0x28c>)
 8012e34:	2200      	movs	r2, #0
 8012e36:	601a      	str	r2, [r3, #0]
		PB_out(3) = 1;
 8012e38:	4b2d      	ldr	r3, [pc, #180]	; (8012ef0 <popUP_powerBank+0x290>)
 8012e3a:	2201      	movs	r2, #1
 8012e3c:	601a      	str	r2, [r3, #0]
		for (cnt = 0; cnt < RegisterParams.motor_HTtime; cnt++)
 8012e3e:	2300      	movs	r3, #0
 8012e40:	81fb      	strh	r3, [r7, #14]
 8012e42:	e005      	b.n	8012e50 <popUP_powerBank+0x1f0>
		{
			delay_ms(100);
 8012e44:	2064      	movs	r0, #100	; 0x64
 8012e46:	f002 fb9d 	bl	8015584 <delay_ms>
		for (cnt = 0; cnt < RegisterParams.motor_HTtime; cnt++)
 8012e4a:	89fb      	ldrh	r3, [r7, #14]
 8012e4c:	3301      	adds	r3, #1
 8012e4e:	81fb      	strh	r3, [r7, #14]
 8012e50:	4b1f      	ldr	r3, [pc, #124]	; (8012ed0 <popUP_powerBank+0x270>)
 8012e52:	7c5b      	ldrb	r3, [r3, #17]
 8012e54:	b29b      	uxth	r3, r3
 8012e56:	89fa      	ldrh	r2, [r7, #14]
 8012e58:	429a      	cmp	r2, r3
 8012e5a:	d3f3      	bcc.n	8012e44 <popUP_powerBank+0x1e4>
		}
		break;
 8012e5c:	e02b      	b.n	8012eb6 <popUP_powerBank+0x256>
	case 6:
		PD_out(2) = 1;
 8012e5e:	4b25      	ldr	r3, [pc, #148]	; (8012ef4 <popUP_powerBank+0x294>)
 8012e60:	2201      	movs	r2, #1
 8012e62:	601a      	str	r2, [r3, #0]
		PC_out(12) = 0;
 8012e64:	4b24      	ldr	r3, [pc, #144]	; (8012ef8 <popUP_powerBank+0x298>)
 8012e66:	2200      	movs	r2, #0
 8012e68:	601a      	str	r2, [r3, #0]
		for (cnt = 0; cnt < RegisterParams.motor_TCtime; cnt++)
 8012e6a:	2300      	movs	r3, #0
 8012e6c:	81fb      	strh	r3, [r7, #14]
 8012e6e:	e005      	b.n	8012e7c <popUP_powerBank+0x21c>
		{
			delay_ms(100);
 8012e70:	2064      	movs	r0, #100	; 0x64
 8012e72:	f002 fb87 	bl	8015584 <delay_ms>
		for (cnt = 0; cnt < RegisterParams.motor_TCtime; cnt++)
 8012e76:	89fb      	ldrh	r3, [r7, #14]
 8012e78:	3301      	adds	r3, #1
 8012e7a:	81fb      	strh	r3, [r7, #14]
 8012e7c:	4b14      	ldr	r3, [pc, #80]	; (8012ed0 <popUP_powerBank+0x270>)
 8012e7e:	7c1b      	ldrb	r3, [r3, #16]
 8012e80:	b29b      	uxth	r3, r3
 8012e82:	89fa      	ldrh	r2, [r7, #14]
 8012e84:	429a      	cmp	r2, r3
 8012e86:	d3f3      	bcc.n	8012e70 <popUP_powerBank+0x210>
		}
		PD_out(2) = 0;
 8012e88:	4b1a      	ldr	r3, [pc, #104]	; (8012ef4 <popUP_powerBank+0x294>)
 8012e8a:	2200      	movs	r2, #0
 8012e8c:	601a      	str	r2, [r3, #0]
		PC_out(12) = 1;
 8012e8e:	4b1a      	ldr	r3, [pc, #104]	; (8012ef8 <popUP_powerBank+0x298>)
 8012e90:	2201      	movs	r2, #1
 8012e92:	601a      	str	r2, [r3, #0]
		for (cnt = 0; cnt < RegisterParams.motor_HTtime; cnt++)
 8012e94:	2300      	movs	r3, #0
 8012e96:	81fb      	strh	r3, [r7, #14]
 8012e98:	e005      	b.n	8012ea6 <popUP_powerBank+0x246>
		{
			delay_ms(100);
 8012e9a:	2064      	movs	r0, #100	; 0x64
 8012e9c:	f002 fb72 	bl	8015584 <delay_ms>
		for (cnt = 0; cnt < RegisterParams.motor_HTtime; cnt++)
 8012ea0:	89fb      	ldrh	r3, [r7, #14]
 8012ea2:	3301      	adds	r3, #1
 8012ea4:	81fb      	strh	r3, [r7, #14]
 8012ea6:	4b0a      	ldr	r3, [pc, #40]	; (8012ed0 <popUP_powerBank+0x270>)
 8012ea8:	7c5b      	ldrb	r3, [r3, #17]
 8012eaa:	b29b      	uxth	r3, r3
 8012eac:	89fa      	ldrh	r2, [r7, #14]
 8012eae:	429a      	cmp	r2, r3
 8012eb0:	d3f3      	bcc.n	8012e9a <popUP_powerBank+0x23a>
		}
		break;
 8012eb2:	e000      	b.n	8012eb6 <popUP_powerBank+0x256>
	default:
		break;
 8012eb4:	bf00      	nop
	}
	motor_stop(powerBank);
 8012eb6:	79fb      	ldrb	r3, [r7, #7]
 8012eb8:	4618      	mov	r0, r3
 8012eba:	f000 f86b 	bl	8012f94 <motor_stop>
}
 8012ebe:	bf00      	nop
 8012ec0:	3710      	adds	r7, #16
 8012ec2:	46bd      	mov	sp, r7
 8012ec4:	bd80      	pop	{r7, pc}
 8012ec6:	bf00      	nop
 8012ec8:	422201bc 	.word	0x422201bc
 8012ecc:	422201b8 	.word	0x422201b8
 8012ed0:	20001a20 	.word	0x20001a20
 8012ed4:	422201b4 	.word	0x422201b4
 8012ed8:	422181a4 	.word	0x422181a4
 8012edc:	422181a0 	.word	0x422181a0
 8012ee0:	4221819c 	.word	0x4221819c
 8012ee4:	42218198 	.word	0x42218198
 8012ee8:	42218194 	.word	0x42218194
 8012eec:	42218190 	.word	0x42218190
 8012ef0:	4221818c 	.word	0x4221818c
 8012ef4:	42228188 	.word	0x42228188
 8012ef8:	422201b0 	.word	0x422201b0

08012efc <popUP_All>:

void popUP_All(void)
{
 8012efc:	b580      	push	{r7, lr}
 8012efe:	b084      	sub	sp, #16
 8012f00:	af00      	add	r7, sp, #0
	printf("popUP ALL\r\n");
 8012f02:	4823      	ldr	r0, [pc, #140]	; (8012f90 <popUP_All+0x94>)
 8012f04:	f003 fb3e 	bl	8016584 <puts>
	for (int i = 1; i < 7; i++)
 8012f08:	2301      	movs	r3, #1
 8012f0a:	60fb      	str	r3, [r7, #12]
 8012f0c:	e008      	b.n	8012f20 <popUP_All+0x24>
	{
		motor_run(i, 1);
 8012f0e:	68fb      	ldr	r3, [r7, #12]
 8012f10:	b2db      	uxtb	r3, r3
 8012f12:	2101      	movs	r1, #1
 8012f14:	4618      	mov	r0, r3
 8012f16:	f7ff fe21 	bl	8012b5c <motor_run>
	for (int i = 1; i < 7; i++)
 8012f1a:	68fb      	ldr	r3, [r7, #12]
 8012f1c:	3301      	adds	r3, #1
 8012f1e:	60fb      	str	r3, [r7, #12]
 8012f20:	68fb      	ldr	r3, [r7, #12]
 8012f22:	2b06      	cmp	r3, #6
 8012f24:	ddf3      	ble.n	8012f0e <popUP_All+0x12>
	}
	delay_ms(1000);
 8012f26:	f44f 707a 	mov.w	r0, #1000	; 0x3e8
 8012f2a:	f002 fb2b 	bl	8015584 <delay_ms>
	delay_ms(1000);
 8012f2e:	f44f 707a 	mov.w	r0, #1000	; 0x3e8
 8012f32:	f002 fb27 	bl	8015584 <delay_ms>
	delay_ms(1000);
 8012f36:	f44f 707a 	mov.w	r0, #1000	; 0x3e8
 8012f3a:	f002 fb23 	bl	8015584 <delay_ms>
	for (int i = 1; i < 7; i++)
 8012f3e:	2301      	movs	r3, #1
 8012f40:	60bb      	str	r3, [r7, #8]
 8012f42:	e008      	b.n	8012f56 <popUP_All+0x5a>
	{
		motor_run(i, 0);
 8012f44:	68bb      	ldr	r3, [r7, #8]
 8012f46:	b2db      	uxtb	r3, r3
 8012f48:	2100      	movs	r1, #0
 8012f4a:	4618      	mov	r0, r3
 8012f4c:	f7ff fe06 	bl	8012b5c <motor_run>
	for (int i = 1; i < 7; i++)
 8012f50:	68bb      	ldr	r3, [r7, #8]
 8012f52:	3301      	adds	r3, #1
 8012f54:	60bb      	str	r3, [r7, #8]
 8012f56:	68bb      	ldr	r3, [r7, #8]
 8012f58:	2b06      	cmp	r3, #6
 8012f5a:	ddf3      	ble.n	8012f44 <popUP_All+0x48>
	}
	delay_ms(1000);
 8012f5c:	f44f 707a 	mov.w	r0, #1000	; 0x3e8
 8012f60:	f002 fb10 	bl	8015584 <delay_ms>
	delay_ms(1500);
 8012f64:	f240 50dc 	movw	r0, #1500	; 0x5dc
 8012f68:	f002 fb0c 	bl	8015584 <delay_ms>
	for (int i = 1; i < 7; i++)
 8012f6c:	2301      	movs	r3, #1
 8012f6e:	607b      	str	r3, [r7, #4]
 8012f70:	e007      	b.n	8012f82 <popUP_All+0x86>
	{
		motor_stop(i);
 8012f72:	687b      	ldr	r3, [r7, #4]
 8012f74:	b2db      	uxtb	r3, r3
 8012f76:	4618      	mov	r0, r3
 8012f78:	f000 f80c 	bl	8012f94 <motor_stop>
	for (int i = 1; i < 7; i++)
 8012f7c:	687b      	ldr	r3, [r7, #4]
 8012f7e:	3301      	adds	r3, #1
 8012f80:	607b      	str	r3, [r7, #4]
 8012f82:	687b      	ldr	r3, [r7, #4]
 8012f84:	2b06      	cmp	r3, #6
 8012f86:	ddf4      	ble.n	8012f72 <popUP_All+0x76>
	}
}
 8012f88:	bf00      	nop
 8012f8a:	3710      	adds	r7, #16
 8012f8c:	46bd      	mov	sp, r7
 8012f8e:	bd80      	pop	{r7, pc}
 8012f90:	0801b784 	.word	0x0801b784

08012f94 <motor_stop>:
/**
 * 使马达停止转动
 * @mot 1-6表示马达1-6
 */
void motor_stop(u8 mot)
{
 8012f94:	b480      	push	{r7}
 8012f96:	b083      	sub	sp, #12
 8012f98:	af00      	add	r7, sp, #0
 8012f9a:	4603      	mov	r3, r0
 8012f9c:	71fb      	strb	r3, [r7, #7]
	switch (mot)
 8012f9e:	79fb      	ldrb	r3, [r7, #7]
 8012fa0:	3b01      	subs	r3, #1
 8012fa2:	2b05      	cmp	r3, #5
 8012fa4:	d838      	bhi.n	8013018 <motor_stop+0x84>
 8012fa6:	a201      	add	r2, pc, #4	; (adr r2, 8012fac <motor_stop+0x18>)
 8012fa8:	f852 f023 	ldr.w	pc, [r2, r3, lsl #2]
 8012fac:	08012fc5 	.word	0x08012fc5
 8012fb0:	08012fd3 	.word	0x08012fd3
 8012fb4:	08012fe1 	.word	0x08012fe1
 8012fb8:	08012fef 	.word	0x08012fef
 8012fbc:	08012ffd 	.word	0x08012ffd
 8012fc0:	0801300b 	.word	0x0801300b
	{
	case 1:
		PC_out(15) = 0;
 8012fc4:	4b17      	ldr	r3, [pc, #92]	; (8013024 <motor_stop+0x90>)
 8012fc6:	2200      	movs	r2, #0
 8012fc8:	601a      	str	r2, [r3, #0]
		PC_out(14) = 0;
 8012fca:	4b17      	ldr	r3, [pc, #92]	; (8013028 <motor_stop+0x94>)
 8012fcc:	2200      	movs	r2, #0
 8012fce:	601a      	str	r2, [r3, #0]
		break;
 8012fd0:	e023      	b.n	801301a <motor_stop+0x86>
	case 2:
		PC_out(13) = 0;
 8012fd2:	4b16      	ldr	r3, [pc, #88]	; (801302c <motor_stop+0x98>)
 8012fd4:	2200      	movs	r2, #0
 8012fd6:	601a      	str	r2, [r3, #0]
		PB_out(9) = 0;
 8012fd8:	4b15      	ldr	r3, [pc, #84]	; (8013030 <motor_stop+0x9c>)
 8012fda:	2200      	movs	r2, #0
 8012fdc:	601a      	str	r2, [r3, #0]
		break;
 8012fde:	e01c      	b.n	801301a <motor_stop+0x86>
	case 3:
		PB_out(8) = 0;
 8012fe0:	4b14      	ldr	r3, [pc, #80]	; (8013034 <motor_stop+0xa0>)
 8012fe2:	2200      	movs	r2, #0
 8012fe4:	601a      	str	r2, [r3, #0]
		PB_out(7) = 0;
 8012fe6:	4b14      	ldr	r3, [pc, #80]	; (8013038 <motor_stop+0xa4>)
 8012fe8:	2200      	movs	r2, #0
 8012fea:	601a      	str	r2, [r3, #0]
		break;
 8012fec:	e015      	b.n	801301a <motor_stop+0x86>
	case 4:
		PB_out(6) = 0;
 8012fee:	4b13      	ldr	r3, [pc, #76]	; (801303c <motor_stop+0xa8>)
 8012ff0:	2200      	movs	r2, #0
 8012ff2:	601a      	str	r2, [r3, #0]
		PB_out(5) = 0;
 8012ff4:	4b12      	ldr	r3, [pc, #72]	; (8013040 <motor_stop+0xac>)
 8012ff6:	2200      	movs	r2, #0
 8012ff8:	601a      	str	r2, [r3, #0]
		break;
 8012ffa:	e00e      	b.n	801301a <motor_stop+0x86>
	case 5:
		PB_out(4) = 0;
 8012ffc:	4b11      	ldr	r3, [pc, #68]	; (8013044 <motor_stop+0xb0>)
 8012ffe:	2200      	movs	r2, #0
 8013000:	601a      	str	r2, [r3, #0]
		PB_out(3) = 0;
 8013002:	4b11      	ldr	r3, [pc, #68]	; (8013048 <motor_stop+0xb4>)
 8013004:	2200      	movs	r2, #0
 8013006:	601a      	str	r2, [r3, #0]
		break;
 8013008:	e007      	b.n	801301a <motor_stop+0x86>
	case 6:
		PD_out(2) = 0;
 801300a:	4b10      	ldr	r3, [pc, #64]	; (801304c <motor_stop+0xb8>)
 801300c:	2200      	movs	r2, #0
 801300e:	601a      	str	r2, [r3, #0]
		PC_out(12) = 0;
 8013010:	4b0f      	ldr	r3, [pc, #60]	; (8013050 <motor_stop+0xbc>)
 8013012:	2200      	movs	r2, #0
 8013014:	601a      	str	r2, [r3, #0]
		break;
 8013016:	e000      	b.n	801301a <motor_stop+0x86>
	default:
		break;
 8013018:	bf00      	nop
	}
}
 801301a:	bf00      	nop
 801301c:	370c      	adds	r7, #12
 801301e:	46bd      	mov	sp, r7
 8013020:	bc80      	pop	{r7}
 8013022:	4770      	bx	lr
 8013024:	422201bc 	.word	0x422201bc
 8013028:	422201b8 	.word	0x422201b8
 801302c:	422201b4 	.word	0x422201b4
 8013030:	422181a4 	.word	0x422181a4
 8013034:	422181a0 	.word	0x422181a0
 8013038:	4221819c 	.word	0x4221819c
 801303c:	42218198 	.word	0x42218198
 8013040:	42218194 	.word	0x42218194
 8013044:	42218190 	.word	0x42218190
 8013048:	4221818c 	.word	0x4221818c
 801304c:	42228188 	.word	0x42228188
 8013050:	422201b0 	.word	0x422201b0

08013054 <USART3_Init>:
/**
 * 初始化串口3
 * @bound 波特率-如9600
 */
void USART3_Init(u32 bound)
{
 8013054:	b580      	push	{r7, lr}
 8013056:	b088      	sub	sp, #32
 8013058:	af00      	add	r7, sp, #0
 801305a:	6078      	str	r0, [r7, #4]
	//GPIO端口设置
	GPIO_InitTypeDef GPIO_InitStructure;
	USART_InitTypeDef USART_InitStructure;
	NVIC_InitTypeDef NVIC_InitStructure;

	USART_DeInit(USART3);
 801305c:	482a      	ldr	r0, [pc, #168]	; (8013108 <USART3_Init+0xb4>)
 801305e:	f001 fffd 	bl	801505c <USART_DeInit>

	RCC_APB2PeriphClockCmd(RCC_APB2Periph_GPIOB, ENABLE);
 8013062:	2101      	movs	r1, #1
 8013064:	2008      	movs	r0, #8
 8013066:	f001 fd39 	bl	8014adc <RCC_APB2PeriphClockCmd>
	RCC_APB1PeriphClockCmd(RCC_APB1Periph_USART3, ENABLE);
 801306a:	2101      	movs	r1, #1
 801306c:	f44f 2080 	mov.w	r0, #262144	; 0x40000
 8013070:	f001 fd52 	bl	8014b18 <RCC_APB1PeriphClockCmd>

	/*  配置GPIO的模式和IO口 */
	GPIO_InitStructure.GPIO_Pin = GPIO_Pin_10; //TX			   //串口输出PB10
 8013074:	f44f 6380 	mov.w	r3, #1024	; 0x400
 8013078:	83bb      	strh	r3, [r7, #28]
	GPIO_InitStructure.GPIO_Speed = GPIO_Speed_50MHz;
 801307a:	2303      	movs	r3, #3
 801307c:	77bb      	strb	r3, [r7, #30]
	GPIO_InitStructure.GPIO_Mode = GPIO_Mode_AF_PP;	    //复用推挽输出
 801307e:	2318      	movs	r3, #24
 8013080:	77fb      	strb	r3, [r7, #31]
	GPIO_Init(GPIOB, &GPIO_InitStructure); /* 初始化串口输入IO */
 8013082:	f107 031c 	add.w	r3, r7, #28
 8013086:	4619      	mov	r1, r3
 8013088:	4820      	ldr	r0, [pc, #128]	; (801310c <USART3_Init+0xb8>)
 801308a:	f001 fa2b 	bl	80144e4 <GPIO_Init>
	GPIO_InitStructure.GPIO_Pin = GPIO_Pin_11;	    //RX			 //串口输入PB11
 801308e:	f44f 6300 	mov.w	r3, #2048	; 0x800
 8013092:	83bb      	strh	r3, [r7, #28]
	GPIO_InitStructure.GPIO_Mode = GPIO_Mode_IN_FLOATING;		  //模拟输入
 8013094:	2304      	movs	r3, #4
 8013096:	77fb      	strb	r3, [r7, #31]
	GPIO_Init(GPIOB, &GPIO_InitStructure); /* 初始化GPIO */
 8013098:	f107 031c 	add.w	r3, r7, #28
 801309c:	4619      	mov	r1, r3
 801309e:	481b      	ldr	r0, [pc, #108]	; (801310c <USART3_Init+0xb8>)
 80130a0:	f001 fa20 	bl	80144e4 <GPIO_Init>

	//USART1 初始化设置
	USART_InitStructure.USART_BaudRate = bound;		  //波特率设置
 80130a4:	687b      	ldr	r3, [r7, #4]
 80130a6:	60fb      	str	r3, [r7, #12]
	USART_InitStructure.USART_WordLength = USART_WordLength_8b;		 //字长为8位数据格式
 80130a8:	2300      	movs	r3, #0
 80130aa:	823b      	strh	r3, [r7, #16]
	USART_InitStructure.USART_StopBits = USART_StopBits_1;		  //一个停止位
 80130ac:	2300      	movs	r3, #0
 80130ae:	827b      	strh	r3, [r7, #18]
	USART_InitStructure.USART_Parity = USART_Parity_No;		  //无奇偶校验位
 80130b0:	2300      	movs	r3, #0
 80130b2:	82bb      	strh	r3, [r7, #20]
	USART_InitStructure.USART_HardwareFlowControl =
 80130b4:	2300      	movs	r3, #0
 80130b6:	833b      	strh	r3, [r7, #24]
	USART_HardwareFlowControl_None;		  //无硬件数据流控制
	USART_InitStructure.USART_Mode = USART_Mode_Rx | USART_Mode_Tx;	//收发模式
 80130b8:	230c      	movs	r3, #12
 80130ba:	82fb      	strh	r3, [r7, #22]
	USART_Init(USART3, &USART_InitStructure); //初始化串口1
 80130bc:	f107 030c 	add.w	r3, r7, #12
 80130c0:	4619      	mov	r1, r3
 80130c2:	4811      	ldr	r0, [pc, #68]	; (8013108 <USART3_Init+0xb4>)
 80130c4:	f002 f826 	bl	8015114 <USART_Init>

	USART_Cmd(USART3, ENABLE);  //使能串口1
 80130c8:	2101      	movs	r1, #1
 80130ca:	480f      	ldr	r0, [pc, #60]	; (8013108 <USART3_Init+0xb4>)
 80130cc:	f002 f8dc 	bl	8015288 <USART_Cmd>

	USART_ClearFlag(USART3, USART_FLAG_TC);
 80130d0:	2140      	movs	r1, #64	; 0x40
 80130d2:	480d      	ldr	r0, [pc, #52]	; (8013108 <USART3_Init+0xb4>)
 80130d4:	f002 f979 	bl	80153ca <USART_ClearFlag>

	USART_ITConfig(USART3, USART_IT_RXNE, ENABLE);  //开启相关中断
 80130d8:	2201      	movs	r2, #1
 80130da:	f240 5125 	movw	r1, #1317	; 0x525
 80130de:	480a      	ldr	r0, [pc, #40]	; (8013108 <USART3_Init+0xb4>)
 80130e0:	f002 f8f1 	bl	80152c6 <USART_ITConfig>

	//Usart1 NVIC 配置
	NVIC_InitStructure.NVIC_IRQChannel = USART3_IRQn;  //串口1中断通道
 80130e4:	2327      	movs	r3, #39	; 0x27
 80130e6:	723b      	strb	r3, [r7, #8]
	NVIC_InitStructure.NVIC_IRQChannelPreemptionPriority = 0;  //抢占优先级1
 80130e8:	2300      	movs	r3, #0
 80130ea:	727b      	strb	r3, [r7, #9]
	NVIC_InitStructure.NVIC_IRQChannelSubPriority = 0;		//子优先级2
 80130ec:	2300      	movs	r3, #0
 80130ee:	72bb      	strb	r3, [r7, #10]
	NVIC_InitStructure.NVIC_IRQChannelCmd = ENABLE;			//IRQ通道使能
 80130f0:	2301      	movs	r3, #1
 80130f2:	72fb      	strb	r3, [r7, #11]
	NVIC_Init(&NVIC_InitStructure);	//根据指定的参数初始化VIC寄存器、
 80130f4:	f107 0308 	add.w	r3, r7, #8
 80130f8:	4618      	mov	r0, r3
 80130fa:	f001 f85f 	bl	80141bc <NVIC_Init>
}
 80130fe:	bf00      	nop
 8013100:	3720      	adds	r7, #32
 8013102:	46bd      	mov	sp, r7
 8013104:	bd80      	pop	{r7, pc}
 8013106:	bf00      	nop
 8013108:	40004800 	.word	0x40004800
 801310c:	40010c00 	.word	0x40010c00

08013110 <Init_Bat_Usart>:
 * 初始化充电宝与主板通信串口
 * @bound 串口波特率
 * 同时初始化不同口充电宝通信选通
 */
void Init_Bat_Usart(u32 bound)
{
 8013110:	b580      	push	{r7, lr}
 8013112:	b084      	sub	sp, #16
 8013114:	af00      	add	r7, sp, #0
 8013116:	6078      	str	r0, [r7, #4]
	USART3_Init(bound);
 8013118:	6878      	ldr	r0, [r7, #4]
 801311a:	f7ff ff9b 	bl	8013054 <USART3_Init>

	GPIO_InitTypeDef GPIO_InitStructure; //定义结构体变量

	RCC_APB2PeriphClockCmd(RCC_APB2Periph_GPIOB | RCC_APB2Periph_GPIOC, ENABLE);
 801311e:	2101      	movs	r1, #1
 8013120:	2018      	movs	r0, #24
 8013122:	f001 fcdb 	bl	8014adc <RCC_APB2PeriphClockCmd>

	GPIO_InitStructure.GPIO_Pin = GPIO_Pin_14 | GPIO_Pin_15;  //选择你要设置的IO口
 8013126:	f44f 4340 	mov.w	r3, #49152	; 0xc000
 801312a:	81bb      	strh	r3, [r7, #12]
	GPIO_InitStructure.GPIO_Mode = GPIO_Mode_Out_PP;	 //设置推挽输出模式
 801312c:	2310      	movs	r3, #16
 801312e:	73fb      	strb	r3, [r7, #15]
	GPIO_InitStructure.GPIO_Speed = GPIO_Speed_50MHz;	  //设置传输速率
 8013130:	2303      	movs	r3, #3
 8013132:	73bb      	strb	r3, [r7, #14]
	GPIO_Init(GPIOB, &GPIO_InitStructure); /* 初始化GPIO */
 8013134:	f107 030c 	add.w	r3, r7, #12
 8013138:	4619      	mov	r1, r3
 801313a:	480a      	ldr	r0, [pc, #40]	; (8013164 <Init_Bat_Usart+0x54>)
 801313c:	f001 f9d2 	bl	80144e4 <GPIO_Init>

	GPIO_InitStructure.GPIO_Pin = GPIO_Pin_6 | GPIO_Pin_7 | GPIO_Pin_8; //选择你要设置的IO口
 8013140:	f44f 73e0 	mov.w	r3, #448	; 0x1c0
 8013144:	81bb      	strh	r3, [r7, #12]
	GPIO_InitStructure.GPIO_Mode = GPIO_Mode_Out_PP;	 //设置推挽输出模式
 8013146:	2310      	movs	r3, #16
 8013148:	73fb      	strb	r3, [r7, #15]
	GPIO_InitStructure.GPIO_Speed = GPIO_Speed_50MHz;	  //设置传输速率
 801314a:	2303      	movs	r3, #3
 801314c:	73bb      	strb	r3, [r7, #14]
	GPIO_Init(GPIOC, &GPIO_InitStructure); /* 初始化GPIO */
 801314e:	f107 030c 	add.w	r3, r7, #12
 8013152:	4619      	mov	r1, r3
 8013154:	4804      	ldr	r0, [pc, #16]	; (8013168 <Init_Bat_Usart+0x58>)
 8013156:	f001 f9c5 	bl	80144e4 <GPIO_Init>

}
 801315a:	bf00      	nop
 801315c:	3710      	adds	r7, #16
 801315e:	46bd      	mov	sp, r7
 8013160:	bd80      	pop	{r7, pc}
 8013162:	bf00      	nop
 8013164:	40010c00 	.word	0x40010c00
 8013168:	40011000 	.word	0x40011000

0801316c <communicateWithPort>:
/**
 * 选择与哪个口的充电宝进行通信
 * @port 数字1-6代表六口设备的六个口
 */
void communicateWithPort(u8 port)
{
 801316c:	b580      	push	{r7, lr}
 801316e:	b082      	sub	sp, #8
 8013170:	af00      	add	r7, sp, #0
 8013172:	4603      	mov	r3, r0
 8013174:	71fb      	strb	r3, [r7, #7]
	switch (port)
 8013176:	79fb      	ldrb	r3, [r7, #7]
 8013178:	3b01      	subs	r3, #1
 801317a:	2b05      	cmp	r3, #5
 801317c:	d862      	bhi.n	8013244 <communicateWithPort+0xd8>
 801317e:	a201      	add	r2, pc, #4	; (adr r2, 8013184 <communicateWithPort+0x18>)
 8013180:	f852 f023 	ldr.w	pc, [r2, r3, lsl #2]
 8013184:	0801319d 	.word	0x0801319d
 8013188:	080131af 	.word	0x080131af
 801318c:	080131c1 	.word	0x080131c1
 8013190:	080131d3 	.word	0x080131d3
 8013194:	080131f9 	.word	0x080131f9
 8013198:	0801321f 	.word	0x0801321f
	{
	case 1:
		_A1_L;
 801319c:	2140      	movs	r1, #64	; 0x40
 801319e:	482c      	ldr	r0, [pc, #176]	; (8013250 <communicateWithPort+0xe4>)
 80131a0:	f001 fa83 	bl	80146aa <GPIO_ResetBits>
		_B1_L;
 80131a4:	2180      	movs	r1, #128	; 0x80
 80131a6:	482a      	ldr	r0, [pc, #168]	; (8013250 <communicateWithPort+0xe4>)
 80131a8:	f001 fa7f 	bl	80146aa <GPIO_ResetBits>
		break;
 80131ac:	e04b      	b.n	8013246 <communicateWithPort+0xda>
	case 2:
		_A1_H;
 80131ae:	2140      	movs	r1, #64	; 0x40
 80131b0:	4827      	ldr	r0, [pc, #156]	; (8013250 <communicateWithPort+0xe4>)
 80131b2:	f001 fa6c 	bl	801468e <GPIO_SetBits>
		_B1_L;
 80131b6:	2180      	movs	r1, #128	; 0x80
 80131b8:	4825      	ldr	r0, [pc, #148]	; (8013250 <communicateWithPort+0xe4>)
 80131ba:	f001 fa76 	bl	80146aa <GPIO_ResetBits>
		break;
 80131be:	e042      	b.n	8013246 <communicateWithPort+0xda>
	case 3:
		_A1_L;
 80131c0:	2140      	movs	r1, #64	; 0x40
 80131c2:	4823      	ldr	r0, [pc, #140]	; (8013250 <communicateWithPort+0xe4>)
 80131c4:	f001 fa71 	bl	80146aa <GPIO_ResetBits>
		_B1_H;
 80131c8:	2180      	movs	r1, #128	; 0x80
 80131ca:	4821      	ldr	r0, [pc, #132]	; (8013250 <communicateWithPort+0xe4>)
 80131cc:	f001 fa5f 	bl	801468e <GPIO_SetBits>
		break;
 80131d0:	e039      	b.n	8013246 <communicateWithPort+0xda>
	case 4:
		_A1_H;
 80131d2:	2140      	movs	r1, #64	; 0x40
 80131d4:	481e      	ldr	r0, [pc, #120]	; (8013250 <communicateWithPort+0xe4>)
 80131d6:	f001 fa5a 	bl	801468e <GPIO_SetBits>
		_B1_H;
 80131da:	2180      	movs	r1, #128	; 0x80
 80131dc:	481c      	ldr	r0, [pc, #112]	; (8013250 <communicateWithPort+0xe4>)
 80131de:	f001 fa56 	bl	801468e <GPIO_SetBits>
		_A2_L;
 80131e2:	f44f 4180 	mov.w	r1, #16384	; 0x4000
 80131e6:	481b      	ldr	r0, [pc, #108]	; (8013254 <communicateWithPort+0xe8>)
 80131e8:	f001 fa5f 	bl	80146aa <GPIO_ResetBits>
		_B2_L;
 80131ec:	f44f 4100 	mov.w	r1, #32768	; 0x8000
 80131f0:	4818      	ldr	r0, [pc, #96]	; (8013254 <communicateWithPort+0xe8>)
 80131f2:	f001 fa5a 	bl	80146aa <GPIO_ResetBits>
		break;
 80131f6:	e026      	b.n	8013246 <communicateWithPort+0xda>
	case 5:
		_A1_H;
 80131f8:	2140      	movs	r1, #64	; 0x40
 80131fa:	4815      	ldr	r0, [pc, #84]	; (8013250 <communicateWithPort+0xe4>)
 80131fc:	f001 fa47 	bl	801468e <GPIO_SetBits>
		_B1_H;
 8013200:	2180      	movs	r1, #128	; 0x80
 8013202:	4813      	ldr	r0, [pc, #76]	; (8013250 <communicateWithPort+0xe4>)
 8013204:	f001 fa43 	bl	801468e <GPIO_SetBits>
		_A2_H;
 8013208:	f44f 4180 	mov.w	r1, #16384	; 0x4000
 801320c:	4811      	ldr	r0, [pc, #68]	; (8013254 <communicateWithPort+0xe8>)
 801320e:	f001 fa3e 	bl	801468e <GPIO_SetBits>
		_B2_L;
 8013212:	f44f 4100 	mov.w	r1, #32768	; 0x8000
 8013216:	480f      	ldr	r0, [pc, #60]	; (8013254 <communicateWithPort+0xe8>)
 8013218:	f001 fa47 	bl	80146aa <GPIO_ResetBits>
		break;
 801321c:	e013      	b.n	8013246 <communicateWithPort+0xda>
	case 6:
		_A1_H;
 801321e:	2140      	movs	r1, #64	; 0x40
 8013220:	480b      	ldr	r0, [pc, #44]	; (8013250 <communicateWithPort+0xe4>)
 8013222:	f001 fa34 	bl	801468e <GPIO_SetBits>
		_B1_H;
 8013226:	2180      	movs	r1, #128	; 0x80
 8013228:	4809      	ldr	r0, [pc, #36]	; (8013250 <communicateWithPort+0xe4>)
 801322a:	f001 fa30 	bl	801468e <GPIO_SetBits>
		_A2_L;
 801322e:	f44f 4180 	mov.w	r1, #16384	; 0x4000
 8013232:	4808      	ldr	r0, [pc, #32]	; (8013254 <communicateWithPort+0xe8>)
 8013234:	f001 fa39 	bl	80146aa <GPIO_ResetBits>
		_B2_H;
 8013238:	f44f 4100 	mov.w	r1, #32768	; 0x8000
 801323c:	4805      	ldr	r0, [pc, #20]	; (8013254 <communicateWithPort+0xe8>)
 801323e:	f001 fa26 	bl	801468e <GPIO_SetBits>
		break;
 8013242:	e000      	b.n	8013246 <communicateWithPort+0xda>
	default:
		break;
 8013244:	bf00      	nop
	}
//	printf("now communicate with powerBank_%d\r\n", port);
}
 8013246:	bf00      	nop
 8013248:	3708      	adds	r7, #8
 801324a:	46bd      	mov	sp, r7
 801324c:	bd80      	pop	{r7, pc}
 801324e:	bf00      	nop
 8013250:	40011000 	.word	0x40011000
 8013254:	40010c00 	.word	0x40010c00

08013258 <communicationTest>:
/**
 * 测试某个充电宝口的通信状况
 * @port 0-5 代表口1-6
 */
u8 communicationTest(u8 p)
{
 8013258:	b580      	push	{r7, lr}
 801325a:	b084      	sub	sp, #16
 801325c:	af00      	add	r7, sp, #0
 801325e:	4603      	mov	r3, r0
 8013260:	71fb      	strb	r3, [r7, #7]
	u8 cnt = 0;
 8013262:	2300      	movs	r3, #0
 8013264:	73fb      	strb	r3, [r7, #15]
	if (!powerbankStatu.Charging[p]) //当前未充电
 8013266:	79fb      	ldrb	r3, [r7, #7]
 8013268:	4a1b      	ldr	r2, [pc, #108]	; (80132d8 <communicationTest+0x80>)
 801326a:	4413      	add	r3, r2
 801326c:	799b      	ldrb	r3, [r3, #6]
 801326e:	2b00      	cmp	r3, #0
 8013270:	d106      	bne.n	8013280 <communicationTest+0x28>
	{
		controlPowerBankCharge(p + 1, 1); //给充电宝供电
 8013272:	79fb      	ldrb	r3, [r7, #7]
 8013274:	3301      	adds	r3, #1
 8013276:	b2db      	uxtb	r3, r3
 8013278:	2101      	movs	r1, #1
 801327a:	4618      	mov	r0, r3
 801327c:	f000 fc5e 	bl	8013b3c <controlPowerBankCharge>
	}
	communicateWithPort(p + 1); //建立串口连接
 8013280:	79fb      	ldrb	r3, [r7, #7]
 8013282:	3301      	adds	r3, #1
 8013284:	b2db      	uxtb	r3, r3
 8013286:	4618      	mov	r0, r3
 8013288:	f7ff ff70 	bl	801316c <communicateWithPort>
	do
	{
		if (cnt > 4)
 801328c:	7bfb      	ldrb	r3, [r7, #15]
 801328e:	2b04      	cmp	r3, #4
 8013290:	d901      	bls.n	8013296 <communicationTest+0x3e>
		{
			return 0;
 8013292:	2300      	movs	r3, #0
 8013294:	e01c      	b.n	80132d0 <communicationTest+0x78>
		}
		TX3_RX3_Exchange;
 8013296:	4a11      	ldr	r2, [pc, #68]	; (80132dc <communicationTest+0x84>)
 8013298:	4b10      	ldr	r3, [pc, #64]	; (80132dc <communicationTest+0x84>)
 801329a:	681b      	ldr	r3, [r3, #0]
 801329c:	2b00      	cmp	r3, #0
 801329e:	bf0c      	ite	eq
 80132a0:	2301      	moveq	r3, #1
 80132a2:	2300      	movne	r3, #0
 80132a4:	b2db      	uxtb	r3, r3
 80132a6:	6013      	str	r3, [r2, #0]
		delay_ms(2);
 80132a8:	2002      	movs	r0, #2
 80132aa:	f002 f96b 	bl	8015584 <delay_ms>
		controlPowerbank(0x0F);
 80132ae:	200f      	movs	r0, #15
 80132b0:	f000 fb66 	bl	8013980 <controlPowerbank>
		delay_ms(50);
 80132b4:	2032      	movs	r0, #50	; 0x32
 80132b6:	f002 f965 	bl	8015584 <delay_ms>
		cnt++;
 80132ba:	7bfb      	ldrb	r3, [r7, #15]
 80132bc:	3301      	adds	r3, #1
 80132be:	73fb      	strb	r3, [r7, #15]
	} while (!powerbankStatu.TEST);
 80132c0:	4b05      	ldr	r3, [pc, #20]	; (80132d8 <communicationTest+0x80>)
 80132c2:	785b      	ldrb	r3, [r3, #1]
 80132c4:	2b00      	cmp	r3, #0
 80132c6:	d0e1      	beq.n	801328c <communicationTest+0x34>
	powerbankStatu.TEST = 0;
 80132c8:	4b03      	ldr	r3, [pc, #12]	; (80132d8 <communicationTest+0x80>)
 80132ca:	2200      	movs	r2, #0
 80132cc:	705a      	strb	r2, [r3, #1]
	return 1;
 80132ce:	2301      	movs	r3, #1
}
 80132d0:	4618      	mov	r0, r3
 80132d2:	3710      	adds	r7, #16
 80132d4:	46bd      	mov	sp, r7
 80132d6:	bd80      	pop	{r7, pc}
 80132d8:	20001190 	.word	0x20001190
 80132dc:	422201a0 	.word	0x422201a0

080132e0 <checkPowerbankStatus>:
 * @i 0-5
 * @buf 字段
 * @return 状态码
 */
u8 checkPowerbankStatus(u8 i, char buf[])
{
 80132e0:	b580      	push	{r7, lr}
 80132e2:	b088      	sub	sp, #32
 80132e4:	af02      	add	r7, sp, #8
 80132e6:	4603      	mov	r3, r0
 80132e8:	6039      	str	r1, [r7, #0]
 80132ea:	71fb      	strb	r3, [r7, #7]
	u8 pbStatu = 0;
 80132ec:	2300      	movs	r3, #0
 80132ee:	75bb      	strb	r3, [r7, #22]
	u8 motorStatu = 0;
 80132f0:	2300      	movs	r3, #0
 80132f2:	757b      	strb	r3, [r7, #21]
	u8 communicationStatu = 0;
 80132f4:	2300      	movs	r3, #0
 80132f6:	753b      	strb	r3, [r7, #20]
	u8 portStatu = 0;
 80132f8:	2300      	movs	r3, #0
 80132fa:	75fb      	strb	r3, [r7, #23]
	u8 index = 0;
 80132fc:	2300      	movs	r3, #0
 80132fe:	74fb      	strb	r3, [r7, #19]
	u8 pbERROR = 0;
 8013300:	2300      	movs	r3, #0
 8013302:	74bb      	strb	r3, [r7, #18]
	char i2s[3] =
 8013304:	f107 030c 	add.w	r3, r7, #12
 8013308:	2100      	movs	r1, #0
 801330a:	460a      	mov	r2, r1
 801330c:	801a      	strh	r2, [r3, #0]
 801330e:	460a      	mov	r2, r1
 8013310:	709a      	strb	r2, [r3, #2]
	{ 0 };

	key_statu = read_74HC165();
 8013312:	f7fd fde5 	bl	8010ee0 <read_74HC165>
 8013316:	4603      	mov	r3, r0
 8013318:	461a      	mov	r2, r3
 801331a:	4b65      	ldr	r3, [pc, #404]	; (80134b0 <checkPowerbankStatus+0x1d0>)
 801331c:	801a      	strh	r2, [r3, #0]
	communicationStatu = communicationTest(i);
 801331e:	79fb      	ldrb	r3, [r7, #7]
 8013320:	4618      	mov	r0, r3
 8013322:	f7ff ff99 	bl	8013258 <communicationTest>
 8013326:	4603      	mov	r3, r0
 8013328:	753b      	strb	r3, [r7, #20]
	pbStatu = ((key_statu & 0xFF) & (1 << i)) == 0 ? 0 : 1;
 801332a:	4b61      	ldr	r3, [pc, #388]	; (80134b0 <checkPowerbankStatus+0x1d0>)
 801332c:	881b      	ldrh	r3, [r3, #0]
 801332e:	b29b      	uxth	r3, r3
 8013330:	b2da      	uxtb	r2, r3
 8013332:	79fb      	ldrb	r3, [r7, #7]
 8013334:	fa42 f303 	asr.w	r3, r2, r3
 8013338:	f003 0301 	and.w	r3, r3, #1
 801333c:	2b00      	cmp	r3, #0
 801333e:	bf14      	ite	ne
 8013340:	2301      	movne	r3, #1
 8013342:	2300      	moveq	r3, #0
 8013344:	b2db      	uxtb	r3, r3
 8013346:	75bb      	strb	r3, [r7, #22]
	motorStatu = (((key_statu >> 8) & 0xFF) & (1 << i)) == 0 ? 0 : 1;
 8013348:	4b59      	ldr	r3, [pc, #356]	; (80134b0 <checkPowerbankStatus+0x1d0>)
 801334a:	881b      	ldrh	r3, [r3, #0]
 801334c:	b29b      	uxth	r3, r3
 801334e:	0a1b      	lsrs	r3, r3, #8
 8013350:	b29b      	uxth	r3, r3
 8013352:	b2da      	uxtb	r2, r3
 8013354:	79fb      	ldrb	r3, [r7, #7]
 8013356:	fa42 f303 	asr.w	r3, r2, r3
 801335a:	f003 0301 	and.w	r3, r3, #1
 801335e:	2b00      	cmp	r3, #0
 8013360:	bf14      	ite	ne
 8013362:	2301      	movne	r3, #1
 8013364:	2300      	moveq	r3, #0
 8013366:	b2db      	uxtb	r3, r3
 8013368:	757b      	strb	r3, [r7, #21]
	index = (pbERROR << 3) | (pbStatu << 2) | (communicationStatu << 1)
 801336a:	7cbb      	ldrb	r3, [r7, #18]
 801336c:	00db      	lsls	r3, r3, #3
 801336e:	b25a      	sxtb	r2, r3
 8013370:	7dbb      	ldrb	r3, [r7, #22]
 8013372:	009b      	lsls	r3, r3, #2
 8013374:	b25b      	sxtb	r3, r3
 8013376:	4313      	orrs	r3, r2
 8013378:	b25a      	sxtb	r2, r3
 801337a:	7d3b      	ldrb	r3, [r7, #20]
 801337c:	005b      	lsls	r3, r3, #1
 801337e:	b25b      	sxtb	r3, r3
 8013380:	4313      	orrs	r3, r2
 8013382:	b25a      	sxtb	r2, r3
			| (motorStatu << 0);
 8013384:	f997 3015 	ldrsb.w	r3, [r7, #21]
 8013388:	4313      	orrs	r3, r2
 801338a:	b25b      	sxtb	r3, r3
	index = (pbERROR << 3) | (pbStatu << 2) | (communicationStatu << 1)
 801338c:	74fb      	strb	r3, [r7, #19]

	//查状态表
	portStatu = bat_statuBuf[index];
 801338e:	7cfb      	ldrb	r3, [r7, #19]
 8013390:	4a48      	ldr	r2, [pc, #288]	; (80134b4 <checkPowerbankStatus+0x1d4>)
 8013392:	5cd3      	ldrb	r3, [r2, r3]
 8013394:	75fb      	strb	r3, [r7, #23]
	//增加判断============Begin
	if (portStatu == 11 || portStatu == 1) //有电池，锁弹出异常，通信正常
 8013396:	7dfb      	ldrb	r3, [r7, #23]
 8013398:	2b0b      	cmp	r3, #11
 801339a:	d002      	beq.n	80133a2 <checkPowerbankStatus+0xc2>
 801339c:	7dfb      	ldrb	r3, [r7, #23]
 801339e:	2b01      	cmp	r3, #1
 80133a0:	d10d      	bne.n	80133be <checkPowerbankStatus+0xde>
	{
		if (ReadIgnoreLock(i) == 1) //设置了忽略锁状态
 80133a2:	79fb      	ldrb	r3, [r7, #7]
 80133a4:	4618      	mov	r0, r3
 80133a6:	f7fe faab 	bl	8011900 <ReadIgnoreLock>
 80133aa:	4603      	mov	r3, r0
 80133ac:	2b01      	cmp	r3, #1
 80133ae:	d106      	bne.n	80133be <checkPowerbankStatus+0xde>
		{
			portStatu = (portStatu == 11) ? 10 : 0;
 80133b0:	7dfb      	ldrb	r3, [r7, #23]
 80133b2:	2b0b      	cmp	r3, #11
 80133b4:	d101      	bne.n	80133ba <checkPowerbankStatus+0xda>
 80133b6:	230a      	movs	r3, #10
 80133b8:	e000      	b.n	80133bc <checkPowerbankStatus+0xdc>
 80133ba:	2300      	movs	r3, #0
 80133bc:	75fb      	strb	r3, [r7, #23]
		}
	}
	//增加判断============End
	//=============================================
	setBATInstruction(i, portStatu);
 80133be:	7dfa      	ldrb	r2, [r7, #23]
 80133c0:	79fb      	ldrb	r3, [r7, #7]
 80133c2:	4611      	mov	r1, r2
 80133c4:	4618      	mov	r0, r3
 80133c6:	f000 f8bb 	bl	8013540 <setBATInstruction>
	//=============================================

	if (communicationStatu)
 80133ca:	7d3b      	ldrb	r3, [r7, #20]
 80133cc:	2b00      	cmp	r3, #0
 80133ce:	d060      	beq.n	8013492 <checkPowerbankStatus+0x1b2>
	{
		if (pbERROR)
 80133d0:	7cbb      	ldrb	r3, [r7, #18]
 80133d2:	2b00      	cmp	r3, #0
 80133d4:	d00d      	beq.n	80133f2 <checkPowerbankStatus+0x112>
		{
			sprintf(buf, "%d_%d_%02X_%s", i, portStatu, powerbankStatu.ERROR,
 80133d6:	79fa      	ldrb	r2, [r7, #7]
 80133d8:	7df9      	ldrb	r1, [r7, #23]
 80133da:	4b37      	ldr	r3, [pc, #220]	; (80134b8 <checkPowerbankStatus+0x1d8>)
 80133dc:	789b      	ldrb	r3, [r3, #2]
 80133de:	4618      	mov	r0, r3
 80133e0:	4b36      	ldr	r3, [pc, #216]	; (80134bc <checkPowerbankStatus+0x1dc>)
 80133e2:	9301      	str	r3, [sp, #4]
 80133e4:	9000      	str	r0, [sp, #0]
 80133e6:	460b      	mov	r3, r1
 80133e8:	4935      	ldr	r1, [pc, #212]	; (80134c0 <checkPowerbankStatus+0x1e0>)
 80133ea:	6838      	ldr	r0, [r7, #0]
 80133ec:	f003 f906 	bl	80165fc <sprintf>
 80133f0:	e058      	b.n	80134a4 <checkPowerbankStatus+0x1c4>
					(char *) powerbankStatu.ChargeBankID);
		}
		else
		{
//			buf[0] = i + 0x30;
			strcpy(buf, itoa(i, i2s, 10));
 80133f2:	79fb      	ldrb	r3, [r7, #7]
 80133f4:	f107 010c 	add.w	r1, r7, #12
 80133f8:	220a      	movs	r2, #10
 80133fa:	4618      	mov	r0, r3
 80133fc:	f003 f826 	bl	801644c <itoa>
 8013400:	4603      	mov	r3, r0
 8013402:	4619      	mov	r1, r3
 8013404:	6838      	ldr	r0, [r7, #0]
 8013406:	f003 f93a 	bl	801667e <strcpy>
			strcat(buf, "_");
 801340a:	6838      	ldr	r0, [r7, #0]
 801340c:	f7fc ff16 	bl	801023c <strlen>
 8013410:	4603      	mov	r3, r0
 8013412:	461a      	mov	r2, r3
 8013414:	683b      	ldr	r3, [r7, #0]
 8013416:	4413      	add	r3, r2
 8013418:	492a      	ldr	r1, [pc, #168]	; (80134c4 <checkPowerbankStatus+0x1e4>)
 801341a:	461a      	mov	r2, r3
 801341c:	460b      	mov	r3, r1
 801341e:	881b      	ldrh	r3, [r3, #0]
 8013420:	8013      	strh	r3, [r2, #0]
			strcat(buf, itoa(portStatu, i2s, 10));
 8013422:	7dfb      	ldrb	r3, [r7, #23]
 8013424:	f107 010c 	add.w	r1, r7, #12
 8013428:	220a      	movs	r2, #10
 801342a:	4618      	mov	r0, r3
 801342c:	f003 f80e 	bl	801644c <itoa>
 8013430:	4603      	mov	r3, r0
 8013432:	4619      	mov	r1, r3
 8013434:	6838      	ldr	r0, [r7, #0]
 8013436:	f003 f905 	bl	8016644 <strcat>
			strcat(buf, "_");
 801343a:	6838      	ldr	r0, [r7, #0]
 801343c:	f7fc fefe 	bl	801023c <strlen>
 8013440:	4603      	mov	r3, r0
 8013442:	461a      	mov	r2, r3
 8013444:	683b      	ldr	r3, [r7, #0]
 8013446:	4413      	add	r3, r2
 8013448:	491e      	ldr	r1, [pc, #120]	; (80134c4 <checkPowerbankStatus+0x1e4>)
 801344a:	461a      	mov	r2, r3
 801344c:	460b      	mov	r3, r1
 801344e:	881b      	ldrh	r3, [r3, #0]
 8013450:	8013      	strh	r3, [r2, #0]
			strcat(buf, itoa(powerbankStatu.VOL, i2s, 10));
 8013452:	4b19      	ldr	r3, [pc, #100]	; (80134b8 <checkPowerbankStatus+0x1d8>)
 8013454:	781b      	ldrb	r3, [r3, #0]
 8013456:	4618      	mov	r0, r3
 8013458:	f107 030c 	add.w	r3, r7, #12
 801345c:	220a      	movs	r2, #10
 801345e:	4619      	mov	r1, r3
 8013460:	f002 fff4 	bl	801644c <itoa>
 8013464:	4603      	mov	r3, r0
 8013466:	4619      	mov	r1, r3
 8013468:	6838      	ldr	r0, [r7, #0]
 801346a:	f003 f8eb 	bl	8016644 <strcat>
			strcat(buf, "_");
 801346e:	6838      	ldr	r0, [r7, #0]
 8013470:	f7fc fee4 	bl	801023c <strlen>
 8013474:	4603      	mov	r3, r0
 8013476:	461a      	mov	r2, r3
 8013478:	683b      	ldr	r3, [r7, #0]
 801347a:	4413      	add	r3, r2
 801347c:	4911      	ldr	r1, [pc, #68]	; (80134c4 <checkPowerbankStatus+0x1e4>)
 801347e:	461a      	mov	r2, r3
 8013480:	460b      	mov	r3, r1
 8013482:	881b      	ldrh	r3, [r3, #0]
 8013484:	8013      	strh	r3, [r2, #0]
			strncat(buf, (char *) powerbankStatu.ChargeBankID, 8);
 8013486:	2208      	movs	r2, #8
 8013488:	490c      	ldr	r1, [pc, #48]	; (80134bc <checkPowerbankStatus+0x1dc>)
 801348a:	6838      	ldr	r0, [r7, #0]
 801348c:	f003 f8ff 	bl	801668e <strncat>
 8013490:	e008      	b.n	80134a4 <checkPowerbankStatus+0x1c4>
		}
	}
	//无3、4字段
	else
	{
		snprintf(buf, 4, "%d_%d", i, portStatu);
 8013492:	79fa      	ldrb	r2, [r7, #7]
 8013494:	7dfb      	ldrb	r3, [r7, #23]
 8013496:	9300      	str	r3, [sp, #0]
 8013498:	4613      	mov	r3, r2
 801349a:	4a0b      	ldr	r2, [pc, #44]	; (80134c8 <checkPowerbankStatus+0x1e8>)
 801349c:	2104      	movs	r1, #4
 801349e:	6838      	ldr	r0, [r7, #0]
 80134a0:	f003 f878 	bl	8016594 <snprintf>
	}
//	printf("%s\r\n", buf);
	return portStatu;
 80134a4:	7dfb      	ldrb	r3, [r7, #23]
}
 80134a6:	4618      	mov	r0, r3
 80134a8:	3718      	adds	r7, #24
 80134aa:	46bd      	mov	sp, r7
 80134ac:	bd80      	pop	{r7, pc}
 80134ae:	bf00      	nop
 80134b0:	20000000 	.word	0x20000000
 80134b4:	0801baf8 	.word	0x0801baf8
 80134b8:	20001190 	.word	0x20001190
 80134bc:	2000119d 	.word	0x2000119d
 80134c0:	0801b790 	.word	0x0801b790
 80134c4:	0801b7a0 	.word	0x0801b7a0
 80134c8:	0801b7a4 	.word	0x0801b7a4

080134cc <scanPowerBank>:

void scanPowerBank(void)
{
 80134cc:	b590      	push	{r4, r7, lr}
 80134ce:	b083      	sub	sp, #12
 80134d0:	af00      	add	r7, sp, #0
	u8 inx = 0;
 80134d2:	2300      	movs	r3, #0
 80134d4:	71fb      	strb	r3, [r7, #7]
	for (inx = 0; inx < 6; inx++)
 80134d6:	2300      	movs	r3, #0
 80134d8:	71fb      	strb	r3, [r7, #7]
 80134da:	e025      	b.n	8013528 <scanPowerBank+0x5c>
	{
		memset(powerbankStatu.powerBankBuf[inx], '\0', 18);
 80134dc:	79fa      	ldrb	r2, [r7, #7]
 80134de:	4613      	mov	r3, r2
 80134e0:	00db      	lsls	r3, r3, #3
 80134e2:	4413      	add	r3, r2
 80134e4:	005b      	lsls	r3, r3, #1
 80134e6:	3310      	adds	r3, #16
 80134e8:	4a13      	ldr	r2, [pc, #76]	; (8013538 <scanPowerBank+0x6c>)
 80134ea:	4413      	add	r3, r2
 80134ec:	3305      	adds	r3, #5
 80134ee:	2212      	movs	r2, #18
 80134f0:	2100      	movs	r1, #0
 80134f2:	4618      	mov	r0, r3
 80134f4:	f002 ffc6 	bl	8016484 <memset>
		F4G_Params.statuCode[inx] = checkPowerbankStatus(inx,
 80134f8:	79fc      	ldrb	r4, [r7, #7]
				powerbankStatu.powerBankBuf[inx]);
 80134fa:	79fa      	ldrb	r2, [r7, #7]
 80134fc:	4613      	mov	r3, r2
 80134fe:	00db      	lsls	r3, r3, #3
 8013500:	4413      	add	r3, r2
 8013502:	005b      	lsls	r3, r3, #1
 8013504:	3310      	adds	r3, #16
 8013506:	4a0c      	ldr	r2, [pc, #48]	; (8013538 <scanPowerBank+0x6c>)
 8013508:	4413      	add	r3, r2
 801350a:	1d5a      	adds	r2, r3, #5
		F4G_Params.statuCode[inx] = checkPowerbankStatus(inx,
 801350c:	79fb      	ldrb	r3, [r7, #7]
 801350e:	4611      	mov	r1, r2
 8013510:	4618      	mov	r0, r3
 8013512:	f7ff fee5 	bl	80132e0 <checkPowerbankStatus>
 8013516:	4603      	mov	r3, r0
 8013518:	461a      	mov	r2, r3
 801351a:	4b08      	ldr	r3, [pc, #32]	; (801353c <scanPowerBank+0x70>)
 801351c:	4423      	add	r3, r4
 801351e:	f883 2021 	strb.w	r2, [r3, #33]	; 0x21
	for (inx = 0; inx < 6; inx++)
 8013522:	79fb      	ldrb	r3, [r7, #7]
 8013524:	3301      	adds	r3, #1
 8013526:	71fb      	strb	r3, [r7, #7]
 8013528:	79fb      	ldrb	r3, [r7, #7]
 801352a:	2b05      	cmp	r3, #5
 801352c:	d9d6      	bls.n	80134dc <scanPowerBank+0x10>
	}
}
 801352e:	bf00      	nop
 8013530:	370c      	adds	r7, #12
 8013532:	46bd      	mov	sp, r7
 8013534:	bd90      	pop	{r4, r7, pc}
 8013536:	bf00      	nop
 8013538:	20001190 	.word	0x20001190
 801353c:	20001128 	.word	0x20001128

08013540 <setBATInstruction>:

/**
 * 根据检测的状态设置
 */
void setBATInstruction(u8 port, u8 sta)
{
 8013540:	b580      	push	{r7, lr}
 8013542:	b082      	sub	sp, #8
 8013544:	af00      	add	r7, sp, #0
 8013546:	4603      	mov	r3, r0
 8013548:	460a      	mov	r2, r1
 801354a:	71fb      	strb	r3, [r7, #7]
 801354c:	4613      	mov	r3, r2
 801354e:	71bb      	strb	r3, [r7, #6]
	if (sta >= 0 && sta <= 11)
 8013550:	79bb      	ldrb	r3, [r7, #6]
 8013552:	2b0b      	cmp	r3, #11
 8013554:	d85c      	bhi.n	8013610 <setBATInstruction+0xd0>
	{
		if (sta == 10) //卡口正常状态
 8013556:	79bb      	ldrb	r3, [r7, #6]
 8013558:	2b0a      	cmp	r3, #10
 801355a:	d123      	bne.n	80135a4 <setBATInstruction+0x64>
//				ledON(port + 1);
//				HC595_STATUS.slowBLINK[port] = 0; //慢闪
//				HC595_STATUS.fastBLINK[port] = 0;
//			}
			//11.10更改充电逻辑Start=========================================
			ledON(port + 1);
 801355c:	79fb      	ldrb	r3, [r7, #7]
 801355e:	3301      	adds	r3, #1
 8013560:	b2db      	uxtb	r3, r3
 8013562:	4618      	mov	r0, r3
 8013564:	f7fd fda8 	bl	80110b8 <ledON>
			HC595_STATUS.slowBLINK[port] = 0; //慢闪
 8013568:	79fb      	ldrb	r3, [r7, #7]
 801356a:	4a2b      	ldr	r2, [pc, #172]	; (8013618 <setBATInstruction+0xd8>)
 801356c:	4413      	add	r3, r2
 801356e:	2200      	movs	r2, #0
 8013570:	709a      	strb	r2, [r3, #2]
			HC595_STATUS.fastBLINK[port] = 0;
 8013572:	79fb      	ldrb	r3, [r7, #7]
 8013574:	4a28      	ldr	r2, [pc, #160]	; (8013618 <setBATInstruction+0xd8>)
 8013576:	4413      	add	r3, r2
 8013578:	2200      	movs	r2, #0
 801357a:	739a      	strb	r2, [r3, #14]
			if (powerbankStatu.VOL < 95) //电量不满95%充电
 801357c:	4b27      	ldr	r3, [pc, #156]	; (801361c <setBATInstruction+0xdc>)
 801357e:	781b      	ldrb	r3, [r3, #0]
 8013580:	2b5e      	cmp	r3, #94	; 0x5e
 8013582:	d807      	bhi.n	8013594 <setBATInstruction+0x54>
			{
				controlPowerBankCharge(port + 1, 1); //充电
 8013584:	79fb      	ldrb	r3, [r7, #7]
 8013586:	3301      	adds	r3, #1
 8013588:	b2db      	uxtb	r3, r3
 801358a:	2101      	movs	r1, #1
 801358c:	4618      	mov	r0, r3
 801358e:	f000 fad5 	bl	8013b3c <controlPowerBankCharge>
			HC595_STATUS.slowBLINK[port] = 0; //慢闪
			HC595_STATUS.fastBLINK[port] = 1; //快闪
			//ledON(port + 1);
		}
	}
}
 8013592:	e03d      	b.n	8013610 <setBATInstruction+0xd0>
				controlPowerBankCharge(port + 1, 0); //不充电
 8013594:	79fb      	ldrb	r3, [r7, #7]
 8013596:	3301      	adds	r3, #1
 8013598:	b2db      	uxtb	r3, r3
 801359a:	2100      	movs	r1, #0
 801359c:	4618      	mov	r0, r3
 801359e:	f000 facd 	bl	8013b3c <controlPowerBankCharge>
}
 80135a2:	e035      	b.n	8013610 <setBATInstruction+0xd0>
		else if (sta == 0) //正常无充电宝状态
 80135a4:	79bb      	ldrb	r3, [r7, #6]
 80135a6:	2b00      	cmp	r3, #0
 80135a8:	d11c      	bne.n	80135e4 <setBATInstruction+0xa4>
			powerbankStatu.Charging[port] = 0;
 80135aa:	79fb      	ldrb	r3, [r7, #7]
 80135ac:	4a1b      	ldr	r2, [pc, #108]	; (801361c <setBATInstruction+0xdc>)
 80135ae:	4413      	add	r3, r2
 80135b0:	2200      	movs	r2, #0
 80135b2:	719a      	strb	r2, [r3, #6]
			controlPowerBankCharge(port + 1, 0); //不充电
 80135b4:	79fb      	ldrb	r3, [r7, #7]
 80135b6:	3301      	adds	r3, #1
 80135b8:	b2db      	uxtb	r3, r3
 80135ba:	2100      	movs	r1, #0
 80135bc:	4618      	mov	r0, r3
 80135be:	f000 fabd 	bl	8013b3c <controlPowerBankCharge>
			ledOFF(port + 1);
 80135c2:	79fb      	ldrb	r3, [r7, #7]
 80135c4:	3301      	adds	r3, #1
 80135c6:	b2db      	uxtb	r3, r3
 80135c8:	4618      	mov	r0, r3
 80135ca:	f7fd fd9b 	bl	8011104 <ledOFF>
			HC595_STATUS.slowBLINK[port] = 0; //慢闪
 80135ce:	79fb      	ldrb	r3, [r7, #7]
 80135d0:	4a11      	ldr	r2, [pc, #68]	; (8013618 <setBATInstruction+0xd8>)
 80135d2:	4413      	add	r3, r2
 80135d4:	2200      	movs	r2, #0
 80135d6:	709a      	strb	r2, [r3, #2]
			HC595_STATUS.fastBLINK[port] = 0;
 80135d8:	79fb      	ldrb	r3, [r7, #7]
 80135da:	4a0f      	ldr	r2, [pc, #60]	; (8013618 <setBATInstruction+0xd8>)
 80135dc:	4413      	add	r3, r2
 80135de:	2200      	movs	r2, #0
 80135e0:	739a      	strb	r2, [r3, #14]
}
 80135e2:	e015      	b.n	8013610 <setBATInstruction+0xd0>
			powerbankStatu.Charging[port] = 0;
 80135e4:	79fb      	ldrb	r3, [r7, #7]
 80135e6:	4a0d      	ldr	r2, [pc, #52]	; (801361c <setBATInstruction+0xdc>)
 80135e8:	4413      	add	r3, r2
 80135ea:	2200      	movs	r2, #0
 80135ec:	719a      	strb	r2, [r3, #6]
			controlPowerBankCharge(port + 1, 0); //不充电
 80135ee:	79fb      	ldrb	r3, [r7, #7]
 80135f0:	3301      	adds	r3, #1
 80135f2:	b2db      	uxtb	r3, r3
 80135f4:	2100      	movs	r1, #0
 80135f6:	4618      	mov	r0, r3
 80135f8:	f000 faa0 	bl	8013b3c <controlPowerBankCharge>
			HC595_STATUS.slowBLINK[port] = 0; //慢闪
 80135fc:	79fb      	ldrb	r3, [r7, #7]
 80135fe:	4a06      	ldr	r2, [pc, #24]	; (8013618 <setBATInstruction+0xd8>)
 8013600:	4413      	add	r3, r2
 8013602:	2200      	movs	r2, #0
 8013604:	709a      	strb	r2, [r3, #2]
			HC595_STATUS.fastBLINK[port] = 1; //快闪
 8013606:	79fb      	ldrb	r3, [r7, #7]
 8013608:	4a03      	ldr	r2, [pc, #12]	; (8013618 <setBATInstruction+0xd8>)
 801360a:	4413      	add	r3, r2
 801360c:	2201      	movs	r2, #1
 801360e:	739a      	strb	r2, [r3, #14]
}
 8013610:	bf00      	nop
 8013612:	3708      	adds	r7, #8
 8013614:	46bd      	mov	sp, r7
 8013616:	bd80      	pop	{r7, pc}
 8013618:	200006ac 	.word	0x200006ac
 801361c:	20001190 	.word	0x20001190

08013620 <BSP_UART_SendOneByte>:
//============================================================================

uint8_t BSP_UART_SendOneByte(uint8_t data)
{
 8013620:	b580      	push	{r7, lr}
 8013622:	b082      	sub	sp, #8
 8013624:	af00      	add	r7, sp, #0
 8013626:	4603      	mov	r3, r0
 8013628:	71fb      	strb	r3, [r7, #7]
	USART_SendData(USART3, data);
 801362a:	79fb      	ldrb	r3, [r7, #7]
 801362c:	b29b      	uxth	r3, r3
 801362e:	4619      	mov	r1, r3
 8013630:	4807      	ldr	r0, [pc, #28]	; (8013650 <BSP_UART_SendOneByte+0x30>)
 8013632:	f001 fe8f 	bl	8015354 <USART_SendData>
	while (USART_GetFlagStatus(USART3, USART_FLAG_TC) != SET)
 8013636:	bf00      	nop
 8013638:	2140      	movs	r1, #64	; 0x40
 801363a:	4805      	ldr	r0, [pc, #20]	; (8013650 <BSP_UART_SendOneByte+0x30>)
 801363c:	f001 feaa 	bl	8015394 <USART_GetFlagStatus>
 8013640:	4603      	mov	r3, r0
 8013642:	2b01      	cmp	r3, #1
 8013644:	d1f8      	bne.n	8013638 <BSP_UART_SendOneByte+0x18>
		;
	return (data);
 8013646:	79fb      	ldrb	r3, [r7, #7]
}
 8013648:	4618      	mov	r0, r3
 801364a:	3708      	adds	r7, #8
 801364c:	46bd      	mov	sp, r7
 801364e:	bd80      	pop	{r7, pc}
 8013650:	40004800 	.word	0x40004800

08013654 <get_crc>:
 * @pbuf 待校验的数组
 * @num 待校验的个数
 * @return 校验后的crc值
 */
unsigned int get_crc(unsigned char pbuf[], unsigned char num)
{
 8013654:	b480      	push	{r7}
 8013656:	b085      	sub	sp, #20
 8013658:	af00      	add	r7, sp, #0
 801365a:	6078      	str	r0, [r7, #4]
 801365c:	460b      	mov	r3, r1
 801365e:	70fb      	strb	r3, [r7, #3]
	unsigned char i, j;
	unsigned int wcrc = 0x0000;
 8013660:	2300      	movs	r3, #0
 8013662:	60bb      	str	r3, [r7, #8]
	for (i = 0; i < num; i++)
 8013664:	2300      	movs	r3, #0
 8013666:	73fb      	strb	r3, [r7, #15]
 8013668:	e026      	b.n	80136b8 <get_crc+0x64>
	{
		wcrc ^= (pbuf[i] << 8);
 801366a:	7bfb      	ldrb	r3, [r7, #15]
 801366c:	687a      	ldr	r2, [r7, #4]
 801366e:	4413      	add	r3, r2
 8013670:	781b      	ldrb	r3, [r3, #0]
 8013672:	021b      	lsls	r3, r3, #8
 8013674:	461a      	mov	r2, r3
 8013676:	68bb      	ldr	r3, [r7, #8]
 8013678:	4053      	eors	r3, r2
 801367a:	60bb      	str	r3, [r7, #8]
		for (j = 0; j < 8; j++)
 801367c:	2300      	movs	r3, #0
 801367e:	73bb      	strb	r3, [r7, #14]
 8013680:	e014      	b.n	80136ac <get_crc+0x58>
		{
			if (wcrc & 0x8000)
 8013682:	68bb      	ldr	r3, [r7, #8]
 8013684:	f403 4300 	and.w	r3, r3, #32768	; 0x8000
 8013688:	2b00      	cmp	r3, #0
 801368a:	d009      	beq.n	80136a0 <get_crc+0x4c>
			{
				wcrc <<= 1;
 801368c:	68bb      	ldr	r3, [r7, #8]
 801368e:	005b      	lsls	r3, r3, #1
 8013690:	60bb      	str	r3, [r7, #8]
				wcrc ^= 0x1021;
 8013692:	68bb      	ldr	r3, [r7, #8]
 8013694:	f483 5381 	eor.w	r3, r3, #4128	; 0x1020
 8013698:	f083 0301 	eor.w	r3, r3, #1
 801369c:	60bb      	str	r3, [r7, #8]
 801369e:	e002      	b.n	80136a6 <get_crc+0x52>
			}
			else
			{
				wcrc <<= 1;
 80136a0:	68bb      	ldr	r3, [r7, #8]
 80136a2:	005b      	lsls	r3, r3, #1
 80136a4:	60bb      	str	r3, [r7, #8]
		for (j = 0; j < 8; j++)
 80136a6:	7bbb      	ldrb	r3, [r7, #14]
 80136a8:	3301      	adds	r3, #1
 80136aa:	73bb      	strb	r3, [r7, #14]
 80136ac:	7bbb      	ldrb	r3, [r7, #14]
 80136ae:	2b07      	cmp	r3, #7
 80136b0:	d9e7      	bls.n	8013682 <get_crc+0x2e>
	for (i = 0; i < num; i++)
 80136b2:	7bfb      	ldrb	r3, [r7, #15]
 80136b4:	3301      	adds	r3, #1
 80136b6:	73fb      	strb	r3, [r7, #15]
 80136b8:	7bfa      	ldrb	r2, [r7, #15]
 80136ba:	78fb      	ldrb	r3, [r7, #3]
 80136bc:	429a      	cmp	r2, r3
 80136be:	d3d4      	bcc.n	801366a <get_crc+0x16>
			}
		}
	}
	return wcrc;
 80136c0:	68bb      	ldr	r3, [r7, #8]
}
 80136c2:	4618      	mov	r0, r3
 80136c4:	3714      	adds	r7, #20
 80136c6:	46bd      	mov	sp, r7
 80136c8:	bc80      	pop	{r7}
 80136ca:	4770      	bx	lr

080136cc <get_crc_2>:
/**
 * CRC16校验函数
 * 可变参，@num为进行校验的数量
 */
unsigned int get_crc_2(int num, ...)
{
 80136cc:	b40f      	push	{r0, r1, r2, r3}
 80136ce:	b480      	push	{r7}
 80136d0:	b085      	sub	sp, #20
 80136d2:	af00      	add	r7, sp, #0
	va_list ap;  //声明参数指针
	unsigned int wcrc = 0x0000;
 80136d4:	2300      	movs	r3, #0
 80136d6:	60fb      	str	r3, [r7, #12]
	unsigned char j = 0;
 80136d8:	2300      	movs	r3, #0
 80136da:	72fb      	strb	r3, [r7, #11]
	va_start(ap, num); //设置参数指针
 80136dc:	f107 031c 	add.w	r3, r7, #28
 80136e0:	607b      	str	r3, [r7, #4]
	while (num)
 80136e2:	e026      	b.n	8013732 <get_crc_2+0x66>
	{
		wcrc ^= (va_arg(ap, int) << 8);
 80136e4:	687b      	ldr	r3, [r7, #4]
 80136e6:	1d1a      	adds	r2, r3, #4
 80136e8:	607a      	str	r2, [r7, #4]
 80136ea:	681b      	ldr	r3, [r3, #0]
 80136ec:	021b      	lsls	r3, r3, #8
 80136ee:	461a      	mov	r2, r3
 80136f0:	68fb      	ldr	r3, [r7, #12]
 80136f2:	4053      	eors	r3, r2
 80136f4:	60fb      	str	r3, [r7, #12]
		for (j = 0; j < 8; j++)
 80136f6:	2300      	movs	r3, #0
 80136f8:	72fb      	strb	r3, [r7, #11]
 80136fa:	e014      	b.n	8013726 <get_crc_2+0x5a>
		{
			if (wcrc & 0x8000)
 80136fc:	68fb      	ldr	r3, [r7, #12]
 80136fe:	f403 4300 	and.w	r3, r3, #32768	; 0x8000
 8013702:	2b00      	cmp	r3, #0
 8013704:	d009      	beq.n	801371a <get_crc_2+0x4e>
			{
				wcrc <<= 1;
 8013706:	68fb      	ldr	r3, [r7, #12]
 8013708:	005b      	lsls	r3, r3, #1
 801370a:	60fb      	str	r3, [r7, #12]
				wcrc ^= 0x1021;
 801370c:	68fb      	ldr	r3, [r7, #12]
 801370e:	f483 5381 	eor.w	r3, r3, #4128	; 0x1020
 8013712:	f083 0301 	eor.w	r3, r3, #1
 8013716:	60fb      	str	r3, [r7, #12]
 8013718:	e002      	b.n	8013720 <get_crc_2+0x54>
			}
			else
			{
				wcrc <<= 1;
 801371a:	68fb      	ldr	r3, [r7, #12]
 801371c:	005b      	lsls	r3, r3, #1
 801371e:	60fb      	str	r3, [r7, #12]
		for (j = 0; j < 8; j++)
 8013720:	7afb      	ldrb	r3, [r7, #11]
 8013722:	3301      	adds	r3, #1
 8013724:	72fb      	strb	r3, [r7, #11]
 8013726:	7afb      	ldrb	r3, [r7, #11]
 8013728:	2b07      	cmp	r3, #7
 801372a:	d9e7      	bls.n	80136fc <get_crc_2+0x30>
			}
		}
		num--;
 801372c:	69bb      	ldr	r3, [r7, #24]
 801372e:	3b01      	subs	r3, #1
 8013730:	61bb      	str	r3, [r7, #24]
	while (num)
 8013732:	69bb      	ldr	r3, [r7, #24]
 8013734:	2b00      	cmp	r3, #0
 8013736:	d1d5      	bne.n	80136e4 <get_crc_2+0x18>
	}
	va_end(ap); //释放指针资源
	return wcrc;
 8013738:	68fb      	ldr	r3, [r7, #12]
}
 801373a:	4618      	mov	r0, r3
 801373c:	3714      	adds	r7, #20
 801373e:	46bd      	mov	sp, r7
 8013740:	bc80      	pop	{r7}
 8013742:	b004      	add	sp, #16
 8013744:	4770      	bx	lr
	...

08013748 <BSP_UART_SendMultipleBytes>:
 * IN：      data 待发送数据
 * OUT：     无
 * Return：  无
 */
void BSP_UART_SendMultipleBytes(unsigned char buf[], unsigned char len)
{
 8013748:	b580      	push	{r7, lr}
 801374a:	b084      	sub	sp, #16
 801374c:	af00      	add	r7, sp, #0
 801374e:	6078      	str	r0, [r7, #4]
 8013750:	460b      	mov	r3, r1
 8013752:	70fb      	strb	r3, [r7, #3]
	uint8_t i;
	UART3_RX_BUF.counter = 0;
 8013754:	4b0b      	ldr	r3, [pc, #44]	; (8013784 <BSP_UART_SendMultipleBytes+0x3c>)
 8013756:	2200      	movs	r2, #0
 8013758:	705a      	strb	r2, [r3, #1]
	for (i = 0; i < len; i++)
 801375a:	2300      	movs	r3, #0
 801375c:	73fb      	strb	r3, [r7, #15]
 801375e:	e009      	b.n	8013774 <BSP_UART_SendMultipleBytes+0x2c>
	{
		BSP_UART_SendOneByte(buf[i]);
 8013760:	7bfb      	ldrb	r3, [r7, #15]
 8013762:	687a      	ldr	r2, [r7, #4]
 8013764:	4413      	add	r3, r2
 8013766:	781b      	ldrb	r3, [r3, #0]
 8013768:	4618      	mov	r0, r3
 801376a:	f7ff ff59 	bl	8013620 <BSP_UART_SendOneByte>
	for (i = 0; i < len; i++)
 801376e:	7bfb      	ldrb	r3, [r7, #15]
 8013770:	3301      	adds	r3, #1
 8013772:	73fb      	strb	r3, [r7, #15]
 8013774:	7bfa      	ldrb	r2, [r7, #15]
 8013776:	78fb      	ldrb	r3, [r7, #3]
 8013778:	429a      	cmp	r2, r3
 801377a:	d3f1      	bcc.n	8013760 <BSP_UART_SendMultipleBytes+0x18>
	}
}
 801377c:	bf00      	nop
 801377e:	3710      	adds	r7, #16
 8013780:	46bd      	mov	sp, r7
 8013782:	bd80      	pop	{r7, pc}
 8013784:	20001164 	.word	0x20001164

08013788 <app_frame_anasys>:
 *   input:  none
 *   output: none
 *   return: none
 */
void app_frame_anasys(void)
{
 8013788:	b580      	push	{r7, lr}
 801378a:	b082      	sub	sp, #8
 801378c:	af00      	add	r7, sp, #0
	uint8_t i = 0;
 801378e:	2300      	movs	r3, #0
 8013790:	71fb      	strb	r3, [r7, #7]
	uint16_t crc;
//取出指令长度
	framMag.len = UART3_RX_BUF.data[1];
 8013792:	4b1f      	ldr	r3, [pc, #124]	; (8013810 <app_frame_anasys+0x88>)
 8013794:	791a      	ldrb	r2, [r3, #4]
 8013796:	4b1f      	ldr	r3, [pc, #124]	; (8013814 <app_frame_anasys+0x8c>)
 8013798:	701a      	strb	r2, [r3, #0]
//取出控制字
	framMag.cmd = UART3_RX_BUF.data[2];
 801379a:	4b1d      	ldr	r3, [pc, #116]	; (8013810 <app_frame_anasys+0x88>)
 801379c:	795a      	ldrb	r2, [r3, #5]
 801379e:	4b1d      	ldr	r3, [pc, #116]	; (8013814 <app_frame_anasys+0x8c>)
 80137a0:	705a      	strb	r2, [r3, #1]
//填充待CRC校验的字节
	for (i = 0; i < framMag.len - 4; i++)
 80137a2:	2300      	movs	r3, #0
 80137a4:	71fb      	strb	r3, [r7, #7]
 80137a6:	e00c      	b.n	80137c2 <app_frame_anasys+0x3a>
	{
		framMag.CRC_BUF[i] = UART3_RX_BUF.data[i + 1];
 80137a8:	79fb      	ldrb	r3, [r7, #7]
 80137aa:	79fa      	ldrb	r2, [r7, #7]
 80137ac:	3201      	adds	r2, #1
 80137ae:	4918      	ldr	r1, [pc, #96]	; (8013810 <app_frame_anasys+0x88>)
 80137b0:	440a      	add	r2, r1
 80137b2:	78d1      	ldrb	r1, [r2, #3]
 80137b4:	4a17      	ldr	r2, [pc, #92]	; (8013814 <app_frame_anasys+0x8c>)
 80137b6:	4413      	add	r3, r2
 80137b8:	460a      	mov	r2, r1
 80137ba:	709a      	strb	r2, [r3, #2]
	for (i = 0; i < framMag.len - 4; i++)
 80137bc:	79fb      	ldrb	r3, [r7, #7]
 80137be:	3301      	adds	r3, #1
 80137c0:	71fb      	strb	r3, [r7, #7]
 80137c2:	79fa      	ldrb	r2, [r7, #7]
 80137c4:	4b13      	ldr	r3, [pc, #76]	; (8013814 <app_frame_anasys+0x8c>)
 80137c6:	781b      	ldrb	r3, [r3, #0]
 80137c8:	3b04      	subs	r3, #4
 80137ca:	429a      	cmp	r2, r3
 80137cc:	dbec      	blt.n	80137a8 <app_frame_anasys+0x20>
	}
	crc = get_crc(framMag.CRC_BUF, framMag.len - 4);
 80137ce:	4b11      	ldr	r3, [pc, #68]	; (8013814 <app_frame_anasys+0x8c>)
 80137d0:	781b      	ldrb	r3, [r3, #0]
 80137d2:	3b04      	subs	r3, #4
 80137d4:	b2db      	uxtb	r3, r3
 80137d6:	4619      	mov	r1, r3
 80137d8:	480f      	ldr	r0, [pc, #60]	; (8013818 <app_frame_anasys+0x90>)
 80137da:	f7ff ff3b 	bl	8013654 <get_crc>
 80137de:	4603      	mov	r3, r0
 80137e0:	80bb      	strh	r3, [r7, #4]
//判断CRC校验值是否正确
	if (crc
			== (UART3_RX_BUF.data[framMag.len - 3] << 8
 80137e2:	88ba      	ldrh	r2, [r7, #4]
 80137e4:	4b0b      	ldr	r3, [pc, #44]	; (8013814 <app_frame_anasys+0x8c>)
 80137e6:	781b      	ldrb	r3, [r3, #0]
 80137e8:	3b03      	subs	r3, #3
 80137ea:	4909      	ldr	r1, [pc, #36]	; (8013810 <app_frame_anasys+0x88>)
 80137ec:	440b      	add	r3, r1
 80137ee:	78db      	ldrb	r3, [r3, #3]
 80137f0:	021b      	lsls	r3, r3, #8
					| UART3_RX_BUF.data[framMag.len - 2]))
 80137f2:	4908      	ldr	r1, [pc, #32]	; (8013814 <app_frame_anasys+0x8c>)
 80137f4:	7809      	ldrb	r1, [r1, #0]
 80137f6:	3902      	subs	r1, #2
 80137f8:	4805      	ldr	r0, [pc, #20]	; (8013810 <app_frame_anasys+0x88>)
 80137fa:	4401      	add	r1, r0
 80137fc:	78c9      	ldrb	r1, [r1, #3]
 80137fe:	430b      	orrs	r3, r1
	if (crc
 8013800:	429a      	cmp	r2, r3
 8013802:	d101      	bne.n	8013808 <app_frame_anasys+0x80>
	{
		//开始解析命令
		app_cmd_anasys();
 8013804:	f000 f80a 	bl	801381c <app_cmd_anasys>
	}
}
 8013808:	bf00      	nop
 801380a:	3708      	adds	r7, #8
 801380c:	46bd      	mov	sp, r7
 801380e:	bd80      	pop	{r7, pc}
 8013810:	20001164 	.word	0x20001164
 8013814:	2000117c 	.word	0x2000117c
 8013818:	2000117e 	.word	0x2000117e

0801381c <app_cmd_anasys>:
 *   input:  none
 *   output: none
 *   return: none
 */
void app_cmd_anasys(void)
{
 801381c:	b480      	push	{r7}
 801381e:	b083      	sub	sp, #12
 8013820:	af00      	add	r7, sp, #0
	uint8_t inx = 0;
 8013822:	2300      	movs	r3, #0
 8013824:	71fb      	strb	r3, [r7, #7]
	switch (framMag.cmd)
 8013826:	4b53      	ldr	r3, [pc, #332]	; (8013974 <app_cmd_anasys+0x158>)
 8013828:	785b      	ldrb	r3, [r3, #1]
 801382a:	2b83      	cmp	r3, #131	; 0x83
 801382c:	d05e      	beq.n	80138ec <app_cmd_anasys+0xd0>
 801382e:	2b83      	cmp	r3, #131	; 0x83
 8013830:	dc04      	bgt.n	801383c <app_cmd_anasys+0x20>
 8013832:	2b81      	cmp	r3, #129	; 0x81
 8013834:	d028      	beq.n	8013888 <app_cmd_anasys+0x6c>
 8013836:	2b82      	cmp	r3, #130	; 0x82
 8013838:	d03d      	beq.n	80138b6 <app_cmd_anasys+0x9a>
		}
//		printf("%s.ERROR=%02X\r\n", powerbankStatu.ChargeBankID,
//				powerbankStatu.ERROR);
		break;
	default:
		break;
 801383a:	e095      	b.n	8013968 <app_cmd_anasys+0x14c>
	switch (framMag.cmd)
 801383c:	2b8f      	cmp	r3, #143	; 0x8f
 801383e:	d004      	beq.n	801384a <app_cmd_anasys+0x2e>
 8013840:	2bff      	cmp	r3, #255	; 0xff
 8013842:	d01d      	beq.n	8013880 <app_cmd_anasys+0x64>
 8013844:	2b8a      	cmp	r3, #138	; 0x8a
 8013846:	d074      	beq.n	8013932 <app_cmd_anasys+0x116>
		break;
 8013848:	e08e      	b.n	8013968 <app_cmd_anasys+0x14c>
		powerbankStatu.TEST = 1;
 801384a:	4b4b      	ldr	r3, [pc, #300]	; (8013978 <app_cmd_anasys+0x15c>)
 801384c:	2201      	movs	r2, #1
 801384e:	705a      	strb	r2, [r3, #1]
		powerbankStatu.VOL = UART3_RX_BUF.data[11];
 8013850:	4b4a      	ldr	r3, [pc, #296]	; (801397c <app_cmd_anasys+0x160>)
 8013852:	7b9a      	ldrb	r2, [r3, #14]
 8013854:	4b48      	ldr	r3, [pc, #288]	; (8013978 <app_cmd_anasys+0x15c>)
 8013856:	701a      	strb	r2, [r3, #0]
		for (inx = 0; inx < ChargeBankIDSize; inx++)
 8013858:	2300      	movs	r3, #0
 801385a:	71fb      	strb	r3, [r7, #7]
 801385c:	e00c      	b.n	8013878 <app_cmd_anasys+0x5c>
			powerbankStatu.ChargeBankID[inx] = UART3_RX_BUF.data[inx + 3];
 801385e:	79fb      	ldrb	r3, [r7, #7]
 8013860:	79fa      	ldrb	r2, [r7, #7]
 8013862:	3203      	adds	r2, #3
 8013864:	4945      	ldr	r1, [pc, #276]	; (801397c <app_cmd_anasys+0x160>)
 8013866:	440a      	add	r2, r1
 8013868:	78d1      	ldrb	r1, [r2, #3]
 801386a:	4a43      	ldr	r2, [pc, #268]	; (8013978 <app_cmd_anasys+0x15c>)
 801386c:	4413      	add	r3, r2
 801386e:	460a      	mov	r2, r1
 8013870:	735a      	strb	r2, [r3, #13]
		for (inx = 0; inx < ChargeBankIDSize; inx++)
 8013872:	79fb      	ldrb	r3, [r7, #7]
 8013874:	3301      	adds	r3, #1
 8013876:	71fb      	strb	r3, [r7, #7]
 8013878:	79fb      	ldrb	r3, [r7, #7]
 801387a:	2b07      	cmp	r3, #7
 801387c:	d9ef      	bls.n	801385e <app_cmd_anasys+0x42>
		break;
 801387e:	e073      	b.n	8013968 <app_cmd_anasys+0x14c>
		powerbankStatu.TEST = 1;
 8013880:	4b3d      	ldr	r3, [pc, #244]	; (8013978 <app_cmd_anasys+0x15c>)
 8013882:	2201      	movs	r2, #1
 8013884:	705a      	strb	r2, [r3, #1]
		break;
 8013886:	e06f      	b.n	8013968 <app_cmd_anasys+0x14c>
		powerbankStatu.TEST = 1;
 8013888:	4b3b      	ldr	r3, [pc, #236]	; (8013978 <app_cmd_anasys+0x15c>)
 801388a:	2201      	movs	r2, #1
 801388c:	705a      	strb	r2, [r3, #1]
		for (inx = 0; inx < ChargeBankIDSize; inx++)
 801388e:	2300      	movs	r3, #0
 8013890:	71fb      	strb	r3, [r7, #7]
 8013892:	e00c      	b.n	80138ae <app_cmd_anasys+0x92>
			powerbankStatu.ChargeBankID[inx] = UART3_RX_BUF.data[inx + 3];
 8013894:	79fb      	ldrb	r3, [r7, #7]
 8013896:	79fa      	ldrb	r2, [r7, #7]
 8013898:	3203      	adds	r2, #3
 801389a:	4938      	ldr	r1, [pc, #224]	; (801397c <app_cmd_anasys+0x160>)
 801389c:	440a      	add	r2, r1
 801389e:	78d1      	ldrb	r1, [r2, #3]
 80138a0:	4a35      	ldr	r2, [pc, #212]	; (8013978 <app_cmd_anasys+0x15c>)
 80138a2:	4413      	add	r3, r2
 80138a4:	460a      	mov	r2, r1
 80138a6:	735a      	strb	r2, [r3, #13]
		for (inx = 0; inx < ChargeBankIDSize; inx++)
 80138a8:	79fb      	ldrb	r3, [r7, #7]
 80138aa:	3301      	adds	r3, #1
 80138ac:	71fb      	strb	r3, [r7, #7]
 80138ae:	79fb      	ldrb	r3, [r7, #7]
 80138b0:	2b07      	cmp	r3, #7
 80138b2:	d9ef      	bls.n	8013894 <app_cmd_anasys+0x78>
		break;
 80138b4:	e058      	b.n	8013968 <app_cmd_anasys+0x14c>
		powerbankStatu.TEST = 1;
 80138b6:	4b30      	ldr	r3, [pc, #192]	; (8013978 <app_cmd_anasys+0x15c>)
 80138b8:	2201      	movs	r2, #1
 80138ba:	705a      	strb	r2, [r3, #1]
		powerbankStatu.VOL = UART3_RX_BUF.data[11];
 80138bc:	4b2f      	ldr	r3, [pc, #188]	; (801397c <app_cmd_anasys+0x160>)
 80138be:	7b9a      	ldrb	r2, [r3, #14]
 80138c0:	4b2d      	ldr	r3, [pc, #180]	; (8013978 <app_cmd_anasys+0x15c>)
 80138c2:	701a      	strb	r2, [r3, #0]
		for (inx = 0; inx < ChargeBankIDSize; inx++)
 80138c4:	2300      	movs	r3, #0
 80138c6:	71fb      	strb	r3, [r7, #7]
 80138c8:	e00c      	b.n	80138e4 <app_cmd_anasys+0xc8>
			powerbankStatu.ChargeBankID[inx] = UART3_RX_BUF.data[inx + 3];
 80138ca:	79fb      	ldrb	r3, [r7, #7]
 80138cc:	79fa      	ldrb	r2, [r7, #7]
 80138ce:	3203      	adds	r2, #3
 80138d0:	492a      	ldr	r1, [pc, #168]	; (801397c <app_cmd_anasys+0x160>)
 80138d2:	440a      	add	r2, r1
 80138d4:	78d1      	ldrb	r1, [r2, #3]
 80138d6:	4a28      	ldr	r2, [pc, #160]	; (8013978 <app_cmd_anasys+0x15c>)
 80138d8:	4413      	add	r3, r2
 80138da:	460a      	mov	r2, r1
 80138dc:	735a      	strb	r2, [r3, #13]
		for (inx = 0; inx < ChargeBankIDSize; inx++)
 80138de:	79fb      	ldrb	r3, [r7, #7]
 80138e0:	3301      	adds	r3, #1
 80138e2:	71fb      	strb	r3, [r7, #7]
 80138e4:	79fb      	ldrb	r3, [r7, #7]
 80138e6:	2b07      	cmp	r3, #7
 80138e8:	d9ef      	bls.n	80138ca <app_cmd_anasys+0xae>
		break;
 80138ea:	e03d      	b.n	8013968 <app_cmd_anasys+0x14c>
		powerbankStatu.TEST = 1;
 80138ec:	4b22      	ldr	r3, [pc, #136]	; (8013978 <app_cmd_anasys+0x15c>)
 80138ee:	2201      	movs	r2, #1
 80138f0:	705a      	strb	r2, [r3, #1]
		powerbankStatu.CUR = (UART3_RX_BUF.data[11] << 8)
 80138f2:	4b22      	ldr	r3, [pc, #136]	; (801397c <app_cmd_anasys+0x160>)
 80138f4:	7b9b      	ldrb	r3, [r3, #14]
 80138f6:	021b      	lsls	r3, r3, #8
				| UART3_RX_BUF.data[12];
 80138f8:	b21a      	sxth	r2, r3
 80138fa:	4b20      	ldr	r3, [pc, #128]	; (801397c <app_cmd_anasys+0x160>)
 80138fc:	7bdb      	ldrb	r3, [r3, #15]
 80138fe:	b21b      	sxth	r3, r3
 8013900:	4313      	orrs	r3, r2
 8013902:	b21b      	sxth	r3, r3
 8013904:	b29a      	uxth	r2, r3
		powerbankStatu.CUR = (UART3_RX_BUF.data[11] << 8)
 8013906:	4b1c      	ldr	r3, [pc, #112]	; (8013978 <app_cmd_anasys+0x15c>)
 8013908:	809a      	strh	r2, [r3, #4]
		for (inx = 0; inx < ChargeBankIDSize; inx++)
 801390a:	2300      	movs	r3, #0
 801390c:	71fb      	strb	r3, [r7, #7]
 801390e:	e00c      	b.n	801392a <app_cmd_anasys+0x10e>
			powerbankStatu.ChargeBankID[inx] = UART3_RX_BUF.data[inx + 3];
 8013910:	79fb      	ldrb	r3, [r7, #7]
 8013912:	79fa      	ldrb	r2, [r7, #7]
 8013914:	3203      	adds	r2, #3
 8013916:	4919      	ldr	r1, [pc, #100]	; (801397c <app_cmd_anasys+0x160>)
 8013918:	440a      	add	r2, r1
 801391a:	78d1      	ldrb	r1, [r2, #3]
 801391c:	4a16      	ldr	r2, [pc, #88]	; (8013978 <app_cmd_anasys+0x15c>)
 801391e:	4413      	add	r3, r2
 8013920:	460a      	mov	r2, r1
 8013922:	735a      	strb	r2, [r3, #13]
		for (inx = 0; inx < ChargeBankIDSize; inx++)
 8013924:	79fb      	ldrb	r3, [r7, #7]
 8013926:	3301      	adds	r3, #1
 8013928:	71fb      	strb	r3, [r7, #7]
 801392a:	79fb      	ldrb	r3, [r7, #7]
 801392c:	2b07      	cmp	r3, #7
 801392e:	d9ef      	bls.n	8013910 <app_cmd_anasys+0xf4>
		break;
 8013930:	e01a      	b.n	8013968 <app_cmd_anasys+0x14c>
		powerbankStatu.TEST = 1;
 8013932:	4b11      	ldr	r3, [pc, #68]	; (8013978 <app_cmd_anasys+0x15c>)
 8013934:	2201      	movs	r2, #1
 8013936:	705a      	strb	r2, [r3, #1]
		powerbankStatu.ERROR = UART3_RX_BUF.data[11];
 8013938:	4b10      	ldr	r3, [pc, #64]	; (801397c <app_cmd_anasys+0x160>)
 801393a:	7b9a      	ldrb	r2, [r3, #14]
 801393c:	4b0e      	ldr	r3, [pc, #56]	; (8013978 <app_cmd_anasys+0x15c>)
 801393e:	709a      	strb	r2, [r3, #2]
		for (inx = 0; inx < ChargeBankIDSize; inx++)
 8013940:	2300      	movs	r3, #0
 8013942:	71fb      	strb	r3, [r7, #7]
 8013944:	e00c      	b.n	8013960 <app_cmd_anasys+0x144>
			powerbankStatu.ChargeBankID[inx] = UART3_RX_BUF.data[inx + 3];
 8013946:	79fb      	ldrb	r3, [r7, #7]
 8013948:	79fa      	ldrb	r2, [r7, #7]
 801394a:	3203      	adds	r2, #3
 801394c:	490b      	ldr	r1, [pc, #44]	; (801397c <app_cmd_anasys+0x160>)
 801394e:	440a      	add	r2, r1
 8013950:	78d1      	ldrb	r1, [r2, #3]
 8013952:	4a09      	ldr	r2, [pc, #36]	; (8013978 <app_cmd_anasys+0x15c>)
 8013954:	4413      	add	r3, r2
 8013956:	460a      	mov	r2, r1
 8013958:	735a      	strb	r2, [r3, #13]
		for (inx = 0; inx < ChargeBankIDSize; inx++)
 801395a:	79fb      	ldrb	r3, [r7, #7]
 801395c:	3301      	adds	r3, #1
 801395e:	71fb      	strb	r3, [r7, #7]
 8013960:	79fb      	ldrb	r3, [r7, #7]
 8013962:	2b07      	cmp	r3, #7
 8013964:	d9ef      	bls.n	8013946 <app_cmd_anasys+0x12a>
		break;
 8013966:	bf00      	nop
	}
}
 8013968:	bf00      	nop
 801396a:	370c      	adds	r7, #12
 801396c:	46bd      	mov	sp, r7
 801396e:	bc80      	pop	{r7}
 8013970:	4770      	bx	lr
 8013972:	bf00      	nop
 8013974:	2000117c 	.word	0x2000117c
 8013978:	20001190 	.word	0x20001190
 801397c:	20001164 	.word	0x20001164

08013980 <controlPowerbank>:
/**
 * 控制充电宝
 * @cmd 控制字
 */
void controlPowerbank(u8 cmd)
{
 8013980:	b580      	push	{r7, lr}
 8013982:	b084      	sub	sp, #16
 8013984:	af00      	add	r7, sp, #0
 8013986:	4603      	mov	r3, r0
 8013988:	71fb      	strb	r3, [r7, #7]
	unsigned char DOWN_Data_BUF[6];
	u16 crc;
	DOWN_Data_BUF[0] = CMD_Header;
 801398a:	23a0      	movs	r3, #160	; 0xa0
 801398c:	723b      	strb	r3, [r7, #8]
	DOWN_Data_BUF[1] = 0x06;
 801398e:	2306      	movs	r3, #6
 8013990:	727b      	strb	r3, [r7, #9]
	DOWN_Data_BUF[2] = cmd;
 8013992:	79fb      	ldrb	r3, [r7, #7]
 8013994:	72bb      	strb	r3, [r7, #10]
	crc = get_crc_2(2, DOWN_Data_BUF[1], DOWN_Data_BUF[2]);
 8013996:	7a7b      	ldrb	r3, [r7, #9]
 8013998:	4619      	mov	r1, r3
 801399a:	7abb      	ldrb	r3, [r7, #10]
 801399c:	461a      	mov	r2, r3
 801399e:	2002      	movs	r0, #2
 80139a0:	f7ff fe94 	bl	80136cc <get_crc_2>
 80139a4:	4603      	mov	r3, r0
 80139a6:	81fb      	strh	r3, [r7, #14]
	DOWN_Data_BUF[3] = crc >> 8 & 0xFF;
 80139a8:	89fb      	ldrh	r3, [r7, #14]
 80139aa:	0a1b      	lsrs	r3, r3, #8
 80139ac:	b29b      	uxth	r3, r3
 80139ae:	b2db      	uxtb	r3, r3
 80139b0:	72fb      	strb	r3, [r7, #11]
	DOWN_Data_BUF[4] = crc & 0xFF;
 80139b2:	89fb      	ldrh	r3, [r7, #14]
 80139b4:	b2db      	uxtb	r3, r3
 80139b6:	733b      	strb	r3, [r7, #12]
	DOWN_Data_BUF[5] = CMD_End;
 80139b8:	23a1      	movs	r3, #161	; 0xa1
 80139ba:	737b      	strb	r3, [r7, #13]

	BSP_UART_SendMultipleBytes(DOWN_Data_BUF, DOWN_Data_BUF[1]);
 80139bc:	7a7a      	ldrb	r2, [r7, #9]
 80139be:	f107 0308 	add.w	r3, r7, #8
 80139c2:	4611      	mov	r1, r2
 80139c4:	4618      	mov	r0, r3
 80139c6:	f7ff febf 	bl	8013748 <BSP_UART_SendMultipleBytes>
}
 80139ca:	bf00      	nop
 80139cc:	3710      	adds	r7, #16
 80139ce:	46bd      	mov	sp, r7
 80139d0:	bd80      	pop	{r7, pc}
	...

080139d4 <USART3_IRQHandler>:
 * 函数功能		   : USART3中断函数
 * 输    入         : 无
 * 输    出         : 无
 *******************************************************************************/
void USART3_IRQHandler(void)
{
 80139d4:	b580      	push	{r7, lr}
 80139d6:	b082      	sub	sp, #8
 80139d8:	af00      	add	r7, sp, #0
	char data;
	if (USART_GetITStatus(USART3, USART_IT_RXNE) != RESET)  //接收中断
 80139da:	f240 5125 	movw	r1, #1317	; 0x525
 80139de:	4832      	ldr	r0, [pc, #200]	; (8013aa8 <USART3_IRQHandler+0xd4>)
 80139e0:	f001 fd03 	bl	80153ea <USART_GetITStatus>
 80139e4:	4603      	mov	r3, r0
 80139e6:	2b00      	cmp	r3, #0
 80139e8:	d04c      	beq.n	8013a84 <USART3_IRQHandler+0xb0>
	{
		USART_ClearITPendingBit(USART3, USART_IT_RXNE);
 80139ea:	f240 5125 	movw	r1, #1317	; 0x525
 80139ee:	482e      	ldr	r0, [pc, #184]	; (8013aa8 <USART3_IRQHandler+0xd4>)
 80139f0:	f001 fd55 	bl	801549e <USART_ClearITPendingBit>
		data = USART_ReceiveData(USART3);  //(USART1->DR);	//读取接收到的数据
 80139f4:	482c      	ldr	r0, [pc, #176]	; (8013aa8 <USART3_IRQHandler+0xd4>)
 80139f6:	f001 fcbe 	bl	8015376 <USART_ReceiveData>
 80139fa:	4603      	mov	r3, r0
 80139fc:	71fb      	strb	r3, [r7, #7]
		if (UART3_RX_BUF.flag == 0)  //是否允许接收新的数据包
 80139fe:	4b2b      	ldr	r3, [pc, #172]	; (8013aac <USART3_IRQHandler+0xd8>)
 8013a00:	781b      	ldrb	r3, [r3, #0]
 8013a02:	2b00      	cmp	r3, #0
 8013a04:	d13e      	bne.n	8013a84 <USART3_IRQHandler+0xb0>
		{
			UART3_RX_BUF.data[UART3_RX_BUF.counter] = data; //填充数据
 8013a06:	4b29      	ldr	r3, [pc, #164]	; (8013aac <USART3_IRQHandler+0xd8>)
 8013a08:	785b      	ldrb	r3, [r3, #1]
 8013a0a:	461a      	mov	r2, r3
 8013a0c:	4b27      	ldr	r3, [pc, #156]	; (8013aac <USART3_IRQHandler+0xd8>)
 8013a0e:	4413      	add	r3, r2
 8013a10:	79fa      	ldrb	r2, [r7, #7]
 8013a12:	70da      	strb	r2, [r3, #3]
			UART3_RX_BUF.counter++;
 8013a14:	4b25      	ldr	r3, [pc, #148]	; (8013aac <USART3_IRQHandler+0xd8>)
 8013a16:	785b      	ldrb	r3, [r3, #1]
 8013a18:	3301      	adds	r3, #1
 8013a1a:	b2da      	uxtb	r2, r3
 8013a1c:	4b23      	ldr	r3, [pc, #140]	; (8013aac <USART3_IRQHandler+0xd8>)
 8013a1e:	705a      	strb	r2, [r3, #1]
			switch (UART3_RX_BUF.counter)
 8013a20:	4b22      	ldr	r3, [pc, #136]	; (8013aac <USART3_IRQHandler+0xd8>)
 8013a22:	785b      	ldrb	r3, [r3, #1]
 8013a24:	2b02      	cmp	r3, #2
 8013a26:	d00a      	beq.n	8013a3e <USART3_IRQHandler+0x6a>
 8013a28:	2b14      	cmp	r3, #20
 8013a2a:	d00c      	beq.n	8013a46 <USART3_IRQHandler+0x72>
 8013a2c:	2b01      	cmp	r3, #1
 8013a2e:	d111      	bne.n	8013a54 <USART3_IRQHandler+0x80>
			{
			case 1:  //校验起始字符
				if (data != UP_Header)
 8013a30:	79fb      	ldrb	r3, [r7, #7]
 8013a32:	2bb0      	cmp	r3, #176	; 0xb0
 8013a34:	d023      	beq.n	8013a7e <USART3_IRQHandler+0xaa>
					UART3_RX_BUF.counter = 0;
 8013a36:	4b1d      	ldr	r3, [pc, #116]	; (8013aac <USART3_IRQHandler+0xd8>)
 8013a38:	2200      	movs	r2, #0
 8013a3a:	705a      	strb	r2, [r3, #1]
				break;
 8013a3c:	e01f      	b.n	8013a7e <USART3_IRQHandler+0xaa>
			case 2:  //获取数据包长度
				UART3_RX_BUF.len = data;
 8013a3e:	4a1b      	ldr	r2, [pc, #108]	; (8013aac <USART3_IRQHandler+0xd8>)
 8013a40:	79fb      	ldrb	r3, [r7, #7]
 8013a42:	7093      	strb	r3, [r2, #2]
				break;
 8013a44:	e01e      	b.n	8013a84 <USART3_IRQHandler+0xb0>
			case UART3_RX_BUF_SIZE: //缓冲区已满但是仍未接收到正确的结束字符
				UART3_RX_BUF.counter = 0;
 8013a46:	4b19      	ldr	r3, [pc, #100]	; (8013aac <USART3_IRQHandler+0xd8>)
 8013a48:	2200      	movs	r2, #0
 8013a4a:	705a      	strb	r2, [r3, #1]
				//BSP_UART_SendOneByte(0xF3); //返回0xF3代表数据发送有误
				printf("UART3 data ERROR.\r\n");
 8013a4c:	4818      	ldr	r0, [pc, #96]	; (8013ab0 <USART3_IRQHandler+0xdc>)
 8013a4e:	f002 fd99 	bl	8016584 <puts>
				break;
 8013a52:	e017      	b.n	8013a84 <USART3_IRQHandler+0xb0>
			default:
				//获取完全部数据，且最后一字节数据校验正确
				if (UART3_RX_BUF.counter == UART3_RX_BUF.len && data == UP_End)
 8013a54:	4b15      	ldr	r3, [pc, #84]	; (8013aac <USART3_IRQHandler+0xd8>)
 8013a56:	785a      	ldrb	r2, [r3, #1]
 8013a58:	4b14      	ldr	r3, [pc, #80]	; (8013aac <USART3_IRQHandler+0xd8>)
 8013a5a:	789b      	ldrb	r3, [r3, #2]
 8013a5c:	429a      	cmp	r2, r3
 8013a5e:	d110      	bne.n	8013a82 <USART3_IRQHandler+0xae>
 8013a60:	79fb      	ldrb	r3, [r7, #7]
 8013a62:	2bb1      	cmp	r3, #177	; 0xb1
 8013a64:	d10d      	bne.n	8013a82 <USART3_IRQHandler+0xae>
				{
					UART3_RX_BUF.flag = 1;
 8013a66:	4b11      	ldr	r3, [pc, #68]	; (8013aac <USART3_IRQHandler+0xd8>)
 8013a68:	2201      	movs	r2, #1
 8013a6a:	701a      	strb	r2, [r3, #0]
					UART3_RX_BUF.counter = 0;
 8013a6c:	4b0f      	ldr	r3, [pc, #60]	; (8013aac <USART3_IRQHandler+0xd8>)
 8013a6e:	2200      	movs	r2, #0
 8013a70:	705a      	strb	r2, [r3, #1]
					app_frame_anasys();
 8013a72:	f7ff fe89 	bl	8013788 <app_frame_anasys>
					UART3_RX_BUF.flag = 0;
 8013a76:	4b0d      	ldr	r3, [pc, #52]	; (8013aac <USART3_IRQHandler+0xd8>)
 8013a78:	2200      	movs	r2, #0
 8013a7a:	701a      	strb	r2, [r3, #0]
					//BSP_UART_SendOneByte(0xFF);
				}
				break;
 8013a7c:	e001      	b.n	8013a82 <USART3_IRQHandler+0xae>
				break;
 8013a7e:	bf00      	nop
 8013a80:	e000      	b.n	8013a84 <USART3_IRQHandler+0xb0>
				break;
 8013a82:	bf00      	nop
			}
		}
	}
	if (USART_GetFlagStatus(USART3, USART_FLAG_ORE) != RESET)
 8013a84:	2108      	movs	r1, #8
 8013a86:	4808      	ldr	r0, [pc, #32]	; (8013aa8 <USART3_IRQHandler+0xd4>)
 8013a88:	f001 fc84 	bl	8015394 <USART_GetFlagStatus>
 8013a8c:	4603      	mov	r3, r0
 8013a8e:	2b00      	cmp	r3, #0
 8013a90:	d006      	beq.n	8013aa0 <USART3_IRQHandler+0xcc>
	{
		USART_ClearFlag(USART3, USART_FLAG_ORE);
 8013a92:	2108      	movs	r1, #8
 8013a94:	4804      	ldr	r0, [pc, #16]	; (8013aa8 <USART3_IRQHandler+0xd4>)
 8013a96:	f001 fc98 	bl	80153ca <USART_ClearFlag>
		USART_ReceiveData(USART3);
 8013a9a:	4803      	ldr	r0, [pc, #12]	; (8013aa8 <USART3_IRQHandler+0xd4>)
 8013a9c:	f001 fc6b 	bl	8015376 <USART_ReceiveData>
	}
//	USART_ClearFlag(USART3, USART_FLAG_TC);
}
 8013aa0:	bf00      	nop
 8013aa2:	3708      	adds	r7, #8
 8013aa4:	46bd      	mov	sp, r7
 8013aa6:	bd80      	pop	{r7, pc}
 8013aa8:	40004800 	.word	0x40004800
 8013aac:	20001164 	.word	0x20001164
 8013ab0:	0801b7ac 	.word	0x0801b7ac

08013ab4 <Init_BAT_Charge>:
 *      Author: loyer
 */
#include "charge.h"

void Init_BAT_Charge(void)
{
 8013ab4:	b580      	push	{r7, lr}
 8013ab6:	b082      	sub	sp, #8
 8013ab8:	af00      	add	r7, sp, #0
	GPIO_InitTypeDef GPIO_InitStructure; //定义结构体变量

	RCC_APB2PeriphClockCmd(RCC_APB2Periph_GPIOB | RCC_APB2Periph_GPIOC, ENABLE);
 8013aba:	2101      	movs	r1, #1
 8013abc:	2018      	movs	r0, #24
 8013abe:	f001 f80d 	bl	8014adc <RCC_APB2PeriphClockCmd>

	GPIO_InitStructure.GPIO_Pin = GPIO_Pin_0 | GPIO_Pin_1 | GPIO_Pin_2
 8013ac2:	f241 0307 	movw	r3, #4103	; 0x1007
 8013ac6:	80bb      	strh	r3, [r7, #4]
			| GPIO_Pin_12;  //选择你要设置的IO口
	GPIO_InitStructure.GPIO_Mode = GPIO_Mode_Out_PP;	 //设置推挽输出模式
 8013ac8:	2310      	movs	r3, #16
 8013aca:	71fb      	strb	r3, [r7, #7]
	GPIO_InitStructure.GPIO_Speed = GPIO_Speed_50MHz;	  //设置传输速率
 8013acc:	2303      	movs	r3, #3
 8013ace:	71bb      	strb	r3, [r7, #6]
	GPIO_Init(GPIOB, &GPIO_InitStructure); /* 初始化GPIO */
 8013ad0:	1d3b      	adds	r3, r7, #4
 8013ad2:	4619      	mov	r1, r3
 8013ad4:	4811      	ldr	r0, [pc, #68]	; (8013b1c <Init_BAT_Charge+0x68>)
 8013ad6:	f000 fd05 	bl	80144e4 <GPIO_Init>

	GPIO_InitStructure.GPIO_Pin = GPIO_Pin_4 | GPIO_Pin_5;  //选择你要设置的IO口
 8013ada:	2330      	movs	r3, #48	; 0x30
 8013adc:	80bb      	strh	r3, [r7, #4]
	GPIO_InitStructure.GPIO_Mode = GPIO_Mode_Out_PP;	 //设置推挽输出模式
 8013ade:	2310      	movs	r3, #16
 8013ae0:	71fb      	strb	r3, [r7, #7]
	GPIO_InitStructure.GPIO_Speed = GPIO_Speed_50MHz;	  //设置传输速率
 8013ae2:	2303      	movs	r3, #3
 8013ae4:	71bb      	strb	r3, [r7, #6]
	GPIO_Init(GPIOC, &GPIO_InitStructure); /* 初始化GPIO */
 8013ae6:	1d3b      	adds	r3, r7, #4
 8013ae8:	4619      	mov	r1, r3
 8013aea:	480d      	ldr	r0, [pc, #52]	; (8013b20 <Init_BAT_Charge+0x6c>)
 8013aec:	f000 fcfa 	bl	80144e4 <GPIO_Init>

	BAT1 = 1;
 8013af0:	4b0c      	ldr	r3, [pc, #48]	; (8013b24 <Init_BAT_Charge+0x70>)
 8013af2:	2201      	movs	r2, #1
 8013af4:	601a      	str	r2, [r3, #0]
	BAT2 = 1;
 8013af6:	4b0c      	ldr	r3, [pc, #48]	; (8013b28 <Init_BAT_Charge+0x74>)
 8013af8:	2201      	movs	r2, #1
 8013afa:	601a      	str	r2, [r3, #0]
	BAT3 = 1;
 8013afc:	4b0b      	ldr	r3, [pc, #44]	; (8013b2c <Init_BAT_Charge+0x78>)
 8013afe:	2201      	movs	r2, #1
 8013b00:	601a      	str	r2, [r3, #0]
	BAT4 = 1;
 8013b02:	4b0b      	ldr	r3, [pc, #44]	; (8013b30 <Init_BAT_Charge+0x7c>)
 8013b04:	2201      	movs	r2, #1
 8013b06:	601a      	str	r2, [r3, #0]
	BAT5 = 1;
 8013b08:	4b0a      	ldr	r3, [pc, #40]	; (8013b34 <Init_BAT_Charge+0x80>)
 8013b0a:	2201      	movs	r2, #1
 8013b0c:	601a      	str	r2, [r3, #0]
	BAT6 = 1;
 8013b0e:	4b0a      	ldr	r3, [pc, #40]	; (8013b38 <Init_BAT_Charge+0x84>)
 8013b10:	2201      	movs	r2, #1
 8013b12:	601a      	str	r2, [r3, #0]
}
 8013b14:	bf00      	nop
 8013b16:	3708      	adds	r7, #8
 8013b18:	46bd      	mov	sp, r7
 8013b1a:	bd80      	pop	{r7, pc}
 8013b1c:	40010c00 	.word	0x40010c00
 8013b20:	40011000 	.word	0x40011000
 8013b24:	42220190 	.word	0x42220190
 8013b28:	42220194 	.word	0x42220194
 8013b2c:	42218180 	.word	0x42218180
 8013b30:	42218184 	.word	0x42218184
 8013b34:	42218188 	.word	0x42218188
 8013b38:	422181b0 	.word	0x422181b0

08013b3c <controlPowerBankCharge>:
 * 控制充电宝充电函数
 * @pb 1-6表示充电宝1-6
 * @allow 1-表示允许  0-表示不允许
 */
void controlPowerBankCharge(u8 pb, u8 allow)
{
 8013b3c:	b480      	push	{r7}
 8013b3e:	b083      	sub	sp, #12
 8013b40:	af00      	add	r7, sp, #0
 8013b42:	4603      	mov	r3, r0
 8013b44:	460a      	mov	r2, r1
 8013b46:	71fb      	strb	r3, [r7, #7]
 8013b48:	4613      	mov	r3, r2
 8013b4a:	71bb      	strb	r3, [r7, #6]
	switch (pb)
 8013b4c:	79fb      	ldrb	r3, [r7, #7]
 8013b4e:	3b01      	subs	r3, #1
 8013b50:	2b05      	cmp	r3, #5
 8013b52:	d827      	bhi.n	8013ba4 <controlPowerBankCharge+0x68>
 8013b54:	a201      	add	r2, pc, #4	; (adr r2, 8013b5c <controlPowerBankCharge+0x20>)
 8013b56:	f852 f023 	ldr.w	pc, [r2, r3, lsl #2]
 8013b5a:	bf00      	nop
 8013b5c:	08013b75 	.word	0x08013b75
 8013b60:	08013b7d 	.word	0x08013b7d
 8013b64:	08013b85 	.word	0x08013b85
 8013b68:	08013b8d 	.word	0x08013b8d
 8013b6c:	08013b95 	.word	0x08013b95
 8013b70:	08013b9d 	.word	0x08013b9d
	{
	case 1:
		BAT1 = allow;
 8013b74:	4a0e      	ldr	r2, [pc, #56]	; (8013bb0 <controlPowerBankCharge+0x74>)
 8013b76:	79bb      	ldrb	r3, [r7, #6]
 8013b78:	6013      	str	r3, [r2, #0]
		break;
 8013b7a:	e014      	b.n	8013ba6 <controlPowerBankCharge+0x6a>
	case 2:
		BAT2 = allow;
 8013b7c:	4a0d      	ldr	r2, [pc, #52]	; (8013bb4 <controlPowerBankCharge+0x78>)
 8013b7e:	79bb      	ldrb	r3, [r7, #6]
 8013b80:	6013      	str	r3, [r2, #0]
		break;
 8013b82:	e010      	b.n	8013ba6 <controlPowerBankCharge+0x6a>
	case 3:
		BAT3 = allow;
 8013b84:	4a0c      	ldr	r2, [pc, #48]	; (8013bb8 <controlPowerBankCharge+0x7c>)
 8013b86:	79bb      	ldrb	r3, [r7, #6]
 8013b88:	6013      	str	r3, [r2, #0]
		break;
 8013b8a:	e00c      	b.n	8013ba6 <controlPowerBankCharge+0x6a>
	case 4:
		BAT4 = allow;
 8013b8c:	4a0b      	ldr	r2, [pc, #44]	; (8013bbc <controlPowerBankCharge+0x80>)
 8013b8e:	79bb      	ldrb	r3, [r7, #6]
 8013b90:	6013      	str	r3, [r2, #0]
		break;
 8013b92:	e008      	b.n	8013ba6 <controlPowerBankCharge+0x6a>
	case 5:
		BAT5 = allow;
 8013b94:	4a0a      	ldr	r2, [pc, #40]	; (8013bc0 <controlPowerBankCharge+0x84>)
 8013b96:	79bb      	ldrb	r3, [r7, #6]
 8013b98:	6013      	str	r3, [r2, #0]
		break;
 8013b9a:	e004      	b.n	8013ba6 <controlPowerBankCharge+0x6a>
	case 6:
		BAT6 = allow;
 8013b9c:	4a09      	ldr	r2, [pc, #36]	; (8013bc4 <controlPowerBankCharge+0x88>)
 8013b9e:	79bb      	ldrb	r3, [r7, #6]
 8013ba0:	6013      	str	r3, [r2, #0]
		break;
 8013ba2:	e000      	b.n	8013ba6 <controlPowerBankCharge+0x6a>
	default:
		break;
 8013ba4:	bf00      	nop
	}
}
 8013ba6:	bf00      	nop
 8013ba8:	370c      	adds	r7, #12
 8013baa:	46bd      	mov	sp, r7
 8013bac:	bc80      	pop	{r7}
 8013bae:	4770      	bx	lr
 8013bb0:	42220190 	.word	0x42220190
 8013bb4:	42220194 	.word	0x42220194
 8013bb8:	42218180 	.word	0x42218180
 8013bbc:	42218184 	.word	0x42218184
 8013bc0:	42218188 	.word	0x42218188
 8013bc4:	422181b0 	.word	0x422181b0

08013bc8 <base64_encode>:
 * 编码代码
 * const unsigned char * sourcedata， 源数组
 * char * base64 ，码字保存
 */
int base64_encode(const unsigned char *sourcedata, char *base64)
{
 8013bc8:	b580      	push	{r7, lr}
 8013bca:	b086      	sub	sp, #24
 8013bcc:	af00      	add	r7, sp, #0
 8013bce:	6078      	str	r0, [r7, #4]
 8013bd0:	6039      	str	r1, [r7, #0]
	int i = 0, j = 0;
 8013bd2:	2300      	movs	r3, #0
 8013bd4:	617b      	str	r3, [r7, #20]
 8013bd6:	2300      	movs	r3, #0
 8013bd8:	613b      	str	r3, [r7, #16]
	unsigned char trans_index = 0;  // 索引是8位，但是高两位都为0
 8013bda:	2300      	movs	r3, #0
 8013bdc:	73fb      	strb	r3, [r7, #15]
	const int datalength = strlen((const char *) sourcedata);
 8013bde:	6878      	ldr	r0, [r7, #4]
 8013be0:	f7fc fb2c 	bl	801023c <strlen>
 8013be4:	4603      	mov	r3, r0
 8013be6:	60bb      	str	r3, [r7, #8]
	for (; i < datalength; i += 3)
 8013be8:	e0ab      	b.n	8013d42 <base64_encode+0x17a>
	{
		// 每三个一组，进行编码
		// 要编码的数字的第一个
		trans_index = ((sourcedata[i] >> 2) & 0x3f);
 8013bea:	697b      	ldr	r3, [r7, #20]
 8013bec:	687a      	ldr	r2, [r7, #4]
 8013bee:	4413      	add	r3, r2
 8013bf0:	781b      	ldrb	r3, [r3, #0]
 8013bf2:	089b      	lsrs	r3, r3, #2
 8013bf4:	73fb      	strb	r3, [r7, #15]
		base64[j++] = base64char[(int) trans_index];
 8013bf6:	693b      	ldr	r3, [r7, #16]
 8013bf8:	1c5a      	adds	r2, r3, #1
 8013bfa:	613a      	str	r2, [r7, #16]
 8013bfc:	461a      	mov	r2, r3
 8013bfe:	683b      	ldr	r3, [r7, #0]
 8013c00:	4413      	add	r3, r2
 8013c02:	4a57      	ldr	r2, [pc, #348]	; (8013d60 <base64_encode+0x198>)
 8013c04:	6811      	ldr	r1, [r2, #0]
 8013c06:	7bfa      	ldrb	r2, [r7, #15]
 8013c08:	440a      	add	r2, r1
 8013c0a:	7812      	ldrb	r2, [r2, #0]
 8013c0c:	701a      	strb	r2, [r3, #0]
		// 第二个
		trans_index = ((sourcedata[i] << 4) & 0x30);
 8013c0e:	697b      	ldr	r3, [r7, #20]
 8013c10:	687a      	ldr	r2, [r7, #4]
 8013c12:	4413      	add	r3, r2
 8013c14:	781b      	ldrb	r3, [r3, #0]
 8013c16:	011b      	lsls	r3, r3, #4
 8013c18:	b2db      	uxtb	r3, r3
 8013c1a:	f003 0330 	and.w	r3, r3, #48	; 0x30
 8013c1e:	73fb      	strb	r3, [r7, #15]
		if (i + 1 < datalength)
 8013c20:	697b      	ldr	r3, [r7, #20]
 8013c22:	1c5a      	adds	r2, r3, #1
 8013c24:	68bb      	ldr	r3, [r7, #8]
 8013c26:	429a      	cmp	r2, r3
 8013c28:	da28      	bge.n	8013c7c <base64_encode+0xb4>
		{
			trans_index |= ((sourcedata[i + 1] >> 4) & 0x0f);
 8013c2a:	697b      	ldr	r3, [r7, #20]
 8013c2c:	3301      	adds	r3, #1
 8013c2e:	687a      	ldr	r2, [r7, #4]
 8013c30:	4413      	add	r3, r2
 8013c32:	781b      	ldrb	r3, [r3, #0]
 8013c34:	091b      	lsrs	r3, r3, #4
 8013c36:	b2db      	uxtb	r3, r3
 8013c38:	b25a      	sxtb	r2, r3
 8013c3a:	f997 300f 	ldrsb.w	r3, [r7, #15]
 8013c3e:	4313      	orrs	r3, r2
 8013c40:	b25b      	sxtb	r3, r3
 8013c42:	73fb      	strb	r3, [r7, #15]
			base64[j++] = base64char[(int) trans_index];
 8013c44:	693b      	ldr	r3, [r7, #16]
 8013c46:	1c5a      	adds	r2, r3, #1
 8013c48:	613a      	str	r2, [r7, #16]
 8013c4a:	461a      	mov	r2, r3
 8013c4c:	683b      	ldr	r3, [r7, #0]
 8013c4e:	4413      	add	r3, r2
 8013c50:	4a43      	ldr	r2, [pc, #268]	; (8013d60 <base64_encode+0x198>)
 8013c52:	6811      	ldr	r1, [r2, #0]
 8013c54:	7bfa      	ldrb	r2, [r7, #15]
 8013c56:	440a      	add	r2, r1
 8013c58:	7812      	ldrb	r2, [r2, #0]
 8013c5a:	701a      	strb	r2, [r3, #0]
			base64[j++] = padding_char;

			break;   // 超出总长度，可以直接break
		}
		// 第三个
		trans_index = ((sourcedata[i + 1] << 2) & 0x3c);
 8013c5c:	697b      	ldr	r3, [r7, #20]
 8013c5e:	3301      	adds	r3, #1
 8013c60:	687a      	ldr	r2, [r7, #4]
 8013c62:	4413      	add	r3, r2
 8013c64:	781b      	ldrb	r3, [r3, #0]
 8013c66:	009b      	lsls	r3, r3, #2
 8013c68:	b2db      	uxtb	r3, r3
 8013c6a:	f003 033c 	and.w	r3, r3, #60	; 0x3c
 8013c6e:	73fb      	strb	r3, [r7, #15]
		if (i + 2 < datalength)  // 有的话需要编码2个
 8013c70:	697b      	ldr	r3, [r7, #20]
 8013c72:	1c9a      	adds	r2, r3, #2
 8013c74:	68bb      	ldr	r3, [r7, #8]
 8013c76:	429a      	cmp	r2, r3
 8013c78:	da4b      	bge.n	8013d12 <base64_encode+0x14a>
 8013c7a:	e01c      	b.n	8013cb6 <base64_encode+0xee>
			base64[j++] = base64char[(int) trans_index];
 8013c7c:	693b      	ldr	r3, [r7, #16]
 8013c7e:	1c5a      	adds	r2, r3, #1
 8013c80:	613a      	str	r2, [r7, #16]
 8013c82:	461a      	mov	r2, r3
 8013c84:	683b      	ldr	r3, [r7, #0]
 8013c86:	4413      	add	r3, r2
 8013c88:	4a35      	ldr	r2, [pc, #212]	; (8013d60 <base64_encode+0x198>)
 8013c8a:	6811      	ldr	r1, [r2, #0]
 8013c8c:	7bfa      	ldrb	r2, [r7, #15]
 8013c8e:	440a      	add	r2, r1
 8013c90:	7812      	ldrb	r2, [r2, #0]
 8013c92:	701a      	strb	r2, [r3, #0]
			base64[j++] = padding_char;
 8013c94:	693b      	ldr	r3, [r7, #16]
 8013c96:	1c5a      	adds	r2, r3, #1
 8013c98:	613a      	str	r2, [r7, #16]
 8013c9a:	461a      	mov	r2, r3
 8013c9c:	683b      	ldr	r3, [r7, #0]
 8013c9e:	4413      	add	r3, r2
 8013ca0:	223d      	movs	r2, #61	; 0x3d
 8013ca2:	701a      	strb	r2, [r3, #0]
			base64[j++] = padding_char;
 8013ca4:	693b      	ldr	r3, [r7, #16]
 8013ca6:	1c5a      	adds	r2, r3, #1
 8013ca8:	613a      	str	r2, [r7, #16]
 8013caa:	461a      	mov	r2, r3
 8013cac:	683b      	ldr	r3, [r7, #0]
 8013cae:	4413      	add	r3, r2
 8013cb0:	223d      	movs	r2, #61	; 0x3d
 8013cb2:	701a      	strb	r2, [r3, #0]
			break;   // 超出总长度，可以直接break
 8013cb4:	e04a      	b.n	8013d4c <base64_encode+0x184>
		{
			trans_index |= ((sourcedata[i + 2] >> 6) & 0x03);
 8013cb6:	697b      	ldr	r3, [r7, #20]
 8013cb8:	3302      	adds	r3, #2
 8013cba:	687a      	ldr	r2, [r7, #4]
 8013cbc:	4413      	add	r3, r2
 8013cbe:	781b      	ldrb	r3, [r3, #0]
 8013cc0:	099b      	lsrs	r3, r3, #6
 8013cc2:	b2db      	uxtb	r3, r3
 8013cc4:	b25a      	sxtb	r2, r3
 8013cc6:	f997 300f 	ldrsb.w	r3, [r7, #15]
 8013cca:	4313      	orrs	r3, r2
 8013ccc:	b25b      	sxtb	r3, r3
 8013cce:	73fb      	strb	r3, [r7, #15]
			base64[j++] = base64char[(int) trans_index];
 8013cd0:	693b      	ldr	r3, [r7, #16]
 8013cd2:	1c5a      	adds	r2, r3, #1
 8013cd4:	613a      	str	r2, [r7, #16]
 8013cd6:	461a      	mov	r2, r3
 8013cd8:	683b      	ldr	r3, [r7, #0]
 8013cda:	4413      	add	r3, r2
 8013cdc:	4a20      	ldr	r2, [pc, #128]	; (8013d60 <base64_encode+0x198>)
 8013cde:	6811      	ldr	r1, [r2, #0]
 8013ce0:	7bfa      	ldrb	r2, [r7, #15]
 8013ce2:	440a      	add	r2, r1
 8013ce4:	7812      	ldrb	r2, [r2, #0]
 8013ce6:	701a      	strb	r2, [r3, #0]

			trans_index = sourcedata[i + 2] & 0x3f;
 8013ce8:	697b      	ldr	r3, [r7, #20]
 8013cea:	3302      	adds	r3, #2
 8013cec:	687a      	ldr	r2, [r7, #4]
 8013cee:	4413      	add	r3, r2
 8013cf0:	781b      	ldrb	r3, [r3, #0]
 8013cf2:	f003 033f 	and.w	r3, r3, #63	; 0x3f
 8013cf6:	73fb      	strb	r3, [r7, #15]
			base64[j++] = base64char[(int) trans_index];
 8013cf8:	693b      	ldr	r3, [r7, #16]
 8013cfa:	1c5a      	adds	r2, r3, #1
 8013cfc:	613a      	str	r2, [r7, #16]
 8013cfe:	461a      	mov	r2, r3
 8013d00:	683b      	ldr	r3, [r7, #0]
 8013d02:	4413      	add	r3, r2
 8013d04:	4a16      	ldr	r2, [pc, #88]	; (8013d60 <base64_encode+0x198>)
 8013d06:	6811      	ldr	r1, [r2, #0]
 8013d08:	7bfa      	ldrb	r2, [r7, #15]
 8013d0a:	440a      	add	r2, r1
 8013d0c:	7812      	ldrb	r2, [r2, #0]
 8013d0e:	701a      	strb	r2, [r3, #0]
 8013d10:	e014      	b.n	8013d3c <base64_encode+0x174>
		}
		else
		{
			base64[j++] = base64char[(int) trans_index];
 8013d12:	693b      	ldr	r3, [r7, #16]
 8013d14:	1c5a      	adds	r2, r3, #1
 8013d16:	613a      	str	r2, [r7, #16]
 8013d18:	461a      	mov	r2, r3
 8013d1a:	683b      	ldr	r3, [r7, #0]
 8013d1c:	4413      	add	r3, r2
 8013d1e:	4a10      	ldr	r2, [pc, #64]	; (8013d60 <base64_encode+0x198>)
 8013d20:	6811      	ldr	r1, [r2, #0]
 8013d22:	7bfa      	ldrb	r2, [r7, #15]
 8013d24:	440a      	add	r2, r1
 8013d26:	7812      	ldrb	r2, [r2, #0]
 8013d28:	701a      	strb	r2, [r3, #0]

			base64[j++] = padding_char;
 8013d2a:	693b      	ldr	r3, [r7, #16]
 8013d2c:	1c5a      	adds	r2, r3, #1
 8013d2e:	613a      	str	r2, [r7, #16]
 8013d30:	461a      	mov	r2, r3
 8013d32:	683b      	ldr	r3, [r7, #0]
 8013d34:	4413      	add	r3, r2
 8013d36:	223d      	movs	r2, #61	; 0x3d
 8013d38:	701a      	strb	r2, [r3, #0]

			break;
 8013d3a:	e007      	b.n	8013d4c <base64_encode+0x184>
	for (; i < datalength; i += 3)
 8013d3c:	697b      	ldr	r3, [r7, #20]
 8013d3e:	3303      	adds	r3, #3
 8013d40:	617b      	str	r3, [r7, #20]
 8013d42:	697a      	ldr	r2, [r7, #20]
 8013d44:	68bb      	ldr	r3, [r7, #8]
 8013d46:	429a      	cmp	r2, r3
 8013d48:	f6ff af4f 	blt.w	8013bea <base64_encode+0x22>
		}
	}

	base64[j] = '\0';
 8013d4c:	693b      	ldr	r3, [r7, #16]
 8013d4e:	683a      	ldr	r2, [r7, #0]
 8013d50:	4413      	add	r3, r2
 8013d52:	2200      	movs	r2, #0
 8013d54:	701a      	strb	r2, [r3, #0]

	return 0;
 8013d56:	2300      	movs	r3, #0
}
 8013d58:	4618      	mov	r0, r3
 8013d5a:	3718      	adds	r7, #24
 8013d5c:	46bd      	mov	sp, r7
 8013d5e:	bd80      	pop	{r7, pc}
 8013d60:	20000008 	.word	0x20000008

08013d64 <num_strchr>:
 * 在字符串中查询特定字符位置索引
 * const char *str ，字符串
 * char c，要查找的字符
 */
int num_strchr(const char *str, char c)
{
 8013d64:	b580      	push	{r7, lr}
 8013d66:	b084      	sub	sp, #16
 8013d68:	af00      	add	r7, sp, #0
 8013d6a:	6078      	str	r0, [r7, #4]
 8013d6c:	460b      	mov	r3, r1
 8013d6e:	70fb      	strb	r3, [r7, #3]
	const char *pindex = strchr(str, c);
 8013d70:	78fb      	ldrb	r3, [r7, #3]
 8013d72:	4619      	mov	r1, r3
 8013d74:	6878      	ldr	r0, [r7, #4]
 8013d76:	f002 fc74 	bl	8016662 <strchr>
 8013d7a:	60f8      	str	r0, [r7, #12]
	if (NULL == pindex)
 8013d7c:	68fb      	ldr	r3, [r7, #12]
 8013d7e:	2b00      	cmp	r3, #0
 8013d80:	d102      	bne.n	8013d88 <num_strchr+0x24>
	{
		return -1;
 8013d82:	f04f 33ff 	mov.w	r3, #4294967295
 8013d86:	e002      	b.n	8013d8e <num_strchr+0x2a>
	}
	return pindex - str;
 8013d88:	68fa      	ldr	r2, [r7, #12]
 8013d8a:	687b      	ldr	r3, [r7, #4]
 8013d8c:	1ad3      	subs	r3, r2, r3
}
 8013d8e:	4618      	mov	r0, r3
 8013d90:	3710      	adds	r7, #16
 8013d92:	46bd      	mov	sp, r7
 8013d94:	bd80      	pop	{r7, pc}
	...

08013d98 <base64_decode>:
 * 解码
 * const char * base64 码字
 * unsigned char * dedata， 解码恢复的数据
 */
int base64_decode(const char *base64, unsigned char *dedata)
{
 8013d98:	b580      	push	{r7, lr}
 8013d9a:	b088      	sub	sp, #32
 8013d9c:	af00      	add	r7, sp, #0
 8013d9e:	6078      	str	r0, [r7, #4]
 8013da0:	6039      	str	r1, [r7, #0]
	int i = 0, j = 0;
 8013da2:	2300      	movs	r3, #0
 8013da4:	61fb      	str	r3, [r7, #28]
 8013da6:	2300      	movs	r3, #0
 8013da8:	61bb      	str	r3, [r7, #24]
	int trans[4] =
 8013daa:	f107 0308 	add.w	r3, r7, #8
 8013dae:	2200      	movs	r2, #0
 8013db0:	601a      	str	r2, [r3, #0]
 8013db2:	605a      	str	r2, [r3, #4]
 8013db4:	609a      	str	r2, [r3, #8]
 8013db6:	60da      	str	r2, [r3, #12]
	{ 0, 0, 0, 0 };
	for (; base64[i] != '\0'; i += 4)
 8013db8:	e07b      	b.n	8013eb2 <base64_decode+0x11a>
	{
		// 每四个一组，译码成三个字符
		trans[0] = num_strchr(base64char, base64[i]);
 8013dba:	4b46      	ldr	r3, [pc, #280]	; (8013ed4 <base64_decode+0x13c>)
 8013dbc:	6818      	ldr	r0, [r3, #0]
 8013dbe:	69fb      	ldr	r3, [r7, #28]
 8013dc0:	687a      	ldr	r2, [r7, #4]
 8013dc2:	4413      	add	r3, r2
 8013dc4:	781b      	ldrb	r3, [r3, #0]
 8013dc6:	4619      	mov	r1, r3
 8013dc8:	f7ff ffcc 	bl	8013d64 <num_strchr>
 8013dcc:	4603      	mov	r3, r0
 8013dce:	60bb      	str	r3, [r7, #8]
		trans[1] = num_strchr(base64char, base64[i + 1]);
 8013dd0:	4b40      	ldr	r3, [pc, #256]	; (8013ed4 <base64_decode+0x13c>)
 8013dd2:	6818      	ldr	r0, [r3, #0]
 8013dd4:	69fb      	ldr	r3, [r7, #28]
 8013dd6:	3301      	adds	r3, #1
 8013dd8:	687a      	ldr	r2, [r7, #4]
 8013dda:	4413      	add	r3, r2
 8013ddc:	781b      	ldrb	r3, [r3, #0]
 8013dde:	4619      	mov	r1, r3
 8013de0:	f7ff ffc0 	bl	8013d64 <num_strchr>
 8013de4:	4603      	mov	r3, r0
 8013de6:	60fb      	str	r3, [r7, #12]
		// 1/3
		dedata[j++] = ((trans[0] << 2) & 0xfc) | ((trans[1] >> 4) & 0x03);
 8013de8:	69bb      	ldr	r3, [r7, #24]
 8013dea:	1c5a      	adds	r2, r3, #1
 8013dec:	61ba      	str	r2, [r7, #24]
 8013dee:	461a      	mov	r2, r3
 8013df0:	683b      	ldr	r3, [r7, #0]
 8013df2:	4413      	add	r3, r2
 8013df4:	68ba      	ldr	r2, [r7, #8]
 8013df6:	0092      	lsls	r2, r2, #2
 8013df8:	b251      	sxtb	r1, r2
 8013dfa:	68fa      	ldr	r2, [r7, #12]
 8013dfc:	1112      	asrs	r2, r2, #4
 8013dfe:	b252      	sxtb	r2, r2
 8013e00:	f002 0203 	and.w	r2, r2, #3
 8013e04:	b252      	sxtb	r2, r2
 8013e06:	430a      	orrs	r2, r1
 8013e08:	b252      	sxtb	r2, r2
 8013e0a:	b2d2      	uxtb	r2, r2
 8013e0c:	701a      	strb	r2, [r3, #0]

		if (base64[i + 2] == '=')
 8013e0e:	69fb      	ldr	r3, [r7, #28]
 8013e10:	3302      	adds	r3, #2
 8013e12:	687a      	ldr	r2, [r7, #4]
 8013e14:	4413      	add	r3, r2
 8013e16:	781b      	ldrb	r3, [r3, #0]
 8013e18:	2b3d      	cmp	r3, #61	; 0x3d
 8013e1a:	d044      	beq.n	8013ea6 <base64_decode+0x10e>
		{
			continue;
		}
		else
		{
			trans[2] = num_strchr(base64char, base64[i + 2]);
 8013e1c:	4b2d      	ldr	r3, [pc, #180]	; (8013ed4 <base64_decode+0x13c>)
 8013e1e:	6818      	ldr	r0, [r3, #0]
 8013e20:	69fb      	ldr	r3, [r7, #28]
 8013e22:	3302      	adds	r3, #2
 8013e24:	687a      	ldr	r2, [r7, #4]
 8013e26:	4413      	add	r3, r2
 8013e28:	781b      	ldrb	r3, [r3, #0]
 8013e2a:	4619      	mov	r1, r3
 8013e2c:	f7ff ff9a 	bl	8013d64 <num_strchr>
 8013e30:	4603      	mov	r3, r0
 8013e32:	613b      	str	r3, [r7, #16]
		}
		// 2/3
		dedata[j++] = ((trans[1] << 4) & 0xf0) | ((trans[2] >> 2) & 0x0f);
 8013e34:	69bb      	ldr	r3, [r7, #24]
 8013e36:	1c5a      	adds	r2, r3, #1
 8013e38:	61ba      	str	r2, [r7, #24]
 8013e3a:	461a      	mov	r2, r3
 8013e3c:	683b      	ldr	r3, [r7, #0]
 8013e3e:	4413      	add	r3, r2
 8013e40:	68fa      	ldr	r2, [r7, #12]
 8013e42:	0112      	lsls	r2, r2, #4
 8013e44:	b251      	sxtb	r1, r2
 8013e46:	693a      	ldr	r2, [r7, #16]
 8013e48:	1092      	asrs	r2, r2, #2
 8013e4a:	b252      	sxtb	r2, r2
 8013e4c:	f002 020f 	and.w	r2, r2, #15
 8013e50:	b252      	sxtb	r2, r2
 8013e52:	430a      	orrs	r2, r1
 8013e54:	b252      	sxtb	r2, r2
 8013e56:	b2d2      	uxtb	r2, r2
 8013e58:	701a      	strb	r2, [r3, #0]

		if (base64[i + 3] == '=')
 8013e5a:	69fb      	ldr	r3, [r7, #28]
 8013e5c:	3303      	adds	r3, #3
 8013e5e:	687a      	ldr	r2, [r7, #4]
 8013e60:	4413      	add	r3, r2
 8013e62:	781b      	ldrb	r3, [r3, #0]
 8013e64:	2b3d      	cmp	r3, #61	; 0x3d
 8013e66:	d020      	beq.n	8013eaa <base64_decode+0x112>
		{
			continue;
		}
		else
		{
			trans[3] = num_strchr(base64char, base64[i + 3]);
 8013e68:	4b1a      	ldr	r3, [pc, #104]	; (8013ed4 <base64_decode+0x13c>)
 8013e6a:	6818      	ldr	r0, [r3, #0]
 8013e6c:	69fb      	ldr	r3, [r7, #28]
 8013e6e:	3303      	adds	r3, #3
 8013e70:	687a      	ldr	r2, [r7, #4]
 8013e72:	4413      	add	r3, r2
 8013e74:	781b      	ldrb	r3, [r3, #0]
 8013e76:	4619      	mov	r1, r3
 8013e78:	f7ff ff74 	bl	8013d64 <num_strchr>
 8013e7c:	4603      	mov	r3, r0
 8013e7e:	617b      	str	r3, [r7, #20]
		}

		// 3/3
		dedata[j++] = ((trans[2] << 6) & 0xc0) | (trans[3] & 0x3f);
 8013e80:	69bb      	ldr	r3, [r7, #24]
 8013e82:	1c5a      	adds	r2, r3, #1
 8013e84:	61ba      	str	r2, [r7, #24]
 8013e86:	461a      	mov	r2, r3
 8013e88:	683b      	ldr	r3, [r7, #0]
 8013e8a:	4413      	add	r3, r2
 8013e8c:	693a      	ldr	r2, [r7, #16]
 8013e8e:	0192      	lsls	r2, r2, #6
 8013e90:	b251      	sxtb	r1, r2
 8013e92:	697a      	ldr	r2, [r7, #20]
 8013e94:	b252      	sxtb	r2, r2
 8013e96:	f002 023f 	and.w	r2, r2, #63	; 0x3f
 8013e9a:	b252      	sxtb	r2, r2
 8013e9c:	430a      	orrs	r2, r1
 8013e9e:	b252      	sxtb	r2, r2
 8013ea0:	b2d2      	uxtb	r2, r2
 8013ea2:	701a      	strb	r2, [r3, #0]
 8013ea4:	e002      	b.n	8013eac <base64_decode+0x114>
			continue;
 8013ea6:	bf00      	nop
 8013ea8:	e000      	b.n	8013eac <base64_decode+0x114>
			continue;
 8013eaa:	bf00      	nop
	for (; base64[i] != '\0'; i += 4)
 8013eac:	69fb      	ldr	r3, [r7, #28]
 8013eae:	3304      	adds	r3, #4
 8013eb0:	61fb      	str	r3, [r7, #28]
 8013eb2:	69fb      	ldr	r3, [r7, #28]
 8013eb4:	687a      	ldr	r2, [r7, #4]
 8013eb6:	4413      	add	r3, r2
 8013eb8:	781b      	ldrb	r3, [r3, #0]
 8013eba:	2b00      	cmp	r3, #0
 8013ebc:	f47f af7d 	bne.w	8013dba <base64_decode+0x22>
	}

	dedata[j] = '\0';
 8013ec0:	69bb      	ldr	r3, [r7, #24]
 8013ec2:	683a      	ldr	r2, [r7, #0]
 8013ec4:	4413      	add	r3, r2
 8013ec6:	2200      	movs	r2, #0
 8013ec8:	701a      	strb	r2, [r3, #0]

	return 0;
 8013eca:	2300      	movs	r3, #0
}
 8013ecc:	4618      	mov	r0, r3
 8013ece:	3720      	adds	r7, #32
 8013ed0:	46bd      	mov	sp, r7
 8013ed2:	bd80      	pop	{r7, pc}
 8013ed4:	20000008 	.word	0x20000008

08013ed8 <UART4_IRQHandler>:

	USART_Cmd(UART4, ENABLE);                    //使能串口4
}

void UART4_IRQHandler(void)
{
 8013ed8:	b580      	push	{r7, lr}
 8013eda:	b082      	sub	sp, #8
 8013edc:	af00      	add	r7, sp, #0
	u8 ucCh;

	if (USART_GetITStatus( UART4, USART_IT_RXNE) != RESET)
 8013ede:	f240 5125 	movw	r1, #1317	; 0x525
 8013ee2:	4827      	ldr	r0, [pc, #156]	; (8013f80 <UART4_IRQHandler+0xa8>)
 8013ee4:	f001 fa81 	bl	80153ea <USART_GetITStatus>
 8013ee8:	4603      	mov	r3, r0
 8013eea:	2b00      	cmp	r3, #0
 8013eec:	d023      	beq.n	8013f36 <UART4_IRQHandler+0x5e>
	{
		ucCh = USART_ReceiveData( UART4);
 8013eee:	4824      	ldr	r0, [pc, #144]	; (8013f80 <UART4_IRQHandler+0xa8>)
 8013ef0:	f001 fa41 	bl	8015376 <USART_ReceiveData>
 8013ef4:	4603      	mov	r3, r0
 8013ef6:	71fb      	strb	r3, [r7, #7]
		 while (USART_GetFlagStatus(UART4, USART_FLAG_TC) != SET)
		 ;
		 }
		 */

		if (WIFI_Fram_Record_Struct.InfBit.FramLength < ( RX_BUF_MAX_LEN - 1))
 8013ef8:	4b22      	ldr	r3, [pc, #136]	; (8013f84 <UART4_IRQHandler+0xac>)
 8013efa:	f8b3 3400 	ldrh.w	r3, [r3, #1024]	; 0x400
 8013efe:	f3c3 030e 	ubfx	r3, r3, #0, #15
 8013f02:	b29b      	uxth	r3, r3
 8013f04:	461a      	mov	r2, r3
 8013f06:	f240 33fe 	movw	r3, #1022	; 0x3fe
 8013f0a:	429a      	cmp	r2, r3
 8013f0c:	dc13      	bgt.n	8013f36 <UART4_IRQHandler+0x5e>
		{
			//预留1个字节写结束符
			WIFI_Fram_Record_Struct.Data_RX_BUF[WIFI_Fram_Record_Struct.InfBit.FramLength++] =
 8013f0e:	4b1d      	ldr	r3, [pc, #116]	; (8013f84 <UART4_IRQHandler+0xac>)
 8013f10:	f8b3 3400 	ldrh.w	r3, [r3, #1024]	; 0x400
 8013f14:	f3c3 030e 	ubfx	r3, r3, #0, #15
 8013f18:	b299      	uxth	r1, r3
 8013f1a:	1c4b      	adds	r3, r1, #1
 8013f1c:	f3c3 030e 	ubfx	r3, r3, #0, #15
 8013f20:	b298      	uxth	r0, r3
 8013f22:	4a18      	ldr	r2, [pc, #96]	; (8013f84 <UART4_IRQHandler+0xac>)
 8013f24:	f8b2 3400 	ldrh.w	r3, [r2, #1024]	; 0x400
 8013f28:	f360 030e 	bfi	r3, r0, #0, #15
 8013f2c:	f8a2 3400 	strh.w	r3, [r2, #1024]	; 0x400
 8013f30:	4a14      	ldr	r2, [pc, #80]	; (8013f84 <UART4_IRQHandler+0xac>)
 8013f32:	79fb      	ldrb	r3, [r7, #7]
 8013f34:	5453      	strb	r3, [r2, r1]
					ucCh;
		}
	}

	if (USART_GetITStatus( UART4, USART_IT_IDLE) == SET)              //数据帧接收完毕
 8013f36:	f240 4124 	movw	r1, #1060	; 0x424
 8013f3a:	4811      	ldr	r0, [pc, #68]	; (8013f80 <UART4_IRQHandler+0xa8>)
 8013f3c:	f001 fa55 	bl	80153ea <USART_GetITStatus>
 8013f40:	4603      	mov	r3, r0
 8013f42:	2b01      	cmp	r3, #1
 8013f44:	d118      	bne.n	8013f78 <UART4_IRQHandler+0xa0>
	{
		WIFI_Fram_Record_Struct.InfBit.FramFinishFlag = 1;
 8013f46:	4a0f      	ldr	r2, [pc, #60]	; (8013f84 <UART4_IRQHandler+0xac>)
 8013f48:	f8b2 3400 	ldrh.w	r3, [r2, #1024]	; 0x400
 8013f4c:	f443 4300 	orr.w	r3, r3, #32768	; 0x8000
 8013f50:	f8a2 3400 	strh.w	r3, [r2, #1024]	; 0x400

		ucCh = USART_ReceiveData( UART4); //由软件序列清除中断标志位(先读USART_SR，然后读USART_DR)
 8013f54:	480a      	ldr	r0, [pc, #40]	; (8013f80 <UART4_IRQHandler+0xa8>)
 8013f56:	f001 fa0e 	bl	8015376 <USART_ReceiveData>
 8013f5a:	4603      	mov	r3, r0
 8013f5c:	71fb      	strb	r3, [r7, #7]

		TcpClosedFlag =
				strstr(WIFI_Fram_Record_Struct.Data_RX_BUF, "CLOSED\r\n") ?
 8013f5e:	490a      	ldr	r1, [pc, #40]	; (8013f88 <UART4_IRQHandler+0xb0>)
 8013f60:	4808      	ldr	r0, [pc, #32]	; (8013f84 <UART4_IRQHandler+0xac>)
 8013f62:	f002 fbcf 	bl	8016704 <strstr>
 8013f66:	4603      	mov	r3, r0
						1 : 0;
 8013f68:	2b00      	cmp	r3, #0
 8013f6a:	bf14      	ite	ne
 8013f6c:	2301      	movne	r3, #1
 8013f6e:	2300      	moveq	r3, #0
 8013f70:	b2db      	uxtb	r3, r3
 8013f72:	461a      	mov	r2, r3
		TcpClosedFlag =
 8013f74:	4b05      	ldr	r3, [pc, #20]	; (8013f8c <UART4_IRQHandler+0xb4>)
 8013f76:	701a      	strb	r2, [r3, #0]

	}
}
 8013f78:	bf00      	nop
 8013f7a:	3708      	adds	r7, #8
 8013f7c:	46bd      	mov	sp, r7
 8013f7e:	bd80      	pop	{r7, pc}
 8013f80:	40004c00 	.word	0x40004c00
 8013f84:	20001214 	.word	0x20001214
 8013f88:	0801b804 	.word	0x0801b804
 8013f8c:	20001616 	.word	0x20001616

08013f90 <itoa>:
#include "wifi_public.h"
#include <stdarg.h>

static char *itoa(int value, char *string, int radix)
{
 8013f90:	b480      	push	{r7}
 8013f92:	b089      	sub	sp, #36	; 0x24
 8013f94:	af00      	add	r7, sp, #0
 8013f96:	60f8      	str	r0, [r7, #12]
 8013f98:	60b9      	str	r1, [r7, #8]
 8013f9a:	607a      	str	r2, [r7, #4]
	int i, d;
	int flag = 0;
 8013f9c:	2300      	movs	r3, #0
 8013f9e:	61bb      	str	r3, [r7, #24]
	char *ptr = string;
 8013fa0:	68bb      	ldr	r3, [r7, #8]
 8013fa2:	617b      	str	r3, [r7, #20]

	/* This implementation only works for decimal numbers. */
	if (radix != 10)
 8013fa4:	687b      	ldr	r3, [r7, #4]
 8013fa6:	2b0a      	cmp	r3, #10
 8013fa8:	d004      	beq.n	8013fb4 <itoa+0x24>
	{
		*ptr = 0;
 8013faa:	697b      	ldr	r3, [r7, #20]
 8013fac:	2200      	movs	r2, #0
 8013fae:	701a      	strb	r2, [r3, #0]
		return string;
 8013fb0:	68bb      	ldr	r3, [r7, #8]
 8013fb2:	e046      	b.n	8014042 <itoa+0xb2>
	}

	if (!value)
 8013fb4:	68fb      	ldr	r3, [r7, #12]
 8013fb6:	2b00      	cmp	r3, #0
 8013fb8:	d109      	bne.n	8013fce <itoa+0x3e>
	{
		*ptr++ = 0x30;
 8013fba:	697b      	ldr	r3, [r7, #20]
 8013fbc:	1c5a      	adds	r2, r3, #1
 8013fbe:	617a      	str	r2, [r7, #20]
 8013fc0:	2230      	movs	r2, #48	; 0x30
 8013fc2:	701a      	strb	r2, [r3, #0]
		*ptr = 0;
 8013fc4:	697b      	ldr	r3, [r7, #20]
 8013fc6:	2200      	movs	r2, #0
 8013fc8:	701a      	strb	r2, [r3, #0]
		return string;
 8013fca:	68bb      	ldr	r3, [r7, #8]
 8013fcc:	e039      	b.n	8014042 <itoa+0xb2>
	}

	/* if this is a negative value insert the minus sign. */
	if (value < 0)
 8013fce:	68fb      	ldr	r3, [r7, #12]
 8013fd0:	2b00      	cmp	r3, #0
 8013fd2:	da07      	bge.n	8013fe4 <itoa+0x54>
	{
		*ptr++ = '-';
 8013fd4:	697b      	ldr	r3, [r7, #20]
 8013fd6:	1c5a      	adds	r2, r3, #1
 8013fd8:	617a      	str	r2, [r7, #20]
 8013fda:	222d      	movs	r2, #45	; 0x2d
 8013fdc:	701a      	strb	r2, [r3, #0]

		/* Make the value positive. */
		value *= -1;
 8013fde:	68fb      	ldr	r3, [r7, #12]
 8013fe0:	425b      	negs	r3, r3
 8013fe2:	60fb      	str	r3, [r7, #12]

	}

	for (i = 10000; i > 0; i /= 10)
 8013fe4:	f242 7310 	movw	r3, #10000	; 0x2710
 8013fe8:	61fb      	str	r3, [r7, #28]
 8013fea:	e023      	b.n	8014034 <itoa+0xa4>
	{
		d = value / i;
 8013fec:	68fa      	ldr	r2, [r7, #12]
 8013fee:	69fb      	ldr	r3, [r7, #28]
 8013ff0:	fb92 f3f3 	sdiv	r3, r2, r3
 8013ff4:	613b      	str	r3, [r7, #16]

		if (d || flag)
 8013ff6:	693b      	ldr	r3, [r7, #16]
 8013ff8:	2b00      	cmp	r3, #0
 8013ffa:	d102      	bne.n	8014002 <itoa+0x72>
 8013ffc:	69bb      	ldr	r3, [r7, #24]
 8013ffe:	2b00      	cmp	r3, #0
 8014000:	d010      	beq.n	8014024 <itoa+0x94>
		{
			*ptr++ = (char) (d + 0x30);
 8014002:	697b      	ldr	r3, [r7, #20]
 8014004:	1c5a      	adds	r2, r3, #1
 8014006:	617a      	str	r2, [r7, #20]
 8014008:	693a      	ldr	r2, [r7, #16]
 801400a:	b2d2      	uxtb	r2, r2
 801400c:	3230      	adds	r2, #48	; 0x30
 801400e:	b2d2      	uxtb	r2, r2
 8014010:	701a      	strb	r2, [r3, #0]
			value -= (d * i);
 8014012:	693b      	ldr	r3, [r7, #16]
 8014014:	69fa      	ldr	r2, [r7, #28]
 8014016:	fb02 f303 	mul.w	r3, r2, r3
 801401a:	68fa      	ldr	r2, [r7, #12]
 801401c:	1ad3      	subs	r3, r2, r3
 801401e:	60fb      	str	r3, [r7, #12]
			flag = 1;
 8014020:	2301      	movs	r3, #1
 8014022:	61bb      	str	r3, [r7, #24]
	for (i = 10000; i > 0; i /= 10)
 8014024:	69fb      	ldr	r3, [r7, #28]
 8014026:	4a09      	ldr	r2, [pc, #36]	; (801404c <itoa+0xbc>)
 8014028:	fb82 1203 	smull	r1, r2, r2, r3
 801402c:	1092      	asrs	r2, r2, #2
 801402e:	17db      	asrs	r3, r3, #31
 8014030:	1ad3      	subs	r3, r2, r3
 8014032:	61fb      	str	r3, [r7, #28]
 8014034:	69fb      	ldr	r3, [r7, #28]
 8014036:	2b00      	cmp	r3, #0
 8014038:	dcd8      	bgt.n	8013fec <itoa+0x5c>
		}
	}

	/* Null terminate the string. */
	*ptr = 0;
 801403a:	697b      	ldr	r3, [r7, #20]
 801403c:	2200      	movs	r2, #0
 801403e:	701a      	strb	r2, [r3, #0]

	return string;
 8014040:	68bb      	ldr	r3, [r7, #8]

} /* NCL_Itoa */
 8014042:	4618      	mov	r0, r3
 8014044:	3724      	adds	r7, #36	; 0x24
 8014046:	46bd      	mov	sp, r7
 8014048:	bc80      	pop	{r7}
 801404a:	4770      	bx	lr
 801404c:	66666667 	.word	0x66666667

08014050 <Wifi_USART_printf>:

void Wifi_USART_printf(USART_TypeDef * USARTx, char * Data, ...)
{
 8014050:	b40e      	push	{r1, r2, r3}
 8014052:	b580      	push	{r7, lr}
 8014054:	b08b      	sub	sp, #44	; 0x2c
 8014056:	af00      	add	r7, sp, #0
 8014058:	6078      	str	r0, [r7, #4]
	const char *s;
	int d;
	char buf[16];

	va_list ap;
	va_start(ap, Data);
 801405a:	f107 0338 	add.w	r3, r7, #56	; 0x38
 801405e:	60fb      	str	r3, [r7, #12]

	while (*Data != 0)     // 判断是否到达字符串结束符
 8014060:	e08e      	b.n	8014180 <Wifi_USART_printf+0x130>
	{
		if (*Data == 0x5c)  //'\'
 8014062:	6b7b      	ldr	r3, [r7, #52]	; 0x34
 8014064:	781b      	ldrb	r3, [r3, #0]
 8014066:	2b5c      	cmp	r3, #92	; 0x5c
 8014068:	d11d      	bne.n	80140a6 <Wifi_USART_printf+0x56>
		{
			switch (*++Data)
 801406a:	6b7b      	ldr	r3, [r7, #52]	; 0x34
 801406c:	3301      	adds	r3, #1
 801406e:	637b      	str	r3, [r7, #52]	; 0x34
 8014070:	6b7b      	ldr	r3, [r7, #52]	; 0x34
 8014072:	781b      	ldrb	r3, [r3, #0]
 8014074:	2b6e      	cmp	r3, #110	; 0x6e
 8014076:	d009      	beq.n	801408c <Wifi_USART_printf+0x3c>
 8014078:	2b72      	cmp	r3, #114	; 0x72
 801407a:	d10f      	bne.n	801409c <Wifi_USART_printf+0x4c>
			{
			case 'r':							          //回车符
				USART_SendData(USARTx, 0x0d);
 801407c:	210d      	movs	r1, #13
 801407e:	6878      	ldr	r0, [r7, #4]
 8014080:	f001 f968 	bl	8015354 <USART_SendData>
				Data++;
 8014084:	6b7b      	ldr	r3, [r7, #52]	; 0x34
 8014086:	3301      	adds	r3, #1
 8014088:	637b      	str	r3, [r7, #52]	; 0x34
				break;
 801408a:	e071      	b.n	8014170 <Wifi_USART_printf+0x120>

			case 'n':							          //换行符
				USART_SendData(USARTx, 0x0a);
 801408c:	210a      	movs	r1, #10
 801408e:	6878      	ldr	r0, [r7, #4]
 8014090:	f001 f960 	bl	8015354 <USART_SendData>
				Data++;
 8014094:	6b7b      	ldr	r3, [r7, #52]	; 0x34
 8014096:	3301      	adds	r3, #1
 8014098:	637b      	str	r3, [r7, #52]	; 0x34
				break;
 801409a:	e069      	b.n	8014170 <Wifi_USART_printf+0x120>

			default:
				Data++;
 801409c:	6b7b      	ldr	r3, [r7, #52]	; 0x34
 801409e:	3301      	adds	r3, #1
 80140a0:	637b      	str	r3, [r7, #52]	; 0x34
				break;
 80140a2:	bf00      	nop
 80140a4:	e064      	b.n	8014170 <Wifi_USART_printf+0x120>
			}
		}

		else if (*Data == '%')
 80140a6:	6b7b      	ldr	r3, [r7, #52]	; 0x34
 80140a8:	781b      	ldrb	r3, [r3, #0]
 80140aa:	2b25      	cmp	r3, #37	; 0x25
 80140ac:	d157      	bne.n	801415e <Wifi_USART_printf+0x10e>
		{									  //
			switch (*++Data)
 80140ae:	6b7b      	ldr	r3, [r7, #52]	; 0x34
 80140b0:	3301      	adds	r3, #1
 80140b2:	637b      	str	r3, [r7, #52]	; 0x34
 80140b4:	6b7b      	ldr	r3, [r7, #52]	; 0x34
 80140b6:	781b      	ldrb	r3, [r3, #0]
 80140b8:	2b64      	cmp	r3, #100	; 0x64
 80140ba:	d021      	beq.n	8014100 <Wifi_USART_printf+0xb0>
 80140bc:	2b73      	cmp	r3, #115	; 0x73
 80140be:	d149      	bne.n	8014154 <Wifi_USART_printf+0x104>
			{
			case 's':										  //字符串
				s = va_arg(ap, const char *);
 80140c0:	68fb      	ldr	r3, [r7, #12]
 80140c2:	1d1a      	adds	r2, r3, #4
 80140c4:	60fa      	str	r2, [r7, #12]
 80140c6:	681b      	ldr	r3, [r3, #0]
 80140c8:	627b      	str	r3, [r7, #36]	; 0x24

				for (; *s; s++)
 80140ca:	e011      	b.n	80140f0 <Wifi_USART_printf+0xa0>
				{
					USART_SendData(USARTx, *s);
 80140cc:	6a7b      	ldr	r3, [r7, #36]	; 0x24
 80140ce:	781b      	ldrb	r3, [r3, #0]
 80140d0:	b29b      	uxth	r3, r3
 80140d2:	4619      	mov	r1, r3
 80140d4:	6878      	ldr	r0, [r7, #4]
 80140d6:	f001 f93d 	bl	8015354 <USART_SendData>
					while (USART_GetFlagStatus(USARTx, USART_FLAG_TXE) == RESET)
 80140da:	bf00      	nop
 80140dc:	2180      	movs	r1, #128	; 0x80
 80140de:	6878      	ldr	r0, [r7, #4]
 80140e0:	f001 f958 	bl	8015394 <USART_GetFlagStatus>
 80140e4:	4603      	mov	r3, r0
 80140e6:	2b00      	cmp	r3, #0
 80140e8:	d0f8      	beq.n	80140dc <Wifi_USART_printf+0x8c>
				for (; *s; s++)
 80140ea:	6a7b      	ldr	r3, [r7, #36]	; 0x24
 80140ec:	3301      	adds	r3, #1
 80140ee:	627b      	str	r3, [r7, #36]	; 0x24
 80140f0:	6a7b      	ldr	r3, [r7, #36]	; 0x24
 80140f2:	781b      	ldrb	r3, [r3, #0]
 80140f4:	2b00      	cmp	r3, #0
 80140f6:	d1e9      	bne.n	80140cc <Wifi_USART_printf+0x7c>
						;
				}

				Data++;
 80140f8:	6b7b      	ldr	r3, [r7, #52]	; 0x34
 80140fa:	3301      	adds	r3, #1
 80140fc:	637b      	str	r3, [r7, #52]	; 0x34

				break;
 80140fe:	e037      	b.n	8014170 <Wifi_USART_printf+0x120>

			case 'd':
				//十进制
				d = va_arg(ap, int);
 8014100:	68fb      	ldr	r3, [r7, #12]
 8014102:	1d1a      	adds	r2, r3, #4
 8014104:	60fa      	str	r2, [r7, #12]
 8014106:	681b      	ldr	r3, [r3, #0]
 8014108:	623b      	str	r3, [r7, #32]

				itoa(d, buf, 10);
 801410a:	f107 0310 	add.w	r3, r7, #16
 801410e:	220a      	movs	r2, #10
 8014110:	4619      	mov	r1, r3
 8014112:	6a38      	ldr	r0, [r7, #32]
 8014114:	f7ff ff3c 	bl	8013f90 <itoa>

				for (s = buf; *s; s++)
 8014118:	f107 0310 	add.w	r3, r7, #16
 801411c:	627b      	str	r3, [r7, #36]	; 0x24
 801411e:	e011      	b.n	8014144 <Wifi_USART_printf+0xf4>
				{
					USART_SendData(USARTx, *s);
 8014120:	6a7b      	ldr	r3, [r7, #36]	; 0x24
 8014122:	781b      	ldrb	r3, [r3, #0]
 8014124:	b29b      	uxth	r3, r3
 8014126:	4619      	mov	r1, r3
 8014128:	6878      	ldr	r0, [r7, #4]
 801412a:	f001 f913 	bl	8015354 <USART_SendData>
					while (USART_GetFlagStatus(USARTx, USART_FLAG_TXE) == RESET)
 801412e:	bf00      	nop
 8014130:	2180      	movs	r1, #128	; 0x80
 8014132:	6878      	ldr	r0, [r7, #4]
 8014134:	f001 f92e 	bl	8015394 <USART_GetFlagStatus>
 8014138:	4603      	mov	r3, r0
 801413a:	2b00      	cmp	r3, #0
 801413c:	d0f8      	beq.n	8014130 <Wifi_USART_printf+0xe0>
				for (s = buf; *s; s++)
 801413e:	6a7b      	ldr	r3, [r7, #36]	; 0x24
 8014140:	3301      	adds	r3, #1
 8014142:	627b      	str	r3, [r7, #36]	; 0x24
 8014144:	6a7b      	ldr	r3, [r7, #36]	; 0x24
 8014146:	781b      	ldrb	r3, [r3, #0]
 8014148:	2b00      	cmp	r3, #0
 801414a:	d1e9      	bne.n	8014120 <Wifi_USART_printf+0xd0>
						;
				}

				Data++;
 801414c:	6b7b      	ldr	r3, [r7, #52]	; 0x34
 801414e:	3301      	adds	r3, #1
 8014150:	637b      	str	r3, [r7, #52]	; 0x34

				break;
 8014152:	e00d      	b.n	8014170 <Wifi_USART_printf+0x120>

			default:
				Data++;
 8014154:	6b7b      	ldr	r3, [r7, #52]	; 0x34
 8014156:	3301      	adds	r3, #1
 8014158:	637b      	str	r3, [r7, #52]	; 0x34

				break;
 801415a:	bf00      	nop
 801415c:	e008      	b.n	8014170 <Wifi_USART_printf+0x120>

			}
		}

		else
			USART_SendData(USARTx, *Data++);
 801415e:	6b7b      	ldr	r3, [r7, #52]	; 0x34
 8014160:	1c5a      	adds	r2, r3, #1
 8014162:	637a      	str	r2, [r7, #52]	; 0x34
 8014164:	781b      	ldrb	r3, [r3, #0]
 8014166:	b29b      	uxth	r3, r3
 8014168:	4619      	mov	r1, r3
 801416a:	6878      	ldr	r0, [r7, #4]
 801416c:	f001 f8f2 	bl	8015354 <USART_SendData>

		while (USART_GetFlagStatus(USARTx, USART_FLAG_TXE) == RESET)
 8014170:	bf00      	nop
 8014172:	2180      	movs	r1, #128	; 0x80
 8014174:	6878      	ldr	r0, [r7, #4]
 8014176:	f001 f90d 	bl	8015394 <USART_GetFlagStatus>
 801417a:	4603      	mov	r3, r0
 801417c:	2b00      	cmp	r3, #0
 801417e:	d0f8      	beq.n	8014172 <Wifi_USART_printf+0x122>
	while (*Data != 0)     // 判断是否到达字符串结束符
 8014180:	6b7b      	ldr	r3, [r7, #52]	; 0x34
 8014182:	781b      	ldrb	r3, [r3, #0]
 8014184:	2b00      	cmp	r3, #0
 8014186:	f47f af6c 	bne.w	8014062 <Wifi_USART_printf+0x12>
			;

	}
}
 801418a:	bf00      	nop
 801418c:	372c      	adds	r7, #44	; 0x2c
 801418e:	46bd      	mov	sp, r7
 8014190:	e8bd 4080 	ldmia.w	sp!, {r7, lr}
 8014194:	b003      	add	sp, #12
 8014196:	4770      	bx	lr

08014198 <NVIC_PriorityGroupConfig>:
  *     @arg NVIC_PriorityGroup_4: 4 bits for pre-emption priority
  *                                0 bits for subpriority
  * @retval None
  */
void NVIC_PriorityGroupConfig(uint32_t NVIC_PriorityGroup)
{
 8014198:	b480      	push	{r7}
 801419a:	b083      	sub	sp, #12
 801419c:	af00      	add	r7, sp, #0
 801419e:	6078      	str	r0, [r7, #4]
  /* Check the parameters */
  assert_param(IS_NVIC_PRIORITY_GROUP(NVIC_PriorityGroup));
  
  /* Set the PRIGROUP[10:8] bits according to NVIC_PriorityGroup value */
  SCB->AIRCR = AIRCR_VECTKEY_MASK | NVIC_PriorityGroup;
 80141a0:	4a05      	ldr	r2, [pc, #20]	; (80141b8 <NVIC_PriorityGroupConfig+0x20>)
 80141a2:	687b      	ldr	r3, [r7, #4]
 80141a4:	f043 63bf 	orr.w	r3, r3, #100139008	; 0x5f80000
 80141a8:	f443 3300 	orr.w	r3, r3, #131072	; 0x20000
 80141ac:	60d3      	str	r3, [r2, #12]
}
 80141ae:	bf00      	nop
 80141b0:	370c      	adds	r7, #12
 80141b2:	46bd      	mov	sp, r7
 80141b4:	bc80      	pop	{r7}
 80141b6:	4770      	bx	lr
 80141b8:	e000ed00 	.word	0xe000ed00

080141bc <NVIC_Init>:
  * @param  NVIC_InitStruct: pointer to a NVIC_InitTypeDef structure that contains
  *         the configuration information for the specified NVIC peripheral.
  * @retval None
  */
void NVIC_Init(NVIC_InitTypeDef* NVIC_InitStruct)
{
 80141bc:	b480      	push	{r7}
 80141be:	b087      	sub	sp, #28
 80141c0:	af00      	add	r7, sp, #0
 80141c2:	6078      	str	r0, [r7, #4]
  uint32_t tmppriority = 0x00, tmppre = 0x00, tmpsub = 0x0F;
 80141c4:	2300      	movs	r3, #0
 80141c6:	617b      	str	r3, [r7, #20]
 80141c8:	2300      	movs	r3, #0
 80141ca:	613b      	str	r3, [r7, #16]
 80141cc:	230f      	movs	r3, #15
 80141ce:	60fb      	str	r3, [r7, #12]
  /* Check the parameters */
  assert_param(IS_FUNCTIONAL_STATE(NVIC_InitStruct->NVIC_IRQChannelCmd));
  assert_param(IS_NVIC_PREEMPTION_PRIORITY(NVIC_InitStruct->NVIC_IRQChannelPreemptionPriority));  
  assert_param(IS_NVIC_SUB_PRIORITY(NVIC_InitStruct->NVIC_IRQChannelSubPriority));
    
  if (NVIC_InitStruct->NVIC_IRQChannelCmd != DISABLE)
 80141d0:	687b      	ldr	r3, [r7, #4]
 80141d2:	78db      	ldrb	r3, [r3, #3]
 80141d4:	2b00      	cmp	r3, #0
 80141d6:	d03a      	beq.n	801424e <NVIC_Init+0x92>
  {
    /* Compute the Corresponding IRQ Priority --------------------------------*/    
    tmppriority = (0x700 - ((SCB->AIRCR) & (uint32_t)0x700))>> 0x08;
 80141d8:	4b27      	ldr	r3, [pc, #156]	; (8014278 <NVIC_Init+0xbc>)
 80141da:	68db      	ldr	r3, [r3, #12]
 80141dc:	43db      	mvns	r3, r3
 80141de:	0a1b      	lsrs	r3, r3, #8
 80141e0:	f003 0307 	and.w	r3, r3, #7
 80141e4:	617b      	str	r3, [r7, #20]
    tmppre = (0x4 - tmppriority);
 80141e6:	697b      	ldr	r3, [r7, #20]
 80141e8:	f1c3 0304 	rsb	r3, r3, #4
 80141ec:	613b      	str	r3, [r7, #16]
    tmpsub = tmpsub >> tmppriority;
 80141ee:	68fa      	ldr	r2, [r7, #12]
 80141f0:	697b      	ldr	r3, [r7, #20]
 80141f2:	fa22 f303 	lsr.w	r3, r2, r3
 80141f6:	60fb      	str	r3, [r7, #12]

    tmppriority = (uint32_t)NVIC_InitStruct->NVIC_IRQChannelPreemptionPriority << tmppre;
 80141f8:	687b      	ldr	r3, [r7, #4]
 80141fa:	785b      	ldrb	r3, [r3, #1]
 80141fc:	461a      	mov	r2, r3
 80141fe:	693b      	ldr	r3, [r7, #16]
 8014200:	fa02 f303 	lsl.w	r3, r2, r3
 8014204:	617b      	str	r3, [r7, #20]
    tmppriority |=  NVIC_InitStruct->NVIC_IRQChannelSubPriority & tmpsub;
 8014206:	687b      	ldr	r3, [r7, #4]
 8014208:	789b      	ldrb	r3, [r3, #2]
 801420a:	461a      	mov	r2, r3
 801420c:	68fb      	ldr	r3, [r7, #12]
 801420e:	4013      	ands	r3, r2
 8014210:	697a      	ldr	r2, [r7, #20]
 8014212:	4313      	orrs	r3, r2
 8014214:	617b      	str	r3, [r7, #20]
    tmppriority = tmppriority << 0x04;
 8014216:	697b      	ldr	r3, [r7, #20]
 8014218:	011b      	lsls	r3, r3, #4
 801421a:	617b      	str	r3, [r7, #20]
        
    NVIC->IP[NVIC_InitStruct->NVIC_IRQChannel] = tmppriority;
 801421c:	4a17      	ldr	r2, [pc, #92]	; (801427c <NVIC_Init+0xc0>)
 801421e:	687b      	ldr	r3, [r7, #4]
 8014220:	781b      	ldrb	r3, [r3, #0]
 8014222:	6979      	ldr	r1, [r7, #20]
 8014224:	b2c9      	uxtb	r1, r1
 8014226:	4413      	add	r3, r2
 8014228:	460a      	mov	r2, r1
 801422a:	f883 2300 	strb.w	r2, [r3, #768]	; 0x300
    
    /* Enable the Selected IRQ Channels --------------------------------------*/
    NVIC->ISER[NVIC_InitStruct->NVIC_IRQChannel >> 0x05] =
 801422e:	4a13      	ldr	r2, [pc, #76]	; (801427c <NVIC_Init+0xc0>)
 8014230:	687b      	ldr	r3, [r7, #4]
 8014232:	781b      	ldrb	r3, [r3, #0]
 8014234:	095b      	lsrs	r3, r3, #5
 8014236:	b2db      	uxtb	r3, r3
 8014238:	4618      	mov	r0, r3
      (uint32_t)0x01 << (NVIC_InitStruct->NVIC_IRQChannel & (uint8_t)0x1F);
 801423a:	687b      	ldr	r3, [r7, #4]
 801423c:	781b      	ldrb	r3, [r3, #0]
 801423e:	f003 031f 	and.w	r3, r3, #31
 8014242:	2101      	movs	r1, #1
 8014244:	fa01 f303 	lsl.w	r3, r1, r3
    NVIC->ISER[NVIC_InitStruct->NVIC_IRQChannel >> 0x05] =
 8014248:	f842 3020 	str.w	r3, [r2, r0, lsl #2]
  {
    /* Disable the Selected IRQ Channels -------------------------------------*/
    NVIC->ICER[NVIC_InitStruct->NVIC_IRQChannel >> 0x05] =
      (uint32_t)0x01 << (NVIC_InitStruct->NVIC_IRQChannel & (uint8_t)0x1F);
  }
}
 801424c:	e00f      	b.n	801426e <NVIC_Init+0xb2>
    NVIC->ICER[NVIC_InitStruct->NVIC_IRQChannel >> 0x05] =
 801424e:	490b      	ldr	r1, [pc, #44]	; (801427c <NVIC_Init+0xc0>)
 8014250:	687b      	ldr	r3, [r7, #4]
 8014252:	781b      	ldrb	r3, [r3, #0]
 8014254:	095b      	lsrs	r3, r3, #5
 8014256:	b2db      	uxtb	r3, r3
 8014258:	4618      	mov	r0, r3
      (uint32_t)0x01 << (NVIC_InitStruct->NVIC_IRQChannel & (uint8_t)0x1F);
 801425a:	687b      	ldr	r3, [r7, #4]
 801425c:	781b      	ldrb	r3, [r3, #0]
 801425e:	f003 031f 	and.w	r3, r3, #31
 8014262:	2201      	movs	r2, #1
 8014264:	409a      	lsls	r2, r3
    NVIC->ICER[NVIC_InitStruct->NVIC_IRQChannel >> 0x05] =
 8014266:	f100 0320 	add.w	r3, r0, #32
 801426a:	f841 2023 	str.w	r2, [r1, r3, lsl #2]
}
 801426e:	bf00      	nop
 8014270:	371c      	adds	r7, #28
 8014272:	46bd      	mov	sp, r7
 8014274:	bc80      	pop	{r7}
 8014276:	4770      	bx	lr
 8014278:	e000ed00 	.word	0xe000ed00
 801427c:	e000e100 	.word	0xe000e100

08014280 <NVIC_SetVectorTable>:
  * @param  Offset: Vector Table base offset field. This value must be a multiple 
  *         of 0x200.
  * @retval None
  */
void NVIC_SetVectorTable(uint32_t NVIC_VectTab, uint32_t Offset)
{ 
 8014280:	b480      	push	{r7}
 8014282:	b083      	sub	sp, #12
 8014284:	af00      	add	r7, sp, #0
 8014286:	6078      	str	r0, [r7, #4]
 8014288:	6039      	str	r1, [r7, #0]
  /* Check the parameters */
  assert_param(IS_NVIC_VECTTAB(NVIC_VectTab));
  assert_param(IS_NVIC_OFFSET(Offset));  
   
  SCB->VTOR = NVIC_VectTab | (Offset & (uint32_t)0x1FFFFF80);
 801428a:	4907      	ldr	r1, [pc, #28]	; (80142a8 <NVIC_SetVectorTable+0x28>)
 801428c:	683b      	ldr	r3, [r7, #0]
 801428e:	f023 4360 	bic.w	r3, r3, #3758096384	; 0xe0000000
 8014292:	f023 037f 	bic.w	r3, r3, #127	; 0x7f
 8014296:	687a      	ldr	r2, [r7, #4]
 8014298:	4313      	orrs	r3, r2
 801429a:	608b      	str	r3, [r1, #8]
}
 801429c:	bf00      	nop
 801429e:	370c      	adds	r7, #12
 80142a0:	46bd      	mov	sp, r7
 80142a2:	bc80      	pop	{r7}
 80142a4:	4770      	bx	lr
 80142a6:	bf00      	nop
 80142a8:	e000ed00 	.word	0xe000ed00

080142ac <SysTick_CLKSourceConfig>:
  *     @arg SysTick_CLKSource_HCLK_Div8: AHB clock divided by 8 selected as SysTick clock source.
  *     @arg SysTick_CLKSource_HCLK: AHB clock selected as SysTick clock source.
  * @retval None
  */
void SysTick_CLKSourceConfig(uint32_t SysTick_CLKSource)
{
 80142ac:	b480      	push	{r7}
 80142ae:	b083      	sub	sp, #12
 80142b0:	af00      	add	r7, sp, #0
 80142b2:	6078      	str	r0, [r7, #4]
  /* Check the parameters */
  assert_param(IS_SYSTICK_CLK_SOURCE(SysTick_CLKSource));
  if (SysTick_CLKSource == SysTick_CLKSource_HCLK)
 80142b4:	687b      	ldr	r3, [r7, #4]
 80142b6:	2b04      	cmp	r3, #4
 80142b8:	d106      	bne.n	80142c8 <SysTick_CLKSourceConfig+0x1c>
  {
    SysTick->CTRL |= SysTick_CLKSource_HCLK;
 80142ba:	4a09      	ldr	r2, [pc, #36]	; (80142e0 <SysTick_CLKSourceConfig+0x34>)
 80142bc:	4b08      	ldr	r3, [pc, #32]	; (80142e0 <SysTick_CLKSourceConfig+0x34>)
 80142be:	681b      	ldr	r3, [r3, #0]
 80142c0:	f043 0304 	orr.w	r3, r3, #4
 80142c4:	6013      	str	r3, [r2, #0]
  }
  else
  {
    SysTick->CTRL &= SysTick_CLKSource_HCLK_Div8;
  }
}
 80142c6:	e005      	b.n	80142d4 <SysTick_CLKSourceConfig+0x28>
    SysTick->CTRL &= SysTick_CLKSource_HCLK_Div8;
 80142c8:	4a05      	ldr	r2, [pc, #20]	; (80142e0 <SysTick_CLKSourceConfig+0x34>)
 80142ca:	4b05      	ldr	r3, [pc, #20]	; (80142e0 <SysTick_CLKSourceConfig+0x34>)
 80142cc:	681b      	ldr	r3, [r3, #0]
 80142ce:	f023 0304 	bic.w	r3, r3, #4
 80142d2:	6013      	str	r3, [r2, #0]
}
 80142d4:	bf00      	nop
 80142d6:	370c      	adds	r7, #12
 80142d8:	46bd      	mov	sp, r7
 80142da:	bc80      	pop	{r7}
 80142dc:	4770      	bx	lr
 80142de:	bf00      	nop
 80142e0:	e000e010 	.word	0xe000e010

080142e4 <FLASH_SetLatency>:
  *     @arg FLASH_Latency_1: FLASH One Latency cycle
  *     @arg FLASH_Latency_2: FLASH Two Latency cycles
  * @retval None
  */
void FLASH_SetLatency(uint32_t FLASH_Latency)
{
 80142e4:	b480      	push	{r7}
 80142e6:	b085      	sub	sp, #20
 80142e8:	af00      	add	r7, sp, #0
 80142ea:	6078      	str	r0, [r7, #4]
  uint32_t tmpreg = 0;
 80142ec:	2300      	movs	r3, #0
 80142ee:	60fb      	str	r3, [r7, #12]
  
  /* Check the parameters */
  assert_param(IS_FLASH_LATENCY(FLASH_Latency));
  
  /* Read the ACR register */
  tmpreg = FLASH->ACR;  
 80142f0:	4b09      	ldr	r3, [pc, #36]	; (8014318 <FLASH_SetLatency+0x34>)
 80142f2:	681b      	ldr	r3, [r3, #0]
 80142f4:	60fb      	str	r3, [r7, #12]
  
  /* Sets the Latency value */
  tmpreg &= ACR_LATENCY_Mask;
 80142f6:	68fb      	ldr	r3, [r7, #12]
 80142f8:	f003 0338 	and.w	r3, r3, #56	; 0x38
 80142fc:	60fb      	str	r3, [r7, #12]
  tmpreg |= FLASH_Latency;
 80142fe:	68fa      	ldr	r2, [r7, #12]
 8014300:	687b      	ldr	r3, [r7, #4]
 8014302:	4313      	orrs	r3, r2
 8014304:	60fb      	str	r3, [r7, #12]
  
  /* Write the ACR register */
  FLASH->ACR = tmpreg;
 8014306:	4a04      	ldr	r2, [pc, #16]	; (8014318 <FLASH_SetLatency+0x34>)
 8014308:	68fb      	ldr	r3, [r7, #12]
 801430a:	6013      	str	r3, [r2, #0]
}
 801430c:	bf00      	nop
 801430e:	3714      	adds	r7, #20
 8014310:	46bd      	mov	sp, r7
 8014312:	bc80      	pop	{r7}
 8014314:	4770      	bx	lr
 8014316:	bf00      	nop
 8014318:	40022000 	.word	0x40022000

0801431c <FLASH_PrefetchBufferCmd>:
  *     @arg FLASH_PrefetchBuffer_Enable: FLASH Prefetch Buffer Enable
  *     @arg FLASH_PrefetchBuffer_Disable: FLASH Prefetch Buffer Disable
  * @retval None
  */
void FLASH_PrefetchBufferCmd(uint32_t FLASH_PrefetchBuffer)
{
 801431c:	b480      	push	{r7}
 801431e:	b083      	sub	sp, #12
 8014320:	af00      	add	r7, sp, #0
 8014322:	6078      	str	r0, [r7, #4]
  /* Check the parameters */
  assert_param(IS_FLASH_PREFETCHBUFFER_STATE(FLASH_PrefetchBuffer));
  
  /* Enable or disable the Prefetch Buffer */
  FLASH->ACR &= ACR_PRFTBE_Mask;
 8014324:	4a08      	ldr	r2, [pc, #32]	; (8014348 <FLASH_PrefetchBufferCmd+0x2c>)
 8014326:	4b08      	ldr	r3, [pc, #32]	; (8014348 <FLASH_PrefetchBufferCmd+0x2c>)
 8014328:	681b      	ldr	r3, [r3, #0]
 801432a:	f023 0310 	bic.w	r3, r3, #16
 801432e:	6013      	str	r3, [r2, #0]
  FLASH->ACR |= FLASH_PrefetchBuffer;
 8014330:	4905      	ldr	r1, [pc, #20]	; (8014348 <FLASH_PrefetchBufferCmd+0x2c>)
 8014332:	4b05      	ldr	r3, [pc, #20]	; (8014348 <FLASH_PrefetchBufferCmd+0x2c>)
 8014334:	681a      	ldr	r2, [r3, #0]
 8014336:	687b      	ldr	r3, [r7, #4]
 8014338:	4313      	orrs	r3, r2
 801433a:	600b      	str	r3, [r1, #0]
}
 801433c:	bf00      	nop
 801433e:	370c      	adds	r7, #12
 8014340:	46bd      	mov	sp, r7
 8014342:	bc80      	pop	{r7}
 8014344:	4770      	bx	lr
 8014346:	bf00      	nop
 8014348:	40022000 	.word	0x40022000

0801434c <FLASH_Unlock>:
  *           to FLASH_UnlockBank1 function.. 
  * @param  None
  * @retval None
  */
void FLASH_Unlock(void)
{
 801434c:	b480      	push	{r7}
 801434e:	af00      	add	r7, sp, #0
  /* Authorize the FPEC of Bank1 Access */
  FLASH->KEYR = FLASH_KEY1;
 8014350:	4b04      	ldr	r3, [pc, #16]	; (8014364 <FLASH_Unlock+0x18>)
 8014352:	4a05      	ldr	r2, [pc, #20]	; (8014368 <FLASH_Unlock+0x1c>)
 8014354:	605a      	str	r2, [r3, #4]
  FLASH->KEYR = FLASH_KEY2;
 8014356:	4b03      	ldr	r3, [pc, #12]	; (8014364 <FLASH_Unlock+0x18>)
 8014358:	4a04      	ldr	r2, [pc, #16]	; (801436c <FLASH_Unlock+0x20>)
 801435a:	605a      	str	r2, [r3, #4]
#ifdef STM32F10X_XL
  /* Authorize the FPEC of Bank2 Access */
  FLASH->KEYR2 = FLASH_KEY1;
  FLASH->KEYR2 = FLASH_KEY2;
#endif /* STM32F10X_XL */
}
 801435c:	bf00      	nop
 801435e:	46bd      	mov	sp, r7
 8014360:	bc80      	pop	{r7}
 8014362:	4770      	bx	lr
 8014364:	40022000 	.word	0x40022000
 8014368:	45670123 	.word	0x45670123
 801436c:	cdef89ab 	.word	0xcdef89ab

08014370 <FLASH_Lock>:
  *           to FLASH_LockBank1 function.
  * @param  None
  * @retval None
  */
void FLASH_Lock(void)
{
 8014370:	b480      	push	{r7}
 8014372:	af00      	add	r7, sp, #0
  /* Set the Lock Bit to lock the FPEC and the CR of  Bank1 */
  FLASH->CR |= CR_LOCK_Set;
 8014374:	4a04      	ldr	r2, [pc, #16]	; (8014388 <FLASH_Lock+0x18>)
 8014376:	4b04      	ldr	r3, [pc, #16]	; (8014388 <FLASH_Lock+0x18>)
 8014378:	691b      	ldr	r3, [r3, #16]
 801437a:	f043 0380 	orr.w	r3, r3, #128	; 0x80
 801437e:	6113      	str	r3, [r2, #16]

#ifdef STM32F10X_XL
  /* Set the Lock Bit to lock the FPEC and the CR of  Bank2 */
  FLASH->CR2 |= CR_LOCK_Set;
#endif /* STM32F10X_XL */
}
 8014380:	bf00      	nop
 8014382:	46bd      	mov	sp, r7
 8014384:	bc80      	pop	{r7}
 8014386:	4770      	bx	lr
 8014388:	40022000 	.word	0x40022000

0801438c <FLASH_ErasePage>:
  * @param  Page_Address: The page address to be erased.
  * @retval FLASH Status: The returned value can be: FLASH_BUSY, FLASH_ERROR_PG,
  *         FLASH_ERROR_WRP, FLASH_COMPLETE or FLASH_TIMEOUT.
  */
FLASH_Status FLASH_ErasePage(uint32_t Page_Address)
{
 801438c:	b580      	push	{r7, lr}
 801438e:	b084      	sub	sp, #16
 8014390:	af00      	add	r7, sp, #0
 8014392:	6078      	str	r0, [r7, #4]
  FLASH_Status status = FLASH_COMPLETE;
 8014394:	2304      	movs	r3, #4
 8014396:	73fb      	strb	r3, [r7, #15]
      FLASH->CR2 &= CR_PER_Reset;
    }
  }
#else
  /* Wait for last operation to be completed */
  status = FLASH_WaitForLastOperation(EraseTimeout);
 8014398:	f44f 2030 	mov.w	r0, #720896	; 0xb0000
 801439c:	f000 f880 	bl	80144a0 <FLASH_WaitForLastOperation>
 80143a0:	4603      	mov	r3, r0
 80143a2:	73fb      	strb	r3, [r7, #15]
  
  if(status == FLASH_COMPLETE)
 80143a4:	7bfb      	ldrb	r3, [r7, #15]
 80143a6:	2b04      	cmp	r3, #4
 80143a8:	d11b      	bne.n	80143e2 <FLASH_ErasePage+0x56>
  { 
    /* if the previous operation is completed, proceed to erase the page */
    FLASH->CR|= CR_PER_Set;
 80143aa:	4a10      	ldr	r2, [pc, #64]	; (80143ec <FLASH_ErasePage+0x60>)
 80143ac:	4b0f      	ldr	r3, [pc, #60]	; (80143ec <FLASH_ErasePage+0x60>)
 80143ae:	691b      	ldr	r3, [r3, #16]
 80143b0:	f043 0302 	orr.w	r3, r3, #2
 80143b4:	6113      	str	r3, [r2, #16]
    FLASH->AR = Page_Address; 
 80143b6:	4a0d      	ldr	r2, [pc, #52]	; (80143ec <FLASH_ErasePage+0x60>)
 80143b8:	687b      	ldr	r3, [r7, #4]
 80143ba:	6153      	str	r3, [r2, #20]
    FLASH->CR|= CR_STRT_Set;
 80143bc:	4a0b      	ldr	r2, [pc, #44]	; (80143ec <FLASH_ErasePage+0x60>)
 80143be:	4b0b      	ldr	r3, [pc, #44]	; (80143ec <FLASH_ErasePage+0x60>)
 80143c0:	691b      	ldr	r3, [r3, #16]
 80143c2:	f043 0340 	orr.w	r3, r3, #64	; 0x40
 80143c6:	6113      	str	r3, [r2, #16]
    
    /* Wait for last operation to be completed */
    status = FLASH_WaitForLastOperation(EraseTimeout);
 80143c8:	f44f 2030 	mov.w	r0, #720896	; 0xb0000
 80143cc:	f000 f868 	bl	80144a0 <FLASH_WaitForLastOperation>
 80143d0:	4603      	mov	r3, r0
 80143d2:	73fb      	strb	r3, [r7, #15]
    
    /* Disable the PER Bit */
    FLASH->CR &= CR_PER_Reset;
 80143d4:	4905      	ldr	r1, [pc, #20]	; (80143ec <FLASH_ErasePage+0x60>)
 80143d6:	4b05      	ldr	r3, [pc, #20]	; (80143ec <FLASH_ErasePage+0x60>)
 80143d8:	691a      	ldr	r2, [r3, #16]
 80143da:	f641 73fd 	movw	r3, #8189	; 0x1ffd
 80143de:	4013      	ands	r3, r2
 80143e0:	610b      	str	r3, [r1, #16]
  }
#endif /* STM32F10X_XL */

  /* Return the Erase Status */
  return status;
 80143e2:	7bfb      	ldrb	r3, [r7, #15]
}
 80143e4:	4618      	mov	r0, r3
 80143e6:	3710      	adds	r7, #16
 80143e8:	46bd      	mov	sp, r7
 80143ea:	bd80      	pop	{r7, pc}
 80143ec:	40022000 	.word	0x40022000

080143f0 <FLASH_ProgramHalfWord>:
  * @param  Data: specifies the data to be programmed.
  * @retval FLASH Status: The returned value can be: FLASH_ERROR_PG,
  *         FLASH_ERROR_WRP, FLASH_COMPLETE or FLASH_TIMEOUT. 
  */
FLASH_Status FLASH_ProgramHalfWord(uint32_t Address, uint16_t Data)
{
 80143f0:	b580      	push	{r7, lr}
 80143f2:	b084      	sub	sp, #16
 80143f4:	af00      	add	r7, sp, #0
 80143f6:	6078      	str	r0, [r7, #4]
 80143f8:	460b      	mov	r3, r1
 80143fa:	807b      	strh	r3, [r7, #2]
  FLASH_Status status = FLASH_COMPLETE;
 80143fc:	2304      	movs	r3, #4
 80143fe:	73fb      	strb	r3, [r7, #15]
      FLASH->CR2 &= CR_PG_Reset;
    }
  }
#else
  /* Wait for last operation to be completed */
  status = FLASH_WaitForLastOperation(ProgramTimeout);
 8014400:	f44f 5000 	mov.w	r0, #8192	; 0x2000
 8014404:	f000 f84c 	bl	80144a0 <FLASH_WaitForLastOperation>
 8014408:	4603      	mov	r3, r0
 801440a:	73fb      	strb	r3, [r7, #15]
  
  if(status == FLASH_COMPLETE)
 801440c:	7bfb      	ldrb	r3, [r7, #15]
 801440e:	2b04      	cmp	r3, #4
 8014410:	d115      	bne.n	801443e <FLASH_ProgramHalfWord+0x4e>
  {
    /* if the previous operation is completed, proceed to program the new data */
    FLASH->CR |= CR_PG_Set;
 8014412:	4a0d      	ldr	r2, [pc, #52]	; (8014448 <FLASH_ProgramHalfWord+0x58>)
 8014414:	4b0c      	ldr	r3, [pc, #48]	; (8014448 <FLASH_ProgramHalfWord+0x58>)
 8014416:	691b      	ldr	r3, [r3, #16]
 8014418:	f043 0301 	orr.w	r3, r3, #1
 801441c:	6113      	str	r3, [r2, #16]
  
    *(__IO uint16_t*)Address = Data;
 801441e:	687b      	ldr	r3, [r7, #4]
 8014420:	887a      	ldrh	r2, [r7, #2]
 8014422:	801a      	strh	r2, [r3, #0]
    /* Wait for last operation to be completed */
    status = FLASH_WaitForLastOperation(ProgramTimeout);
 8014424:	f44f 5000 	mov.w	r0, #8192	; 0x2000
 8014428:	f000 f83a 	bl	80144a0 <FLASH_WaitForLastOperation>
 801442c:	4603      	mov	r3, r0
 801442e:	73fb      	strb	r3, [r7, #15]
    
    /* Disable the PG Bit */
    FLASH->CR &= CR_PG_Reset;
 8014430:	4905      	ldr	r1, [pc, #20]	; (8014448 <FLASH_ProgramHalfWord+0x58>)
 8014432:	4b05      	ldr	r3, [pc, #20]	; (8014448 <FLASH_ProgramHalfWord+0x58>)
 8014434:	691a      	ldr	r2, [r3, #16]
 8014436:	f641 73fe 	movw	r3, #8190	; 0x1ffe
 801443a:	4013      	ands	r3, r2
 801443c:	610b      	str	r3, [r1, #16]
  } 
#endif  /* STM32F10X_XL */
  
  /* Return the Program Status */
  return status;
 801443e:	7bfb      	ldrb	r3, [r7, #15]
}
 8014440:	4618      	mov	r0, r3
 8014442:	3710      	adds	r7, #16
 8014444:	46bd      	mov	sp, r7
 8014446:	bd80      	pop	{r7, pc}
 8014448:	40022000 	.word	0x40022000

0801444c <FLASH_GetBank1Status>:
  * @param  None
  * @retval FLASH Status: The returned value can be: FLASH_BUSY, FLASH_ERROR_PG,
  *         FLASH_ERROR_WRP or FLASH_COMPLETE
  */
FLASH_Status FLASH_GetBank1Status(void)
{
 801444c:	b480      	push	{r7}
 801444e:	b083      	sub	sp, #12
 8014450:	af00      	add	r7, sp, #0
  FLASH_Status flashstatus = FLASH_COMPLETE;
 8014452:	2304      	movs	r3, #4
 8014454:	71fb      	strb	r3, [r7, #7]
  
  if((FLASH->SR & FLASH_FLAG_BANK1_BSY) == FLASH_FLAG_BSY) 
 8014456:	4b11      	ldr	r3, [pc, #68]	; (801449c <FLASH_GetBank1Status+0x50>)
 8014458:	68db      	ldr	r3, [r3, #12]
 801445a:	f003 0301 	and.w	r3, r3, #1
 801445e:	2b01      	cmp	r3, #1
 8014460:	d102      	bne.n	8014468 <FLASH_GetBank1Status+0x1c>
  {
    flashstatus = FLASH_BUSY;
 8014462:	2301      	movs	r3, #1
 8014464:	71fb      	strb	r3, [r7, #7]
 8014466:	e013      	b.n	8014490 <FLASH_GetBank1Status+0x44>
  }
  else 
  {  
    if((FLASH->SR & FLASH_FLAG_BANK1_PGERR) != 0)
 8014468:	4b0c      	ldr	r3, [pc, #48]	; (801449c <FLASH_GetBank1Status+0x50>)
 801446a:	68db      	ldr	r3, [r3, #12]
 801446c:	f003 0304 	and.w	r3, r3, #4
 8014470:	2b00      	cmp	r3, #0
 8014472:	d002      	beq.n	801447a <FLASH_GetBank1Status+0x2e>
    { 
      flashstatus = FLASH_ERROR_PG;
 8014474:	2302      	movs	r3, #2
 8014476:	71fb      	strb	r3, [r7, #7]
 8014478:	e00a      	b.n	8014490 <FLASH_GetBank1Status+0x44>
    }
    else 
    {
      if((FLASH->SR & FLASH_FLAG_BANK1_WRPRTERR) != 0 )
 801447a:	4b08      	ldr	r3, [pc, #32]	; (801449c <FLASH_GetBank1Status+0x50>)
 801447c:	68db      	ldr	r3, [r3, #12]
 801447e:	f003 0310 	and.w	r3, r3, #16
 8014482:	2b00      	cmp	r3, #0
 8014484:	d002      	beq.n	801448c <FLASH_GetBank1Status+0x40>
      {
        flashstatus = FLASH_ERROR_WRP;
 8014486:	2303      	movs	r3, #3
 8014488:	71fb      	strb	r3, [r7, #7]
 801448a:	e001      	b.n	8014490 <FLASH_GetBank1Status+0x44>
      }
      else
      {
        flashstatus = FLASH_COMPLETE;
 801448c:	2304      	movs	r3, #4
 801448e:	71fb      	strb	r3, [r7, #7]
      }
    }
  }
  /* Return the Flash Status */
  return flashstatus;
 8014490:	79fb      	ldrb	r3, [r7, #7]
}
 8014492:	4618      	mov	r0, r3
 8014494:	370c      	adds	r7, #12
 8014496:	46bd      	mov	sp, r7
 8014498:	bc80      	pop	{r7}
 801449a:	4770      	bx	lr
 801449c:	40022000 	.word	0x40022000

080144a0 <FLASH_WaitForLastOperation>:
  * @param  Timeout: FLASH programming Timeout
  * @retval FLASH Status: The returned value can be: FLASH_ERROR_PG,
  *         FLASH_ERROR_WRP, FLASH_COMPLETE or FLASH_TIMEOUT.
  */
FLASH_Status FLASH_WaitForLastOperation(uint32_t Timeout)
{ 
 80144a0:	b580      	push	{r7, lr}
 80144a2:	b084      	sub	sp, #16
 80144a4:	af00      	add	r7, sp, #0
 80144a6:	6078      	str	r0, [r7, #4]
  FLASH_Status status = FLASH_COMPLETE;
 80144a8:	2304      	movs	r3, #4
 80144aa:	73fb      	strb	r3, [r7, #15]
   
  /* Check for the Flash Status */
  status = FLASH_GetBank1Status();
 80144ac:	f7ff ffce 	bl	801444c <FLASH_GetBank1Status>
 80144b0:	4603      	mov	r3, r0
 80144b2:	73fb      	strb	r3, [r7, #15]
  /* Wait for a Flash operation to complete or a TIMEOUT to occur */
  while((status == FLASH_BUSY) && (Timeout != 0x00))
 80144b4:	e006      	b.n	80144c4 <FLASH_WaitForLastOperation+0x24>
  {
    status = FLASH_GetBank1Status();
 80144b6:	f7ff ffc9 	bl	801444c <FLASH_GetBank1Status>
 80144ba:	4603      	mov	r3, r0
 80144bc:	73fb      	strb	r3, [r7, #15]
    Timeout--;
 80144be:	687b      	ldr	r3, [r7, #4]
 80144c0:	3b01      	subs	r3, #1
 80144c2:	607b      	str	r3, [r7, #4]
  while((status == FLASH_BUSY) && (Timeout != 0x00))
 80144c4:	7bfb      	ldrb	r3, [r7, #15]
 80144c6:	2b01      	cmp	r3, #1
 80144c8:	d102      	bne.n	80144d0 <FLASH_WaitForLastOperation+0x30>
 80144ca:	687b      	ldr	r3, [r7, #4]
 80144cc:	2b00      	cmp	r3, #0
 80144ce:	d1f2      	bne.n	80144b6 <FLASH_WaitForLastOperation+0x16>
  }
  if(Timeout == 0x00 )
 80144d0:	687b      	ldr	r3, [r7, #4]
 80144d2:	2b00      	cmp	r3, #0
 80144d4:	d101      	bne.n	80144da <FLASH_WaitForLastOperation+0x3a>
  {
    status = FLASH_TIMEOUT;
 80144d6:	2305      	movs	r3, #5
 80144d8:	73fb      	strb	r3, [r7, #15]
  }
  /* Return the operation status */
  return status;
 80144da:	7bfb      	ldrb	r3, [r7, #15]
}
 80144dc:	4618      	mov	r0, r3
 80144de:	3710      	adds	r7, #16
 80144e0:	46bd      	mov	sp, r7
 80144e2:	bd80      	pop	{r7, pc}

080144e4 <GPIO_Init>:
  * @param  GPIO_InitStruct: pointer to a GPIO_InitTypeDef structure that
  *         contains the configuration information for the specified GPIO peripheral.
  * @retval None
  */
void GPIO_Init(GPIO_TypeDef* GPIOx, GPIO_InitTypeDef* GPIO_InitStruct)
{
 80144e4:	b480      	push	{r7}
 80144e6:	b089      	sub	sp, #36	; 0x24
 80144e8:	af00      	add	r7, sp, #0
 80144ea:	6078      	str	r0, [r7, #4]
 80144ec:	6039      	str	r1, [r7, #0]
  uint32_t currentmode = 0x00, currentpin = 0x00, pinpos = 0x00, pos = 0x00;
 80144ee:	2300      	movs	r3, #0
 80144f0:	61fb      	str	r3, [r7, #28]
 80144f2:	2300      	movs	r3, #0
 80144f4:	613b      	str	r3, [r7, #16]
 80144f6:	2300      	movs	r3, #0
 80144f8:	61bb      	str	r3, [r7, #24]
 80144fa:	2300      	movs	r3, #0
 80144fc:	60fb      	str	r3, [r7, #12]
  uint32_t tmpreg = 0x00, pinmask = 0x00;
 80144fe:	2300      	movs	r3, #0
 8014500:	617b      	str	r3, [r7, #20]
 8014502:	2300      	movs	r3, #0
 8014504:	60bb      	str	r3, [r7, #8]
  assert_param(IS_GPIO_ALL_PERIPH(GPIOx));
  assert_param(IS_GPIO_MODE(GPIO_InitStruct->GPIO_Mode));
  assert_param(IS_GPIO_PIN(GPIO_InitStruct->GPIO_Pin));  
  
/*---------------------------- GPIO Mode Configuration -----------------------*/
  currentmode = ((uint32_t)GPIO_InitStruct->GPIO_Mode) & ((uint32_t)0x0F);
 8014506:	683b      	ldr	r3, [r7, #0]
 8014508:	78db      	ldrb	r3, [r3, #3]
 801450a:	f003 030f 	and.w	r3, r3, #15
 801450e:	61fb      	str	r3, [r7, #28]
  if ((((uint32_t)GPIO_InitStruct->GPIO_Mode) & ((uint32_t)0x10)) != 0x00)
 8014510:	683b      	ldr	r3, [r7, #0]
 8014512:	78db      	ldrb	r3, [r3, #3]
 8014514:	f003 0310 	and.w	r3, r3, #16
 8014518:	2b00      	cmp	r3, #0
 801451a:	d005      	beq.n	8014528 <GPIO_Init+0x44>
  { 
    /* Check the parameters */
    assert_param(IS_GPIO_SPEED(GPIO_InitStruct->GPIO_Speed));
    /* Output mode */
    currentmode |= (uint32_t)GPIO_InitStruct->GPIO_Speed;
 801451c:	683b      	ldr	r3, [r7, #0]
 801451e:	789b      	ldrb	r3, [r3, #2]
 8014520:	461a      	mov	r2, r3
 8014522:	69fb      	ldr	r3, [r7, #28]
 8014524:	4313      	orrs	r3, r2
 8014526:	61fb      	str	r3, [r7, #28]
  }
/*---------------------------- GPIO CRL Configuration ------------------------*/
  /* Configure the eight low port pins */
  if (((uint32_t)GPIO_InitStruct->GPIO_Pin & ((uint32_t)0x00FF)) != 0x00)
 8014528:	683b      	ldr	r3, [r7, #0]
 801452a:	881b      	ldrh	r3, [r3, #0]
 801452c:	b2db      	uxtb	r3, r3
 801452e:	2b00      	cmp	r3, #0
 8014530:	d044      	beq.n	80145bc <GPIO_Init+0xd8>
  {
    tmpreg = GPIOx->CRL;
 8014532:	687b      	ldr	r3, [r7, #4]
 8014534:	681b      	ldr	r3, [r3, #0]
 8014536:	617b      	str	r3, [r7, #20]
    for (pinpos = 0x00; pinpos < 0x08; pinpos++)
 8014538:	2300      	movs	r3, #0
 801453a:	61bb      	str	r3, [r7, #24]
 801453c:	e038      	b.n	80145b0 <GPIO_Init+0xcc>
    {
      pos = ((uint32_t)0x01) << pinpos;
 801453e:	2201      	movs	r2, #1
 8014540:	69bb      	ldr	r3, [r7, #24]
 8014542:	fa02 f303 	lsl.w	r3, r2, r3
 8014546:	60fb      	str	r3, [r7, #12]
      /* Get the port pins position */
      currentpin = (GPIO_InitStruct->GPIO_Pin) & pos;
 8014548:	683b      	ldr	r3, [r7, #0]
 801454a:	881b      	ldrh	r3, [r3, #0]
 801454c:	461a      	mov	r2, r3
 801454e:	68fb      	ldr	r3, [r7, #12]
 8014550:	4013      	ands	r3, r2
 8014552:	613b      	str	r3, [r7, #16]
      if (currentpin == pos)
 8014554:	693a      	ldr	r2, [r7, #16]
 8014556:	68fb      	ldr	r3, [r7, #12]
 8014558:	429a      	cmp	r2, r3
 801455a:	d126      	bne.n	80145aa <GPIO_Init+0xc6>
      {
        pos = pinpos << 2;
 801455c:	69bb      	ldr	r3, [r7, #24]
 801455e:	009b      	lsls	r3, r3, #2
 8014560:	60fb      	str	r3, [r7, #12]
        /* Clear the corresponding low control register bits */
        pinmask = ((uint32_t)0x0F) << pos;
 8014562:	220f      	movs	r2, #15
 8014564:	68fb      	ldr	r3, [r7, #12]
 8014566:	fa02 f303 	lsl.w	r3, r2, r3
 801456a:	60bb      	str	r3, [r7, #8]
        tmpreg &= ~pinmask;
 801456c:	68bb      	ldr	r3, [r7, #8]
 801456e:	43db      	mvns	r3, r3
 8014570:	697a      	ldr	r2, [r7, #20]
 8014572:	4013      	ands	r3, r2
 8014574:	617b      	str	r3, [r7, #20]
        /* Write the mode configuration in the corresponding bits */
        tmpreg |= (currentmode << pos);
 8014576:	69fa      	ldr	r2, [r7, #28]
 8014578:	68fb      	ldr	r3, [r7, #12]
 801457a:	fa02 f303 	lsl.w	r3, r2, r3
 801457e:	697a      	ldr	r2, [r7, #20]
 8014580:	4313      	orrs	r3, r2
 8014582:	617b      	str	r3, [r7, #20]
        /* Reset the corresponding ODR bit */
        if (GPIO_InitStruct->GPIO_Mode == GPIO_Mode_IPD)
 8014584:	683b      	ldr	r3, [r7, #0]
 8014586:	78db      	ldrb	r3, [r3, #3]
 8014588:	2b28      	cmp	r3, #40	; 0x28
 801458a:	d105      	bne.n	8014598 <GPIO_Init+0xb4>
        {
          GPIOx->BRR = (((uint32_t)0x01) << pinpos);
 801458c:	2201      	movs	r2, #1
 801458e:	69bb      	ldr	r3, [r7, #24]
 8014590:	409a      	lsls	r2, r3
 8014592:	687b      	ldr	r3, [r7, #4]
 8014594:	615a      	str	r2, [r3, #20]
 8014596:	e008      	b.n	80145aa <GPIO_Init+0xc6>
        }
        else
        {
          /* Set the corresponding ODR bit */
          if (GPIO_InitStruct->GPIO_Mode == GPIO_Mode_IPU)
 8014598:	683b      	ldr	r3, [r7, #0]
 801459a:	78db      	ldrb	r3, [r3, #3]
 801459c:	2b48      	cmp	r3, #72	; 0x48
 801459e:	d104      	bne.n	80145aa <GPIO_Init+0xc6>
          {
            GPIOx->BSRR = (((uint32_t)0x01) << pinpos);
 80145a0:	2201      	movs	r2, #1
 80145a2:	69bb      	ldr	r3, [r7, #24]
 80145a4:	409a      	lsls	r2, r3
 80145a6:	687b      	ldr	r3, [r7, #4]
 80145a8:	611a      	str	r2, [r3, #16]
    for (pinpos = 0x00; pinpos < 0x08; pinpos++)
 80145aa:	69bb      	ldr	r3, [r7, #24]
 80145ac:	3301      	adds	r3, #1
 80145ae:	61bb      	str	r3, [r7, #24]
 80145b0:	69bb      	ldr	r3, [r7, #24]
 80145b2:	2b07      	cmp	r3, #7
 80145b4:	d9c3      	bls.n	801453e <GPIO_Init+0x5a>
          }
        }
      }
    }
    GPIOx->CRL = tmpreg;
 80145b6:	687b      	ldr	r3, [r7, #4]
 80145b8:	697a      	ldr	r2, [r7, #20]
 80145ba:	601a      	str	r2, [r3, #0]
  }
/*---------------------------- GPIO CRH Configuration ------------------------*/
  /* Configure the eight high port pins */
  if (GPIO_InitStruct->GPIO_Pin > 0x00FF)
 80145bc:	683b      	ldr	r3, [r7, #0]
 80145be:	881b      	ldrh	r3, [r3, #0]
 80145c0:	2bff      	cmp	r3, #255	; 0xff
 80145c2:	d946      	bls.n	8014652 <GPIO_Init+0x16e>
  {
    tmpreg = GPIOx->CRH;
 80145c4:	687b      	ldr	r3, [r7, #4]
 80145c6:	685b      	ldr	r3, [r3, #4]
 80145c8:	617b      	str	r3, [r7, #20]
    for (pinpos = 0x00; pinpos < 0x08; pinpos++)
 80145ca:	2300      	movs	r3, #0
 80145cc:	61bb      	str	r3, [r7, #24]
 80145ce:	e03a      	b.n	8014646 <GPIO_Init+0x162>
    {
      pos = (((uint32_t)0x01) << (pinpos + 0x08));
 80145d0:	69bb      	ldr	r3, [r7, #24]
 80145d2:	3308      	adds	r3, #8
 80145d4:	2201      	movs	r2, #1
 80145d6:	fa02 f303 	lsl.w	r3, r2, r3
 80145da:	60fb      	str	r3, [r7, #12]
      /* Get the port pins position */
      currentpin = ((GPIO_InitStruct->GPIO_Pin) & pos);
 80145dc:	683b      	ldr	r3, [r7, #0]
 80145de:	881b      	ldrh	r3, [r3, #0]
 80145e0:	461a      	mov	r2, r3
 80145e2:	68fb      	ldr	r3, [r7, #12]
 80145e4:	4013      	ands	r3, r2
 80145e6:	613b      	str	r3, [r7, #16]
      if (currentpin == pos)
 80145e8:	693a      	ldr	r2, [r7, #16]
 80145ea:	68fb      	ldr	r3, [r7, #12]
 80145ec:	429a      	cmp	r2, r3
 80145ee:	d127      	bne.n	8014640 <GPIO_Init+0x15c>
      {
        pos = pinpos << 2;
 80145f0:	69bb      	ldr	r3, [r7, #24]
 80145f2:	009b      	lsls	r3, r3, #2
 80145f4:	60fb      	str	r3, [r7, #12]
        /* Clear the corresponding high control register bits */
        pinmask = ((uint32_t)0x0F) << pos;
 80145f6:	220f      	movs	r2, #15
 80145f8:	68fb      	ldr	r3, [r7, #12]
 80145fa:	fa02 f303 	lsl.w	r3, r2, r3
 80145fe:	60bb      	str	r3, [r7, #8]
        tmpreg &= ~pinmask;
 8014600:	68bb      	ldr	r3, [r7, #8]
 8014602:	43db      	mvns	r3, r3
 8014604:	697a      	ldr	r2, [r7, #20]
 8014606:	4013      	ands	r3, r2
 8014608:	617b      	str	r3, [r7, #20]
        /* Write the mode configuration in the corresponding bits */
        tmpreg |= (currentmode << pos);
 801460a:	69fa      	ldr	r2, [r7, #28]
 801460c:	68fb      	ldr	r3, [r7, #12]
 801460e:	fa02 f303 	lsl.w	r3, r2, r3
 8014612:	697a      	ldr	r2, [r7, #20]
 8014614:	4313      	orrs	r3, r2
 8014616:	617b      	str	r3, [r7, #20]
        /* Reset the corresponding ODR bit */
        if (GPIO_InitStruct->GPIO_Mode == GPIO_Mode_IPD)
 8014618:	683b      	ldr	r3, [r7, #0]
 801461a:	78db      	ldrb	r3, [r3, #3]
 801461c:	2b28      	cmp	r3, #40	; 0x28
 801461e:	d105      	bne.n	801462c <GPIO_Init+0x148>
        {
          GPIOx->BRR = (((uint32_t)0x01) << (pinpos + 0x08));
 8014620:	69bb      	ldr	r3, [r7, #24]
 8014622:	3308      	adds	r3, #8
 8014624:	2201      	movs	r2, #1
 8014626:	409a      	lsls	r2, r3
 8014628:	687b      	ldr	r3, [r7, #4]
 801462a:	615a      	str	r2, [r3, #20]
        }
        /* Set the corresponding ODR bit */
        if (GPIO_InitStruct->GPIO_Mode == GPIO_Mode_IPU)
 801462c:	683b      	ldr	r3, [r7, #0]
 801462e:	78db      	ldrb	r3, [r3, #3]
 8014630:	2b48      	cmp	r3, #72	; 0x48
 8014632:	d105      	bne.n	8014640 <GPIO_Init+0x15c>
        {
          GPIOx->BSRR = (((uint32_t)0x01) << (pinpos + 0x08));
 8014634:	69bb      	ldr	r3, [r7, #24]
 8014636:	3308      	adds	r3, #8
 8014638:	2201      	movs	r2, #1
 801463a:	409a      	lsls	r2, r3
 801463c:	687b      	ldr	r3, [r7, #4]
 801463e:	611a      	str	r2, [r3, #16]
    for (pinpos = 0x00; pinpos < 0x08; pinpos++)
 8014640:	69bb      	ldr	r3, [r7, #24]
 8014642:	3301      	adds	r3, #1
 8014644:	61bb      	str	r3, [r7, #24]
 8014646:	69bb      	ldr	r3, [r7, #24]
 8014648:	2b07      	cmp	r3, #7
 801464a:	d9c1      	bls.n	80145d0 <GPIO_Init+0xec>
        }
      }
    }
    GPIOx->CRH = tmpreg;
 801464c:	687b      	ldr	r3, [r7, #4]
 801464e:	697a      	ldr	r2, [r7, #20]
 8014650:	605a      	str	r2, [r3, #4]
  }
}
 8014652:	bf00      	nop
 8014654:	3724      	adds	r7, #36	; 0x24
 8014656:	46bd      	mov	sp, r7
 8014658:	bc80      	pop	{r7}
 801465a:	4770      	bx	lr

0801465c <GPIO_ReadInputDataBit>:
  * @param  GPIO_Pin:  specifies the port bit to read.
  *   This parameter can be GPIO_Pin_x where x can be (0..15).
  * @retval The input port pin value.
  */
uint8_t GPIO_ReadInputDataBit(GPIO_TypeDef* GPIOx, uint16_t GPIO_Pin)
{
 801465c:	b480      	push	{r7}
 801465e:	b085      	sub	sp, #20
 8014660:	af00      	add	r7, sp, #0
 8014662:	6078      	str	r0, [r7, #4]
 8014664:	460b      	mov	r3, r1
 8014666:	807b      	strh	r3, [r7, #2]
  uint8_t bitstatus = 0x00;
 8014668:	2300      	movs	r3, #0
 801466a:	73fb      	strb	r3, [r7, #15]
  
  /* Check the parameters */
  assert_param(IS_GPIO_ALL_PERIPH(GPIOx));
  assert_param(IS_GET_GPIO_PIN(GPIO_Pin)); 
  
  if ((GPIOx->IDR & GPIO_Pin) != (uint32_t)Bit_RESET)
 801466c:	687b      	ldr	r3, [r7, #4]
 801466e:	689a      	ldr	r2, [r3, #8]
 8014670:	887b      	ldrh	r3, [r7, #2]
 8014672:	4013      	ands	r3, r2
 8014674:	2b00      	cmp	r3, #0
 8014676:	d002      	beq.n	801467e <GPIO_ReadInputDataBit+0x22>
  {
    bitstatus = (uint8_t)Bit_SET;
 8014678:	2301      	movs	r3, #1
 801467a:	73fb      	strb	r3, [r7, #15]
 801467c:	e001      	b.n	8014682 <GPIO_ReadInputDataBit+0x26>
  }
  else
  {
    bitstatus = (uint8_t)Bit_RESET;
 801467e:	2300      	movs	r3, #0
 8014680:	73fb      	strb	r3, [r7, #15]
  }
  return bitstatus;
 8014682:	7bfb      	ldrb	r3, [r7, #15]
}
 8014684:	4618      	mov	r0, r3
 8014686:	3714      	adds	r7, #20
 8014688:	46bd      	mov	sp, r7
 801468a:	bc80      	pop	{r7}
 801468c:	4770      	bx	lr

0801468e <GPIO_SetBits>:
  * @param  GPIO_Pin: specifies the port bits to be written.
  *   This parameter can be any combination of GPIO_Pin_x where x can be (0..15).
  * @retval None
  */
void GPIO_SetBits(GPIO_TypeDef* GPIOx, uint16_t GPIO_Pin)
{
 801468e:	b480      	push	{r7}
 8014690:	b083      	sub	sp, #12
 8014692:	af00      	add	r7, sp, #0
 8014694:	6078      	str	r0, [r7, #4]
 8014696:	460b      	mov	r3, r1
 8014698:	807b      	strh	r3, [r7, #2]
  /* Check the parameters */
  assert_param(IS_GPIO_ALL_PERIPH(GPIOx));
  assert_param(IS_GPIO_PIN(GPIO_Pin));
  
  GPIOx->BSRR = GPIO_Pin;
 801469a:	887a      	ldrh	r2, [r7, #2]
 801469c:	687b      	ldr	r3, [r7, #4]
 801469e:	611a      	str	r2, [r3, #16]
}
 80146a0:	bf00      	nop
 80146a2:	370c      	adds	r7, #12
 80146a4:	46bd      	mov	sp, r7
 80146a6:	bc80      	pop	{r7}
 80146a8:	4770      	bx	lr

080146aa <GPIO_ResetBits>:
  * @param  GPIO_Pin: specifies the port bits to be written.
  *   This parameter can be any combination of GPIO_Pin_x where x can be (0..15).
  * @retval None
  */
void GPIO_ResetBits(GPIO_TypeDef* GPIOx, uint16_t GPIO_Pin)
{
 80146aa:	b480      	push	{r7}
 80146ac:	b083      	sub	sp, #12
 80146ae:	af00      	add	r7, sp, #0
 80146b0:	6078      	str	r0, [r7, #4]
 80146b2:	460b      	mov	r3, r1
 80146b4:	807b      	strh	r3, [r7, #2]
  /* Check the parameters */
  assert_param(IS_GPIO_ALL_PERIPH(GPIOx));
  assert_param(IS_GPIO_PIN(GPIO_Pin));
  
  GPIOx->BRR = GPIO_Pin;
 80146b6:	887a      	ldrh	r2, [r7, #2]
 80146b8:	687b      	ldr	r3, [r7, #4]
 80146ba:	615a      	str	r2, [r3, #20]
}
 80146bc:	bf00      	nop
 80146be:	370c      	adds	r7, #12
 80146c0:	46bd      	mov	sp, r7
 80146c2:	bc80      	pop	{r7}
 80146c4:	4770      	bx	lr
	...

080146c8 <GPIO_PinRemapConfig>:
  * @param  NewState: new state of the port pin remapping.
  *   This parameter can be: ENABLE or DISABLE.
  * @retval None
  */
void GPIO_PinRemapConfig(uint32_t GPIO_Remap, FunctionalState NewState)
{
 80146c8:	b480      	push	{r7}
 80146ca:	b087      	sub	sp, #28
 80146cc:	af00      	add	r7, sp, #0
 80146ce:	6078      	str	r0, [r7, #4]
 80146d0:	460b      	mov	r3, r1
 80146d2:	70fb      	strb	r3, [r7, #3]
  uint32_t tmp = 0x00, tmp1 = 0x00, tmpreg = 0x00, tmpmask = 0x00;
 80146d4:	2300      	movs	r3, #0
 80146d6:	613b      	str	r3, [r7, #16]
 80146d8:	2300      	movs	r3, #0
 80146da:	60fb      	str	r3, [r7, #12]
 80146dc:	2300      	movs	r3, #0
 80146de:	617b      	str	r3, [r7, #20]
 80146e0:	2300      	movs	r3, #0
 80146e2:	60bb      	str	r3, [r7, #8]

  /* Check the parameters */
  assert_param(IS_GPIO_REMAP(GPIO_Remap));
  assert_param(IS_FUNCTIONAL_STATE(NewState));  
  
  if((GPIO_Remap & 0x80000000) == 0x80000000)
 80146e4:	687b      	ldr	r3, [r7, #4]
 80146e6:	2b00      	cmp	r3, #0
 80146e8:	da03      	bge.n	80146f2 <GPIO_PinRemapConfig+0x2a>
  {
    tmpreg = AFIO->MAPR2;
 80146ea:	4b2e      	ldr	r3, [pc, #184]	; (80147a4 <GPIO_PinRemapConfig+0xdc>)
 80146ec:	69db      	ldr	r3, [r3, #28]
 80146ee:	617b      	str	r3, [r7, #20]
 80146f0:	e002      	b.n	80146f8 <GPIO_PinRemapConfig+0x30>
  }
  else
  {
    tmpreg = AFIO->MAPR;
 80146f2:	4b2c      	ldr	r3, [pc, #176]	; (80147a4 <GPIO_PinRemapConfig+0xdc>)
 80146f4:	685b      	ldr	r3, [r3, #4]
 80146f6:	617b      	str	r3, [r7, #20]
  }

  tmpmask = (GPIO_Remap & DBGAFR_POSITION_MASK) >> 0x10;
 80146f8:	687b      	ldr	r3, [r7, #4]
 80146fa:	0c1b      	lsrs	r3, r3, #16
 80146fc:	f003 030f 	and.w	r3, r3, #15
 8014700:	60bb      	str	r3, [r7, #8]
  tmp = GPIO_Remap & LSB_MASK;
 8014702:	687b      	ldr	r3, [r7, #4]
 8014704:	b29b      	uxth	r3, r3
 8014706:	613b      	str	r3, [r7, #16]

  if ((GPIO_Remap & (DBGAFR_LOCATION_MASK | DBGAFR_NUMBITS_MASK)) == (DBGAFR_LOCATION_MASK | DBGAFR_NUMBITS_MASK))
 8014708:	687b      	ldr	r3, [r7, #4]
 801470a:	f403 1340 	and.w	r3, r3, #3145728	; 0x300000
 801470e:	f5b3 1f40 	cmp.w	r3, #3145728	; 0x300000
 8014712:	d10a      	bne.n	801472a <GPIO_PinRemapConfig+0x62>
  {
    tmpreg &= DBGAFR_SWJCFG_MASK;
 8014714:	697b      	ldr	r3, [r7, #20]
 8014716:	f023 6370 	bic.w	r3, r3, #251658240	; 0xf000000
 801471a:	617b      	str	r3, [r7, #20]
    AFIO->MAPR &= DBGAFR_SWJCFG_MASK;
 801471c:	4a21      	ldr	r2, [pc, #132]	; (80147a4 <GPIO_PinRemapConfig+0xdc>)
 801471e:	4b21      	ldr	r3, [pc, #132]	; (80147a4 <GPIO_PinRemapConfig+0xdc>)
 8014720:	685b      	ldr	r3, [r3, #4]
 8014722:	f023 6370 	bic.w	r3, r3, #251658240	; 0xf000000
 8014726:	6053      	str	r3, [r2, #4]
 8014728:	e021      	b.n	801476e <GPIO_PinRemapConfig+0xa6>
  }
  else if ((GPIO_Remap & DBGAFR_NUMBITS_MASK) == DBGAFR_NUMBITS_MASK)
 801472a:	687b      	ldr	r3, [r7, #4]
 801472c:	f403 1380 	and.w	r3, r3, #1048576	; 0x100000
 8014730:	2b00      	cmp	r3, #0
 8014732:	d00e      	beq.n	8014752 <GPIO_PinRemapConfig+0x8a>
  {
    tmp1 = ((uint32_t)0x03) << tmpmask;
 8014734:	2203      	movs	r2, #3
 8014736:	68bb      	ldr	r3, [r7, #8]
 8014738:	fa02 f303 	lsl.w	r3, r2, r3
 801473c:	60fb      	str	r3, [r7, #12]
    tmpreg &= ~tmp1;
 801473e:	68fb      	ldr	r3, [r7, #12]
 8014740:	43db      	mvns	r3, r3
 8014742:	697a      	ldr	r2, [r7, #20]
 8014744:	4013      	ands	r3, r2
 8014746:	617b      	str	r3, [r7, #20]
    tmpreg |= ~DBGAFR_SWJCFG_MASK;
 8014748:	697b      	ldr	r3, [r7, #20]
 801474a:	f043 6370 	orr.w	r3, r3, #251658240	; 0xf000000
 801474e:	617b      	str	r3, [r7, #20]
 8014750:	e00d      	b.n	801476e <GPIO_PinRemapConfig+0xa6>
  }
  else
  {
    tmpreg &= ~(tmp << ((GPIO_Remap >> 0x15)*0x10));
 8014752:	687b      	ldr	r3, [r7, #4]
 8014754:	0d5b      	lsrs	r3, r3, #21
 8014756:	011b      	lsls	r3, r3, #4
 8014758:	693a      	ldr	r2, [r7, #16]
 801475a:	fa02 f303 	lsl.w	r3, r2, r3
 801475e:	43db      	mvns	r3, r3
 8014760:	697a      	ldr	r2, [r7, #20]
 8014762:	4013      	ands	r3, r2
 8014764:	617b      	str	r3, [r7, #20]
    tmpreg |= ~DBGAFR_SWJCFG_MASK;
 8014766:	697b      	ldr	r3, [r7, #20]
 8014768:	f043 6370 	orr.w	r3, r3, #251658240	; 0xf000000
 801476c:	617b      	str	r3, [r7, #20]
  }

  if (NewState != DISABLE)
 801476e:	78fb      	ldrb	r3, [r7, #3]
 8014770:	2b00      	cmp	r3, #0
 8014772:	d008      	beq.n	8014786 <GPIO_PinRemapConfig+0xbe>
  {
    tmpreg |= (tmp << ((GPIO_Remap >> 0x15)*0x10));
 8014774:	687b      	ldr	r3, [r7, #4]
 8014776:	0d5b      	lsrs	r3, r3, #21
 8014778:	011b      	lsls	r3, r3, #4
 801477a:	693a      	ldr	r2, [r7, #16]
 801477c:	fa02 f303 	lsl.w	r3, r2, r3
 8014780:	697a      	ldr	r2, [r7, #20]
 8014782:	4313      	orrs	r3, r2
 8014784:	617b      	str	r3, [r7, #20]
  }

  if((GPIO_Remap & 0x80000000) == 0x80000000)
 8014786:	687b      	ldr	r3, [r7, #4]
 8014788:	2b00      	cmp	r3, #0
 801478a:	da03      	bge.n	8014794 <GPIO_PinRemapConfig+0xcc>
  {
    AFIO->MAPR2 = tmpreg;
 801478c:	4a05      	ldr	r2, [pc, #20]	; (80147a4 <GPIO_PinRemapConfig+0xdc>)
 801478e:	697b      	ldr	r3, [r7, #20]
 8014790:	61d3      	str	r3, [r2, #28]
  }
  else
  {
    AFIO->MAPR = tmpreg;
  }  
}
 8014792:	e002      	b.n	801479a <GPIO_PinRemapConfig+0xd2>
    AFIO->MAPR = tmpreg;
 8014794:	4a03      	ldr	r2, [pc, #12]	; (80147a4 <GPIO_PinRemapConfig+0xdc>)
 8014796:	697b      	ldr	r3, [r7, #20]
 8014798:	6053      	str	r3, [r2, #4]
}
 801479a:	bf00      	nop
 801479c:	371c      	adds	r7, #28
 801479e:	46bd      	mov	sp, r7
 80147a0:	bc80      	pop	{r7}
 80147a2:	4770      	bx	lr
 80147a4:	40010000 	.word	0x40010000

080147a8 <RCC_DeInit>:
  * @brief  Resets the RCC clock configuration to the default reset state.
  * @param  None
  * @retval None
  */
void RCC_DeInit(void)
{
 80147a8:	b480      	push	{r7}
 80147aa:	af00      	add	r7, sp, #0
  /* Set HSION bit */
  RCC->CR |= (uint32_t)0x00000001;
 80147ac:	4a13      	ldr	r2, [pc, #76]	; (80147fc <RCC_DeInit+0x54>)
 80147ae:	4b13      	ldr	r3, [pc, #76]	; (80147fc <RCC_DeInit+0x54>)
 80147b0:	681b      	ldr	r3, [r3, #0]
 80147b2:	f043 0301 	orr.w	r3, r3, #1
 80147b6:	6013      	str	r3, [r2, #0]

  /* Reset SW, HPRE, PPRE1, PPRE2, ADCPRE and MCO bits */
#ifndef STM32F10X_CL
  RCC->CFGR &= (uint32_t)0xF8FF0000;
 80147b8:	4910      	ldr	r1, [pc, #64]	; (80147fc <RCC_DeInit+0x54>)
 80147ba:	4b10      	ldr	r3, [pc, #64]	; (80147fc <RCC_DeInit+0x54>)
 80147bc:	685a      	ldr	r2, [r3, #4]
 80147be:	4b10      	ldr	r3, [pc, #64]	; (8014800 <RCC_DeInit+0x58>)
 80147c0:	4013      	ands	r3, r2
 80147c2:	604b      	str	r3, [r1, #4]
#else
  RCC->CFGR &= (uint32_t)0xF0FF0000;
#endif /* STM32F10X_CL */   
  
  /* Reset HSEON, CSSON and PLLON bits */
  RCC->CR &= (uint32_t)0xFEF6FFFF;
 80147c4:	4a0d      	ldr	r2, [pc, #52]	; (80147fc <RCC_DeInit+0x54>)
 80147c6:	4b0d      	ldr	r3, [pc, #52]	; (80147fc <RCC_DeInit+0x54>)
 80147c8:	681b      	ldr	r3, [r3, #0]
 80147ca:	f023 7384 	bic.w	r3, r3, #17301504	; 0x1080000
 80147ce:	f423 3380 	bic.w	r3, r3, #65536	; 0x10000
 80147d2:	6013      	str	r3, [r2, #0]

  /* Reset HSEBYP bit */
  RCC->CR &= (uint32_t)0xFFFBFFFF;
 80147d4:	4a09      	ldr	r2, [pc, #36]	; (80147fc <RCC_DeInit+0x54>)
 80147d6:	4b09      	ldr	r3, [pc, #36]	; (80147fc <RCC_DeInit+0x54>)
 80147d8:	681b      	ldr	r3, [r3, #0]
 80147da:	f423 2380 	bic.w	r3, r3, #262144	; 0x40000
 80147de:	6013      	str	r3, [r2, #0]

  /* Reset PLLSRC, PLLXTPRE, PLLMUL and USBPRE/OTGFSPRE bits */
  RCC->CFGR &= (uint32_t)0xFF80FFFF;
 80147e0:	4a06      	ldr	r2, [pc, #24]	; (80147fc <RCC_DeInit+0x54>)
 80147e2:	4b06      	ldr	r3, [pc, #24]	; (80147fc <RCC_DeInit+0x54>)
 80147e4:	685b      	ldr	r3, [r3, #4]
 80147e6:	f423 03fe 	bic.w	r3, r3, #8323072	; 0x7f0000
 80147ea:	6053      	str	r3, [r2, #4]

  /* Reset CFGR2 register */
  RCC->CFGR2 = 0x00000000;      
#else
  /* Disable all interrupts and clear pending bits  */
  RCC->CIR = 0x009F0000;
 80147ec:	4b03      	ldr	r3, [pc, #12]	; (80147fc <RCC_DeInit+0x54>)
 80147ee:	f44f 021f 	mov.w	r2, #10420224	; 0x9f0000
 80147f2:	609a      	str	r2, [r3, #8]
#endif /* STM32F10X_CL */

}
 80147f4:	bf00      	nop
 80147f6:	46bd      	mov	sp, r7
 80147f8:	bc80      	pop	{r7}
 80147fa:	4770      	bx	lr
 80147fc:	40021000 	.word	0x40021000
 8014800:	f8ff0000 	.word	0xf8ff0000

08014804 <RCC_HSICmd>:
  * @note   HSI can not be stopped if it is used directly or through the PLL as system clock.
  * @param  NewState: new state of the HSI. This parameter can be: ENABLE or DISABLE.
  * @retval None
  */
void RCC_HSICmd(FunctionalState NewState)
{
 8014804:	b480      	push	{r7}
 8014806:	b083      	sub	sp, #12
 8014808:	af00      	add	r7, sp, #0
 801480a:	4603      	mov	r3, r0
 801480c:	71fb      	strb	r3, [r7, #7]
  /* Check the parameters */
  assert_param(IS_FUNCTIONAL_STATE(NewState));
  *(__IO uint32_t *) CR_HSION_BB = (uint32_t)NewState;
 801480e:	4a04      	ldr	r2, [pc, #16]	; (8014820 <RCC_HSICmd+0x1c>)
 8014810:	79fb      	ldrb	r3, [r7, #7]
 8014812:	6013      	str	r3, [r2, #0]
}
 8014814:	bf00      	nop
 8014816:	370c      	adds	r7, #12
 8014818:	46bd      	mov	sp, r7
 801481a:	bc80      	pop	{r7}
 801481c:	4770      	bx	lr
 801481e:	bf00      	nop
 8014820:	42420000 	.word	0x42420000

08014824 <RCC_PLLConfig>:
  *   For @b STM32_Connectivity_line_devices, this parameter can be RCC_PLLMul_x where x:{[4,9], 6_5}
  *   For @b other_STM32_devices, this parameter can be RCC_PLLMul_x where x:[2,16]  
  * @retval None
  */
void RCC_PLLConfig(uint32_t RCC_PLLSource, uint32_t RCC_PLLMul)
{
 8014824:	b480      	push	{r7}
 8014826:	b085      	sub	sp, #20
 8014828:	af00      	add	r7, sp, #0
 801482a:	6078      	str	r0, [r7, #4]
 801482c:	6039      	str	r1, [r7, #0]
  uint32_t tmpreg = 0;
 801482e:	2300      	movs	r3, #0
 8014830:	60fb      	str	r3, [r7, #12]

  /* Check the parameters */
  assert_param(IS_RCC_PLL_SOURCE(RCC_PLLSource));
  assert_param(IS_RCC_PLL_MUL(RCC_PLLMul));

  tmpreg = RCC->CFGR;
 8014832:	4b0a      	ldr	r3, [pc, #40]	; (801485c <RCC_PLLConfig+0x38>)
 8014834:	685b      	ldr	r3, [r3, #4]
 8014836:	60fb      	str	r3, [r7, #12]
  /* Clear PLLSRC, PLLXTPRE and PLLMUL[3:0] bits */
  tmpreg &= CFGR_PLL_Mask;
 8014838:	68fb      	ldr	r3, [r7, #12]
 801483a:	f423 137c 	bic.w	r3, r3, #4128768	; 0x3f0000
 801483e:	60fb      	str	r3, [r7, #12]
  /* Set the PLL configuration bits */
  tmpreg |= RCC_PLLSource | RCC_PLLMul;
 8014840:	687a      	ldr	r2, [r7, #4]
 8014842:	683b      	ldr	r3, [r7, #0]
 8014844:	4313      	orrs	r3, r2
 8014846:	68fa      	ldr	r2, [r7, #12]
 8014848:	4313      	orrs	r3, r2
 801484a:	60fb      	str	r3, [r7, #12]
  /* Store the new value */
  RCC->CFGR = tmpreg;
 801484c:	4a03      	ldr	r2, [pc, #12]	; (801485c <RCC_PLLConfig+0x38>)
 801484e:	68fb      	ldr	r3, [r7, #12]
 8014850:	6053      	str	r3, [r2, #4]
}
 8014852:	bf00      	nop
 8014854:	3714      	adds	r7, #20
 8014856:	46bd      	mov	sp, r7
 8014858:	bc80      	pop	{r7}
 801485a:	4770      	bx	lr
 801485c:	40021000 	.word	0x40021000

08014860 <RCC_PLLCmd>:
  * @note   The PLL can not be disabled if it is used as system clock.
  * @param  NewState: new state of the PLL. This parameter can be: ENABLE or DISABLE.
  * @retval None
  */
void RCC_PLLCmd(FunctionalState NewState)
{
 8014860:	b480      	push	{r7}
 8014862:	b083      	sub	sp, #12
 8014864:	af00      	add	r7, sp, #0
 8014866:	4603      	mov	r3, r0
 8014868:	71fb      	strb	r3, [r7, #7]
  /* Check the parameters */
  assert_param(IS_FUNCTIONAL_STATE(NewState));

  *(__IO uint32_t *) CR_PLLON_BB = (uint32_t)NewState;
 801486a:	4a04      	ldr	r2, [pc, #16]	; (801487c <RCC_PLLCmd+0x1c>)
 801486c:	79fb      	ldrb	r3, [r7, #7]
 801486e:	6013      	str	r3, [r2, #0]
}
 8014870:	bf00      	nop
 8014872:	370c      	adds	r7, #12
 8014874:	46bd      	mov	sp, r7
 8014876:	bc80      	pop	{r7}
 8014878:	4770      	bx	lr
 801487a:	bf00      	nop
 801487c:	42420060 	.word	0x42420060

08014880 <RCC_SYSCLKConfig>:
  *     @arg RCC_SYSCLKSource_HSE: HSE selected as system clock
  *     @arg RCC_SYSCLKSource_PLLCLK: PLL selected as system clock
  * @retval None
  */
void RCC_SYSCLKConfig(uint32_t RCC_SYSCLKSource)
{
 8014880:	b480      	push	{r7}
 8014882:	b085      	sub	sp, #20
 8014884:	af00      	add	r7, sp, #0
 8014886:	6078      	str	r0, [r7, #4]
  uint32_t tmpreg = 0;
 8014888:	2300      	movs	r3, #0
 801488a:	60fb      	str	r3, [r7, #12]
  /* Check the parameters */
  assert_param(IS_RCC_SYSCLK_SOURCE(RCC_SYSCLKSource));
  tmpreg = RCC->CFGR;
 801488c:	4b09      	ldr	r3, [pc, #36]	; (80148b4 <RCC_SYSCLKConfig+0x34>)
 801488e:	685b      	ldr	r3, [r3, #4]
 8014890:	60fb      	str	r3, [r7, #12]
  /* Clear SW[1:0] bits */
  tmpreg &= CFGR_SW_Mask;
 8014892:	68fb      	ldr	r3, [r7, #12]
 8014894:	f023 0303 	bic.w	r3, r3, #3
 8014898:	60fb      	str	r3, [r7, #12]
  /* Set SW[1:0] bits according to RCC_SYSCLKSource value */
  tmpreg |= RCC_SYSCLKSource;
 801489a:	68fa      	ldr	r2, [r7, #12]
 801489c:	687b      	ldr	r3, [r7, #4]
 801489e:	4313      	orrs	r3, r2
 80148a0:	60fb      	str	r3, [r7, #12]
  /* Store the new value */
  RCC->CFGR = tmpreg;
 80148a2:	4a04      	ldr	r2, [pc, #16]	; (80148b4 <RCC_SYSCLKConfig+0x34>)
 80148a4:	68fb      	ldr	r3, [r7, #12]
 80148a6:	6053      	str	r3, [r2, #4]
}
 80148a8:	bf00      	nop
 80148aa:	3714      	adds	r7, #20
 80148ac:	46bd      	mov	sp, r7
 80148ae:	bc80      	pop	{r7}
 80148b0:	4770      	bx	lr
 80148b2:	bf00      	nop
 80148b4:	40021000 	.word	0x40021000

080148b8 <RCC_GetSYSCLKSource>:
  *     - 0x00: HSI used as system clock
  *     - 0x04: HSE used as system clock
  *     - 0x08: PLL used as system clock
  */
uint8_t RCC_GetSYSCLKSource(void)
{
 80148b8:	b480      	push	{r7}
 80148ba:	af00      	add	r7, sp, #0
  return ((uint8_t)(RCC->CFGR & CFGR_SWS_Mask));
 80148bc:	4b04      	ldr	r3, [pc, #16]	; (80148d0 <RCC_GetSYSCLKSource+0x18>)
 80148be:	685b      	ldr	r3, [r3, #4]
 80148c0:	b2db      	uxtb	r3, r3
 80148c2:	f003 030c 	and.w	r3, r3, #12
 80148c6:	b2db      	uxtb	r3, r3
}
 80148c8:	4618      	mov	r0, r3
 80148ca:	46bd      	mov	sp, r7
 80148cc:	bc80      	pop	{r7}
 80148ce:	4770      	bx	lr
 80148d0:	40021000 	.word	0x40021000

080148d4 <RCC_HCLKConfig>:
  *     @arg RCC_SYSCLK_Div256: AHB clock = SYSCLK/256
  *     @arg RCC_SYSCLK_Div512: AHB clock = SYSCLK/512
  * @retval None
  */
void RCC_HCLKConfig(uint32_t RCC_SYSCLK)
{
 80148d4:	b480      	push	{r7}
 80148d6:	b085      	sub	sp, #20
 80148d8:	af00      	add	r7, sp, #0
 80148da:	6078      	str	r0, [r7, #4]
  uint32_t tmpreg = 0;
 80148dc:	2300      	movs	r3, #0
 80148de:	60fb      	str	r3, [r7, #12]
  /* Check the parameters */
  assert_param(IS_RCC_HCLK(RCC_SYSCLK));
  tmpreg = RCC->CFGR;
 80148e0:	4b09      	ldr	r3, [pc, #36]	; (8014908 <RCC_HCLKConfig+0x34>)
 80148e2:	685b      	ldr	r3, [r3, #4]
 80148e4:	60fb      	str	r3, [r7, #12]
  /* Clear HPRE[3:0] bits */
  tmpreg &= CFGR_HPRE_Reset_Mask;
 80148e6:	68fb      	ldr	r3, [r7, #12]
 80148e8:	f023 03f0 	bic.w	r3, r3, #240	; 0xf0
 80148ec:	60fb      	str	r3, [r7, #12]
  /* Set HPRE[3:0] bits according to RCC_SYSCLK value */
  tmpreg |= RCC_SYSCLK;
 80148ee:	68fa      	ldr	r2, [r7, #12]
 80148f0:	687b      	ldr	r3, [r7, #4]
 80148f2:	4313      	orrs	r3, r2
 80148f4:	60fb      	str	r3, [r7, #12]
  /* Store the new value */
  RCC->CFGR = tmpreg;
 80148f6:	4a04      	ldr	r2, [pc, #16]	; (8014908 <RCC_HCLKConfig+0x34>)
 80148f8:	68fb      	ldr	r3, [r7, #12]
 80148fa:	6053      	str	r3, [r2, #4]
}
 80148fc:	bf00      	nop
 80148fe:	3714      	adds	r7, #20
 8014900:	46bd      	mov	sp, r7
 8014902:	bc80      	pop	{r7}
 8014904:	4770      	bx	lr
 8014906:	bf00      	nop
 8014908:	40021000 	.word	0x40021000

0801490c <RCC_PCLK1Config>:
  *     @arg RCC_HCLK_Div8: APB1 clock = HCLK/8
  *     @arg RCC_HCLK_Div16: APB1 clock = HCLK/16
  * @retval None
  */
void RCC_PCLK1Config(uint32_t RCC_HCLK)
{
 801490c:	b480      	push	{r7}
 801490e:	b085      	sub	sp, #20
 8014910:	af00      	add	r7, sp, #0
 8014912:	6078      	str	r0, [r7, #4]
  uint32_t tmpreg = 0;
 8014914:	2300      	movs	r3, #0
 8014916:	60fb      	str	r3, [r7, #12]
  /* Check the parameters */
  assert_param(IS_RCC_PCLK(RCC_HCLK));
  tmpreg = RCC->CFGR;
 8014918:	4b09      	ldr	r3, [pc, #36]	; (8014940 <RCC_PCLK1Config+0x34>)
 801491a:	685b      	ldr	r3, [r3, #4]
 801491c:	60fb      	str	r3, [r7, #12]
  /* Clear PPRE1[2:0] bits */
  tmpreg &= CFGR_PPRE1_Reset_Mask;
 801491e:	68fb      	ldr	r3, [r7, #12]
 8014920:	f423 63e0 	bic.w	r3, r3, #1792	; 0x700
 8014924:	60fb      	str	r3, [r7, #12]
  /* Set PPRE1[2:0] bits according to RCC_HCLK value */
  tmpreg |= RCC_HCLK;
 8014926:	68fa      	ldr	r2, [r7, #12]
 8014928:	687b      	ldr	r3, [r7, #4]
 801492a:	4313      	orrs	r3, r2
 801492c:	60fb      	str	r3, [r7, #12]
  /* Store the new value */
  RCC->CFGR = tmpreg;
 801492e:	4a04      	ldr	r2, [pc, #16]	; (8014940 <RCC_PCLK1Config+0x34>)
 8014930:	68fb      	ldr	r3, [r7, #12]
 8014932:	6053      	str	r3, [r2, #4]
}
 8014934:	bf00      	nop
 8014936:	3714      	adds	r7, #20
 8014938:	46bd      	mov	sp, r7
 801493a:	bc80      	pop	{r7}
 801493c:	4770      	bx	lr
 801493e:	bf00      	nop
 8014940:	40021000 	.word	0x40021000

08014944 <RCC_PCLK2Config>:
  *     @arg RCC_HCLK_Div8: APB2 clock = HCLK/8
  *     @arg RCC_HCLK_Div16: APB2 clock = HCLK/16
  * @retval None
  */
void RCC_PCLK2Config(uint32_t RCC_HCLK)
{
 8014944:	b480      	push	{r7}
 8014946:	b085      	sub	sp, #20
 8014948:	af00      	add	r7, sp, #0
 801494a:	6078      	str	r0, [r7, #4]
  uint32_t tmpreg = 0;
 801494c:	2300      	movs	r3, #0
 801494e:	60fb      	str	r3, [r7, #12]
  /* Check the parameters */
  assert_param(IS_RCC_PCLK(RCC_HCLK));
  tmpreg = RCC->CFGR;
 8014950:	4b09      	ldr	r3, [pc, #36]	; (8014978 <RCC_PCLK2Config+0x34>)
 8014952:	685b      	ldr	r3, [r3, #4]
 8014954:	60fb      	str	r3, [r7, #12]
  /* Clear PPRE2[2:0] bits */
  tmpreg &= CFGR_PPRE2_Reset_Mask;
 8014956:	68fb      	ldr	r3, [r7, #12]
 8014958:	f423 5360 	bic.w	r3, r3, #14336	; 0x3800
 801495c:	60fb      	str	r3, [r7, #12]
  /* Set PPRE2[2:0] bits according to RCC_HCLK value */
  tmpreg |= RCC_HCLK << 3;
 801495e:	687b      	ldr	r3, [r7, #4]
 8014960:	00db      	lsls	r3, r3, #3
 8014962:	68fa      	ldr	r2, [r7, #12]
 8014964:	4313      	orrs	r3, r2
 8014966:	60fb      	str	r3, [r7, #12]
  /* Store the new value */
  RCC->CFGR = tmpreg;
 8014968:	4a03      	ldr	r2, [pc, #12]	; (8014978 <RCC_PCLK2Config+0x34>)
 801496a:	68fb      	ldr	r3, [r7, #12]
 801496c:	6053      	str	r3, [r2, #4]
}
 801496e:	bf00      	nop
 8014970:	3714      	adds	r7, #20
 8014972:	46bd      	mov	sp, r7
 8014974:	bc80      	pop	{r7}
 8014976:	4770      	bx	lr
 8014978:	40021000 	.word	0x40021000

0801497c <RCC_GetClocksFreq>:
  * @note   The result of this function could be not correct when using 
  *         fractional value for HSE crystal.  
  * @retval None
  */
void RCC_GetClocksFreq(RCC_ClocksTypeDef* RCC_Clocks)
{
 801497c:	b480      	push	{r7}
 801497e:	b087      	sub	sp, #28
 8014980:	af00      	add	r7, sp, #0
 8014982:	6078      	str	r0, [r7, #4]
  uint32_t tmp = 0, pllmull = 0, pllsource = 0, presc = 0;
 8014984:	2300      	movs	r3, #0
 8014986:	617b      	str	r3, [r7, #20]
 8014988:	2300      	movs	r3, #0
 801498a:	613b      	str	r3, [r7, #16]
 801498c:	2300      	movs	r3, #0
 801498e:	60fb      	str	r3, [r7, #12]
 8014990:	2300      	movs	r3, #0
 8014992:	60bb      	str	r3, [r7, #8]
#if defined (STM32F10X_LD_VL) || defined (STM32F10X_MD_VL) || defined (STM32F10X_HD_VL)
  uint32_t prediv1factor = 0;
#endif
    
  /* Get SYSCLK source -------------------------------------------------------*/
  tmp = RCC->CFGR & CFGR_SWS_Mask;
 8014994:	4b4c      	ldr	r3, [pc, #304]	; (8014ac8 <RCC_GetClocksFreq+0x14c>)
 8014996:	685b      	ldr	r3, [r3, #4]
 8014998:	f003 030c 	and.w	r3, r3, #12
 801499c:	617b      	str	r3, [r7, #20]
  
  switch (tmp)
 801499e:	697b      	ldr	r3, [r7, #20]
 80149a0:	2b04      	cmp	r3, #4
 80149a2:	d007      	beq.n	80149b4 <RCC_GetClocksFreq+0x38>
 80149a4:	2b08      	cmp	r3, #8
 80149a6:	d009      	beq.n	80149bc <RCC_GetClocksFreq+0x40>
 80149a8:	2b00      	cmp	r3, #0
 80149aa:	d133      	bne.n	8014a14 <RCC_GetClocksFreq+0x98>
  {
    case 0x00:  /* HSI used as system clock */
      RCC_Clocks->SYSCLK_Frequency = HSI_VALUE;
 80149ac:	687b      	ldr	r3, [r7, #4]
 80149ae:	4a47      	ldr	r2, [pc, #284]	; (8014acc <RCC_GetClocksFreq+0x150>)
 80149b0:	601a      	str	r2, [r3, #0]
      break;
 80149b2:	e033      	b.n	8014a1c <RCC_GetClocksFreq+0xa0>
    case 0x04:  /* HSE used as system clock */
      RCC_Clocks->SYSCLK_Frequency = HSE_VALUE;
 80149b4:	687b      	ldr	r3, [r7, #4]
 80149b6:	4a45      	ldr	r2, [pc, #276]	; (8014acc <RCC_GetClocksFreq+0x150>)
 80149b8:	601a      	str	r2, [r3, #0]
      break;
 80149ba:	e02f      	b.n	8014a1c <RCC_GetClocksFreq+0xa0>
    case 0x08:  /* PLL used as system clock */

      /* Get PLL clock source and multiplication factor ----------------------*/
      pllmull = RCC->CFGR & CFGR_PLLMull_Mask;
 80149bc:	4b42      	ldr	r3, [pc, #264]	; (8014ac8 <RCC_GetClocksFreq+0x14c>)
 80149be:	685b      	ldr	r3, [r3, #4]
 80149c0:	f403 1370 	and.w	r3, r3, #3932160	; 0x3c0000
 80149c4:	613b      	str	r3, [r7, #16]
      pllsource = RCC->CFGR & CFGR_PLLSRC_Mask;
 80149c6:	4b40      	ldr	r3, [pc, #256]	; (8014ac8 <RCC_GetClocksFreq+0x14c>)
 80149c8:	685b      	ldr	r3, [r3, #4]
 80149ca:	f403 3380 	and.w	r3, r3, #65536	; 0x10000
 80149ce:	60fb      	str	r3, [r7, #12]
      
#ifndef STM32F10X_CL      
      pllmull = ( pllmull >> 18) + 2;
 80149d0:	693b      	ldr	r3, [r7, #16]
 80149d2:	0c9b      	lsrs	r3, r3, #18
 80149d4:	3302      	adds	r3, #2
 80149d6:	613b      	str	r3, [r7, #16]
      
      if (pllsource == 0x00)
 80149d8:	68fb      	ldr	r3, [r7, #12]
 80149da:	2b00      	cmp	r3, #0
 80149dc:	d106      	bne.n	80149ec <RCC_GetClocksFreq+0x70>
      {/* HSI oscillator clock divided by 2 selected as PLL clock entry */
        RCC_Clocks->SYSCLK_Frequency = (HSI_VALUE >> 1) * pllmull;
 80149de:	693b      	ldr	r3, [r7, #16]
 80149e0:	4a3b      	ldr	r2, [pc, #236]	; (8014ad0 <RCC_GetClocksFreq+0x154>)
 80149e2:	fb02 f203 	mul.w	r2, r2, r3
 80149e6:	687b      	ldr	r3, [r7, #4]
 80149e8:	601a      	str	r2, [r3, #0]
          pll2mull = ((RCC->CFGR2 & CFGR2_PLL2MUL) >> 8 ) + 2; 
          RCC_Clocks->SYSCLK_Frequency = (((HSE_VALUE / prediv2factor) * pll2mull) / prediv1factor) * pllmull;                         
        }
      }
#endif /* STM32F10X_CL */ 
      break;
 80149ea:	e017      	b.n	8014a1c <RCC_GetClocksFreq+0xa0>
        if ((RCC->CFGR & CFGR_PLLXTPRE_Mask) != (uint32_t)RESET)
 80149ec:	4b36      	ldr	r3, [pc, #216]	; (8014ac8 <RCC_GetClocksFreq+0x14c>)
 80149ee:	685b      	ldr	r3, [r3, #4]
 80149f0:	f403 3300 	and.w	r3, r3, #131072	; 0x20000
 80149f4:	2b00      	cmp	r3, #0
 80149f6:	d006      	beq.n	8014a06 <RCC_GetClocksFreq+0x8a>
          RCC_Clocks->SYSCLK_Frequency = (HSE_VALUE >> 1) * pllmull;
 80149f8:	693b      	ldr	r3, [r7, #16]
 80149fa:	4a35      	ldr	r2, [pc, #212]	; (8014ad0 <RCC_GetClocksFreq+0x154>)
 80149fc:	fb02 f203 	mul.w	r2, r2, r3
 8014a00:	687b      	ldr	r3, [r7, #4]
 8014a02:	601a      	str	r2, [r3, #0]
      break;
 8014a04:	e00a      	b.n	8014a1c <RCC_GetClocksFreq+0xa0>
          RCC_Clocks->SYSCLK_Frequency = HSE_VALUE * pllmull;
 8014a06:	693b      	ldr	r3, [r7, #16]
 8014a08:	4a30      	ldr	r2, [pc, #192]	; (8014acc <RCC_GetClocksFreq+0x150>)
 8014a0a:	fb02 f203 	mul.w	r2, r2, r3
 8014a0e:	687b      	ldr	r3, [r7, #4]
 8014a10:	601a      	str	r2, [r3, #0]
      break;
 8014a12:	e003      	b.n	8014a1c <RCC_GetClocksFreq+0xa0>

    default:
      RCC_Clocks->SYSCLK_Frequency = HSI_VALUE;
 8014a14:	687b      	ldr	r3, [r7, #4]
 8014a16:	4a2d      	ldr	r2, [pc, #180]	; (8014acc <RCC_GetClocksFreq+0x150>)
 8014a18:	601a      	str	r2, [r3, #0]
      break;
 8014a1a:	bf00      	nop
  }

  /* Compute HCLK, PCLK1, PCLK2 and ADCCLK clocks frequencies ----------------*/
  /* Get HCLK prescaler */
  tmp = RCC->CFGR & CFGR_HPRE_Set_Mask;
 8014a1c:	4b2a      	ldr	r3, [pc, #168]	; (8014ac8 <RCC_GetClocksFreq+0x14c>)
 8014a1e:	685b      	ldr	r3, [r3, #4]
 8014a20:	f003 03f0 	and.w	r3, r3, #240	; 0xf0
 8014a24:	617b      	str	r3, [r7, #20]
  tmp = tmp >> 4;
 8014a26:	697b      	ldr	r3, [r7, #20]
 8014a28:	091b      	lsrs	r3, r3, #4
 8014a2a:	617b      	str	r3, [r7, #20]
  presc = APBAHBPrescTable[tmp];
 8014a2c:	4a29      	ldr	r2, [pc, #164]	; (8014ad4 <RCC_GetClocksFreq+0x158>)
 8014a2e:	697b      	ldr	r3, [r7, #20]
 8014a30:	4413      	add	r3, r2
 8014a32:	781b      	ldrb	r3, [r3, #0]
 8014a34:	b2db      	uxtb	r3, r3
 8014a36:	60bb      	str	r3, [r7, #8]
  /* HCLK clock frequency */
  RCC_Clocks->HCLK_Frequency = RCC_Clocks->SYSCLK_Frequency >> presc;
 8014a38:	687b      	ldr	r3, [r7, #4]
 8014a3a:	681a      	ldr	r2, [r3, #0]
 8014a3c:	68bb      	ldr	r3, [r7, #8]
 8014a3e:	40da      	lsrs	r2, r3
 8014a40:	687b      	ldr	r3, [r7, #4]
 8014a42:	605a      	str	r2, [r3, #4]
  /* Get PCLK1 prescaler */
  tmp = RCC->CFGR & CFGR_PPRE1_Set_Mask;
 8014a44:	4b20      	ldr	r3, [pc, #128]	; (8014ac8 <RCC_GetClocksFreq+0x14c>)
 8014a46:	685b      	ldr	r3, [r3, #4]
 8014a48:	f403 63e0 	and.w	r3, r3, #1792	; 0x700
 8014a4c:	617b      	str	r3, [r7, #20]
  tmp = tmp >> 8;
 8014a4e:	697b      	ldr	r3, [r7, #20]
 8014a50:	0a1b      	lsrs	r3, r3, #8
 8014a52:	617b      	str	r3, [r7, #20]
  presc = APBAHBPrescTable[tmp];
 8014a54:	4a1f      	ldr	r2, [pc, #124]	; (8014ad4 <RCC_GetClocksFreq+0x158>)
 8014a56:	697b      	ldr	r3, [r7, #20]
 8014a58:	4413      	add	r3, r2
 8014a5a:	781b      	ldrb	r3, [r3, #0]
 8014a5c:	b2db      	uxtb	r3, r3
 8014a5e:	60bb      	str	r3, [r7, #8]
  /* PCLK1 clock frequency */
  RCC_Clocks->PCLK1_Frequency = RCC_Clocks->HCLK_Frequency >> presc;
 8014a60:	687b      	ldr	r3, [r7, #4]
 8014a62:	685a      	ldr	r2, [r3, #4]
 8014a64:	68bb      	ldr	r3, [r7, #8]
 8014a66:	40da      	lsrs	r2, r3
 8014a68:	687b      	ldr	r3, [r7, #4]
 8014a6a:	609a      	str	r2, [r3, #8]
  /* Get PCLK2 prescaler */
  tmp = RCC->CFGR & CFGR_PPRE2_Set_Mask;
 8014a6c:	4b16      	ldr	r3, [pc, #88]	; (8014ac8 <RCC_GetClocksFreq+0x14c>)
 8014a6e:	685b      	ldr	r3, [r3, #4]
 8014a70:	f403 5360 	and.w	r3, r3, #14336	; 0x3800
 8014a74:	617b      	str	r3, [r7, #20]
  tmp = tmp >> 11;
 8014a76:	697b      	ldr	r3, [r7, #20]
 8014a78:	0adb      	lsrs	r3, r3, #11
 8014a7a:	617b      	str	r3, [r7, #20]
  presc = APBAHBPrescTable[tmp];
 8014a7c:	4a15      	ldr	r2, [pc, #84]	; (8014ad4 <RCC_GetClocksFreq+0x158>)
 8014a7e:	697b      	ldr	r3, [r7, #20]
 8014a80:	4413      	add	r3, r2
 8014a82:	781b      	ldrb	r3, [r3, #0]
 8014a84:	b2db      	uxtb	r3, r3
 8014a86:	60bb      	str	r3, [r7, #8]
  /* PCLK2 clock frequency */
  RCC_Clocks->PCLK2_Frequency = RCC_Clocks->HCLK_Frequency >> presc;
 8014a88:	687b      	ldr	r3, [r7, #4]
 8014a8a:	685a      	ldr	r2, [r3, #4]
 8014a8c:	68bb      	ldr	r3, [r7, #8]
 8014a8e:	40da      	lsrs	r2, r3
 8014a90:	687b      	ldr	r3, [r7, #4]
 8014a92:	60da      	str	r2, [r3, #12]
  /* Get ADCCLK prescaler */
  tmp = RCC->CFGR & CFGR_ADCPRE_Set_Mask;
 8014a94:	4b0c      	ldr	r3, [pc, #48]	; (8014ac8 <RCC_GetClocksFreq+0x14c>)
 8014a96:	685b      	ldr	r3, [r3, #4]
 8014a98:	f403 4340 	and.w	r3, r3, #49152	; 0xc000
 8014a9c:	617b      	str	r3, [r7, #20]
  tmp = tmp >> 14;
 8014a9e:	697b      	ldr	r3, [r7, #20]
 8014aa0:	0b9b      	lsrs	r3, r3, #14
 8014aa2:	617b      	str	r3, [r7, #20]
  presc = ADCPrescTable[tmp];
 8014aa4:	4a0c      	ldr	r2, [pc, #48]	; (8014ad8 <RCC_GetClocksFreq+0x15c>)
 8014aa6:	697b      	ldr	r3, [r7, #20]
 8014aa8:	4413      	add	r3, r2
 8014aaa:	781b      	ldrb	r3, [r3, #0]
 8014aac:	b2db      	uxtb	r3, r3
 8014aae:	60bb      	str	r3, [r7, #8]
  /* ADCCLK clock frequency */
  RCC_Clocks->ADCCLK_Frequency = RCC_Clocks->PCLK2_Frequency / presc;
 8014ab0:	687b      	ldr	r3, [r7, #4]
 8014ab2:	68da      	ldr	r2, [r3, #12]
 8014ab4:	68bb      	ldr	r3, [r7, #8]
 8014ab6:	fbb2 f2f3 	udiv	r2, r2, r3
 8014aba:	687b      	ldr	r3, [r7, #4]
 8014abc:	611a      	str	r2, [r3, #16]
}
 8014abe:	bf00      	nop
 8014ac0:	371c      	adds	r7, #28
 8014ac2:	46bd      	mov	sp, r7
 8014ac4:	bc80      	pop	{r7}
 8014ac6:	4770      	bx	lr
 8014ac8:	40021000 	.word	0x40021000
 8014acc:	007a1200 	.word	0x007a1200
 8014ad0:	003d0900 	.word	0x003d0900
 8014ad4:	2000000c 	.word	0x2000000c
 8014ad8:	2000001c 	.word	0x2000001c

08014adc <RCC_APB2PeriphClockCmd>:
  * @param  NewState: new state of the specified peripheral clock.
  *   This parameter can be: ENABLE or DISABLE.
  * @retval None
  */
void RCC_APB2PeriphClockCmd(uint32_t RCC_APB2Periph, FunctionalState NewState)
{
 8014adc:	b480      	push	{r7}
 8014ade:	b083      	sub	sp, #12
 8014ae0:	af00      	add	r7, sp, #0
 8014ae2:	6078      	str	r0, [r7, #4]
 8014ae4:	460b      	mov	r3, r1
 8014ae6:	70fb      	strb	r3, [r7, #3]
  /* Check the parameters */
  assert_param(IS_RCC_APB2_PERIPH(RCC_APB2Periph));
  assert_param(IS_FUNCTIONAL_STATE(NewState));
  if (NewState != DISABLE)
 8014ae8:	78fb      	ldrb	r3, [r7, #3]
 8014aea:	2b00      	cmp	r3, #0
 8014aec:	d006      	beq.n	8014afc <RCC_APB2PeriphClockCmd+0x20>
  {
    RCC->APB2ENR |= RCC_APB2Periph;
 8014aee:	4909      	ldr	r1, [pc, #36]	; (8014b14 <RCC_APB2PeriphClockCmd+0x38>)
 8014af0:	4b08      	ldr	r3, [pc, #32]	; (8014b14 <RCC_APB2PeriphClockCmd+0x38>)
 8014af2:	699a      	ldr	r2, [r3, #24]
 8014af4:	687b      	ldr	r3, [r7, #4]
 8014af6:	4313      	orrs	r3, r2
 8014af8:	618b      	str	r3, [r1, #24]
  }
  else
  {
    RCC->APB2ENR &= ~RCC_APB2Periph;
  }
}
 8014afa:	e006      	b.n	8014b0a <RCC_APB2PeriphClockCmd+0x2e>
    RCC->APB2ENR &= ~RCC_APB2Periph;
 8014afc:	4905      	ldr	r1, [pc, #20]	; (8014b14 <RCC_APB2PeriphClockCmd+0x38>)
 8014afe:	4b05      	ldr	r3, [pc, #20]	; (8014b14 <RCC_APB2PeriphClockCmd+0x38>)
 8014b00:	699a      	ldr	r2, [r3, #24]
 8014b02:	687b      	ldr	r3, [r7, #4]
 8014b04:	43db      	mvns	r3, r3
 8014b06:	4013      	ands	r3, r2
 8014b08:	618b      	str	r3, [r1, #24]
}
 8014b0a:	bf00      	nop
 8014b0c:	370c      	adds	r7, #12
 8014b0e:	46bd      	mov	sp, r7
 8014b10:	bc80      	pop	{r7}
 8014b12:	4770      	bx	lr
 8014b14:	40021000 	.word	0x40021000

08014b18 <RCC_APB1PeriphClockCmd>:
  * @param  NewState: new state of the specified peripheral clock.
  *   This parameter can be: ENABLE or DISABLE.
  * @retval None
  */
void RCC_APB1PeriphClockCmd(uint32_t RCC_APB1Periph, FunctionalState NewState)
{
 8014b18:	b480      	push	{r7}
 8014b1a:	b083      	sub	sp, #12
 8014b1c:	af00      	add	r7, sp, #0
 8014b1e:	6078      	str	r0, [r7, #4]
 8014b20:	460b      	mov	r3, r1
 8014b22:	70fb      	strb	r3, [r7, #3]
  /* Check the parameters */
  assert_param(IS_RCC_APB1_PERIPH(RCC_APB1Periph));
  assert_param(IS_FUNCTIONAL_STATE(NewState));
  if (NewState != DISABLE)
 8014b24:	78fb      	ldrb	r3, [r7, #3]
 8014b26:	2b00      	cmp	r3, #0
 8014b28:	d006      	beq.n	8014b38 <RCC_APB1PeriphClockCmd+0x20>
  {
    RCC->APB1ENR |= RCC_APB1Periph;
 8014b2a:	4909      	ldr	r1, [pc, #36]	; (8014b50 <RCC_APB1PeriphClockCmd+0x38>)
 8014b2c:	4b08      	ldr	r3, [pc, #32]	; (8014b50 <RCC_APB1PeriphClockCmd+0x38>)
 8014b2e:	69da      	ldr	r2, [r3, #28]
 8014b30:	687b      	ldr	r3, [r7, #4]
 8014b32:	4313      	orrs	r3, r2
 8014b34:	61cb      	str	r3, [r1, #28]
  }
  else
  {
    RCC->APB1ENR &= ~RCC_APB1Periph;
  }
}
 8014b36:	e006      	b.n	8014b46 <RCC_APB1PeriphClockCmd+0x2e>
    RCC->APB1ENR &= ~RCC_APB1Periph;
 8014b38:	4905      	ldr	r1, [pc, #20]	; (8014b50 <RCC_APB1PeriphClockCmd+0x38>)
 8014b3a:	4b05      	ldr	r3, [pc, #20]	; (8014b50 <RCC_APB1PeriphClockCmd+0x38>)
 8014b3c:	69da      	ldr	r2, [r3, #28]
 8014b3e:	687b      	ldr	r3, [r7, #4]
 8014b40:	43db      	mvns	r3, r3
 8014b42:	4013      	ands	r3, r2
 8014b44:	61cb      	str	r3, [r1, #28]
}
 8014b46:	bf00      	nop
 8014b48:	370c      	adds	r7, #12
 8014b4a:	46bd      	mov	sp, r7
 8014b4c:	bc80      	pop	{r7}
 8014b4e:	4770      	bx	lr
 8014b50:	40021000 	.word	0x40021000

08014b54 <RCC_APB2PeriphResetCmd>:
  * @param  NewState: new state of the specified peripheral reset.
  *   This parameter can be: ENABLE or DISABLE.
  * @retval None
  */
void RCC_APB2PeriphResetCmd(uint32_t RCC_APB2Periph, FunctionalState NewState)
{
 8014b54:	b480      	push	{r7}
 8014b56:	b083      	sub	sp, #12
 8014b58:	af00      	add	r7, sp, #0
 8014b5a:	6078      	str	r0, [r7, #4]
 8014b5c:	460b      	mov	r3, r1
 8014b5e:	70fb      	strb	r3, [r7, #3]
  /* Check the parameters */
  assert_param(IS_RCC_APB2_PERIPH(RCC_APB2Periph));
  assert_param(IS_FUNCTIONAL_STATE(NewState));
  if (NewState != DISABLE)
 8014b60:	78fb      	ldrb	r3, [r7, #3]
 8014b62:	2b00      	cmp	r3, #0
 8014b64:	d006      	beq.n	8014b74 <RCC_APB2PeriphResetCmd+0x20>
  {
    RCC->APB2RSTR |= RCC_APB2Periph;
 8014b66:	4909      	ldr	r1, [pc, #36]	; (8014b8c <RCC_APB2PeriphResetCmd+0x38>)
 8014b68:	4b08      	ldr	r3, [pc, #32]	; (8014b8c <RCC_APB2PeriphResetCmd+0x38>)
 8014b6a:	68da      	ldr	r2, [r3, #12]
 8014b6c:	687b      	ldr	r3, [r7, #4]
 8014b6e:	4313      	orrs	r3, r2
 8014b70:	60cb      	str	r3, [r1, #12]
  }
  else
  {
    RCC->APB2RSTR &= ~RCC_APB2Periph;
  }
}
 8014b72:	e006      	b.n	8014b82 <RCC_APB2PeriphResetCmd+0x2e>
    RCC->APB2RSTR &= ~RCC_APB2Periph;
 8014b74:	4905      	ldr	r1, [pc, #20]	; (8014b8c <RCC_APB2PeriphResetCmd+0x38>)
 8014b76:	4b05      	ldr	r3, [pc, #20]	; (8014b8c <RCC_APB2PeriphResetCmd+0x38>)
 8014b78:	68da      	ldr	r2, [r3, #12]
 8014b7a:	687b      	ldr	r3, [r7, #4]
 8014b7c:	43db      	mvns	r3, r3
 8014b7e:	4013      	ands	r3, r2
 8014b80:	60cb      	str	r3, [r1, #12]
}
 8014b82:	bf00      	nop
 8014b84:	370c      	adds	r7, #12
 8014b86:	46bd      	mov	sp, r7
 8014b88:	bc80      	pop	{r7}
 8014b8a:	4770      	bx	lr
 8014b8c:	40021000 	.word	0x40021000

08014b90 <RCC_APB1PeriphResetCmd>:
  * @param  NewState: new state of the specified peripheral clock.
  *   This parameter can be: ENABLE or DISABLE.
  * @retval None
  */
void RCC_APB1PeriphResetCmd(uint32_t RCC_APB1Periph, FunctionalState NewState)
{
 8014b90:	b480      	push	{r7}
 8014b92:	b083      	sub	sp, #12
 8014b94:	af00      	add	r7, sp, #0
 8014b96:	6078      	str	r0, [r7, #4]
 8014b98:	460b      	mov	r3, r1
 8014b9a:	70fb      	strb	r3, [r7, #3]
  /* Check the parameters */
  assert_param(IS_RCC_APB1_PERIPH(RCC_APB1Periph));
  assert_param(IS_FUNCTIONAL_STATE(NewState));
  if (NewState != DISABLE)
 8014b9c:	78fb      	ldrb	r3, [r7, #3]
 8014b9e:	2b00      	cmp	r3, #0
 8014ba0:	d006      	beq.n	8014bb0 <RCC_APB1PeriphResetCmd+0x20>
  {
    RCC->APB1RSTR |= RCC_APB1Periph;
 8014ba2:	4909      	ldr	r1, [pc, #36]	; (8014bc8 <RCC_APB1PeriphResetCmd+0x38>)
 8014ba4:	4b08      	ldr	r3, [pc, #32]	; (8014bc8 <RCC_APB1PeriphResetCmd+0x38>)
 8014ba6:	691a      	ldr	r2, [r3, #16]
 8014ba8:	687b      	ldr	r3, [r7, #4]
 8014baa:	4313      	orrs	r3, r2
 8014bac:	610b      	str	r3, [r1, #16]
  }
  else
  {
    RCC->APB1RSTR &= ~RCC_APB1Periph;
  }
}
 8014bae:	e006      	b.n	8014bbe <RCC_APB1PeriphResetCmd+0x2e>
    RCC->APB1RSTR &= ~RCC_APB1Periph;
 8014bb0:	4905      	ldr	r1, [pc, #20]	; (8014bc8 <RCC_APB1PeriphResetCmd+0x38>)
 8014bb2:	4b05      	ldr	r3, [pc, #20]	; (8014bc8 <RCC_APB1PeriphResetCmd+0x38>)
 8014bb4:	691a      	ldr	r2, [r3, #16]
 8014bb6:	687b      	ldr	r3, [r7, #4]
 8014bb8:	43db      	mvns	r3, r3
 8014bba:	4013      	ands	r3, r2
 8014bbc:	610b      	str	r3, [r1, #16]
}
 8014bbe:	bf00      	nop
 8014bc0:	370c      	adds	r7, #12
 8014bc2:	46bd      	mov	sp, r7
 8014bc4:	bc80      	pop	{r7}
 8014bc6:	4770      	bx	lr
 8014bc8:	40021000 	.word	0x40021000

08014bcc <RCC_GetFlagStatus>:
  *     @arg RCC_FLAG_LPWRRST: Low Power reset
  *   
  * @retval The new state of RCC_FLAG (SET or RESET).
  */
FlagStatus RCC_GetFlagStatus(uint8_t RCC_FLAG)
{
 8014bcc:	b480      	push	{r7}
 8014bce:	b087      	sub	sp, #28
 8014bd0:	af00      	add	r7, sp, #0
 8014bd2:	4603      	mov	r3, r0
 8014bd4:	71fb      	strb	r3, [r7, #7]
  uint32_t tmp = 0;
 8014bd6:	2300      	movs	r3, #0
 8014bd8:	60fb      	str	r3, [r7, #12]
  uint32_t statusreg = 0;
 8014bda:	2300      	movs	r3, #0
 8014bdc:	617b      	str	r3, [r7, #20]
  FlagStatus bitstatus = RESET;
 8014bde:	2300      	movs	r3, #0
 8014be0:	74fb      	strb	r3, [r7, #19]
  /* Check the parameters */
  assert_param(IS_RCC_FLAG(RCC_FLAG));

  /* Get the RCC register index */
  tmp = RCC_FLAG >> 5;
 8014be2:	79fb      	ldrb	r3, [r7, #7]
 8014be4:	095b      	lsrs	r3, r3, #5
 8014be6:	b2db      	uxtb	r3, r3
 8014be8:	60fb      	str	r3, [r7, #12]
  if (tmp == 1)               /* The flag to check is in CR register */
 8014bea:	68fb      	ldr	r3, [r7, #12]
 8014bec:	2b01      	cmp	r3, #1
 8014bee:	d103      	bne.n	8014bf8 <RCC_GetFlagStatus+0x2c>
  {
    statusreg = RCC->CR;
 8014bf0:	4b12      	ldr	r3, [pc, #72]	; (8014c3c <RCC_GetFlagStatus+0x70>)
 8014bf2:	681b      	ldr	r3, [r3, #0]
 8014bf4:	617b      	str	r3, [r7, #20]
 8014bf6:	e009      	b.n	8014c0c <RCC_GetFlagStatus+0x40>
  }
  else if (tmp == 2)          /* The flag to check is in BDCR register */
 8014bf8:	68fb      	ldr	r3, [r7, #12]
 8014bfa:	2b02      	cmp	r3, #2
 8014bfc:	d103      	bne.n	8014c06 <RCC_GetFlagStatus+0x3a>
  {
    statusreg = RCC->BDCR;
 8014bfe:	4b0f      	ldr	r3, [pc, #60]	; (8014c3c <RCC_GetFlagStatus+0x70>)
 8014c00:	6a1b      	ldr	r3, [r3, #32]
 8014c02:	617b      	str	r3, [r7, #20]
 8014c04:	e002      	b.n	8014c0c <RCC_GetFlagStatus+0x40>
  }
  else                       /* The flag to check is in CSR register */
  {
    statusreg = RCC->CSR;
 8014c06:	4b0d      	ldr	r3, [pc, #52]	; (8014c3c <RCC_GetFlagStatus+0x70>)
 8014c08:	6a5b      	ldr	r3, [r3, #36]	; 0x24
 8014c0a:	617b      	str	r3, [r7, #20]
  }

  /* Get the flag position */
  tmp = RCC_FLAG & FLAG_Mask;
 8014c0c:	79fb      	ldrb	r3, [r7, #7]
 8014c0e:	f003 031f 	and.w	r3, r3, #31
 8014c12:	60fb      	str	r3, [r7, #12]
  if ((statusreg & ((uint32_t)1 << tmp)) != (uint32_t)RESET)
 8014c14:	697a      	ldr	r2, [r7, #20]
 8014c16:	68fb      	ldr	r3, [r7, #12]
 8014c18:	fa22 f303 	lsr.w	r3, r2, r3
 8014c1c:	f003 0301 	and.w	r3, r3, #1
 8014c20:	2b00      	cmp	r3, #0
 8014c22:	d002      	beq.n	8014c2a <RCC_GetFlagStatus+0x5e>
  {
    bitstatus = SET;
 8014c24:	2301      	movs	r3, #1
 8014c26:	74fb      	strb	r3, [r7, #19]
 8014c28:	e001      	b.n	8014c2e <RCC_GetFlagStatus+0x62>
  }
  else
  {
    bitstatus = RESET;
 8014c2a:	2300      	movs	r3, #0
 8014c2c:	74fb      	strb	r3, [r7, #19]
  }

  /* Return the flag status */
  return bitstatus;
 8014c2e:	7cfb      	ldrb	r3, [r7, #19]
}
 8014c30:	4618      	mov	r0, r3
 8014c32:	371c      	adds	r7, #28
 8014c34:	46bd      	mov	sp, r7
 8014c36:	bc80      	pop	{r7}
 8014c38:	4770      	bx	lr
 8014c3a:	bf00      	nop
 8014c3c:	40021000 	.word	0x40021000

08014c40 <TIM_DeInit>:
  * @brief  Deinitializes the TIMx peripheral registers to their default reset values.
  * @param  TIMx: where x can be 1 to 17 to select the TIM peripheral.
  * @retval None
  */
void TIM_DeInit(TIM_TypeDef* TIMx)
{
 8014c40:	b580      	push	{r7, lr}
 8014c42:	b082      	sub	sp, #8
 8014c44:	af00      	add	r7, sp, #0
 8014c46:	6078      	str	r0, [r7, #4]
  /* Check the parameters */
  assert_param(IS_TIM_ALL_PERIPH(TIMx)); 
 
  if (TIMx == TIM1)
 8014c48:	687b      	ldr	r3, [r7, #4]
 8014c4a:	4a78      	ldr	r2, [pc, #480]	; (8014e2c <TIM_DeInit+0x1ec>)
 8014c4c:	4293      	cmp	r3, r2
 8014c4e:	d10a      	bne.n	8014c66 <TIM_DeInit+0x26>
  {
    RCC_APB2PeriphResetCmd(RCC_APB2Periph_TIM1, ENABLE);
 8014c50:	2101      	movs	r1, #1
 8014c52:	f44f 6000 	mov.w	r0, #2048	; 0x800
 8014c56:	f7ff ff7d 	bl	8014b54 <RCC_APB2PeriphResetCmd>
    RCC_APB2PeriphResetCmd(RCC_APB2Periph_TIM1, DISABLE);  
 8014c5a:	2100      	movs	r1, #0
 8014c5c:	f44f 6000 	mov.w	r0, #2048	; 0x800
 8014c60:	f7ff ff78 	bl	8014b54 <RCC_APB2PeriphResetCmd>
    {
      RCC_APB2PeriphResetCmd(RCC_APB2Periph_TIM17, ENABLE);
      RCC_APB2PeriphResetCmd(RCC_APB2Periph_TIM17, DISABLE);
    }  
  }
}
 8014c64:	e0de      	b.n	8014e24 <TIM_DeInit+0x1e4>
  else if (TIMx == TIM2)
 8014c66:	687b      	ldr	r3, [r7, #4]
 8014c68:	f1b3 4f80 	cmp.w	r3, #1073741824	; 0x40000000
 8014c6c:	d108      	bne.n	8014c80 <TIM_DeInit+0x40>
    RCC_APB1PeriphResetCmd(RCC_APB1Periph_TIM2, ENABLE);
 8014c6e:	2101      	movs	r1, #1
 8014c70:	2001      	movs	r0, #1
 8014c72:	f7ff ff8d 	bl	8014b90 <RCC_APB1PeriphResetCmd>
    RCC_APB1PeriphResetCmd(RCC_APB1Periph_TIM2, DISABLE);
 8014c76:	2100      	movs	r1, #0
 8014c78:	2001      	movs	r0, #1
 8014c7a:	f7ff ff89 	bl	8014b90 <RCC_APB1PeriphResetCmd>
}
 8014c7e:	e0d1      	b.n	8014e24 <TIM_DeInit+0x1e4>
  else if (TIMx == TIM3)
 8014c80:	687b      	ldr	r3, [r7, #4]
 8014c82:	4a6b      	ldr	r2, [pc, #428]	; (8014e30 <TIM_DeInit+0x1f0>)
 8014c84:	4293      	cmp	r3, r2
 8014c86:	d108      	bne.n	8014c9a <TIM_DeInit+0x5a>
    RCC_APB1PeriphResetCmd(RCC_APB1Periph_TIM3, ENABLE);
 8014c88:	2101      	movs	r1, #1
 8014c8a:	2002      	movs	r0, #2
 8014c8c:	f7ff ff80 	bl	8014b90 <RCC_APB1PeriphResetCmd>
    RCC_APB1PeriphResetCmd(RCC_APB1Periph_TIM3, DISABLE);
 8014c90:	2100      	movs	r1, #0
 8014c92:	2002      	movs	r0, #2
 8014c94:	f7ff ff7c 	bl	8014b90 <RCC_APB1PeriphResetCmd>
}
 8014c98:	e0c4      	b.n	8014e24 <TIM_DeInit+0x1e4>
  else if (TIMx == TIM4)
 8014c9a:	687b      	ldr	r3, [r7, #4]
 8014c9c:	4a65      	ldr	r2, [pc, #404]	; (8014e34 <TIM_DeInit+0x1f4>)
 8014c9e:	4293      	cmp	r3, r2
 8014ca0:	d108      	bne.n	8014cb4 <TIM_DeInit+0x74>
    RCC_APB1PeriphResetCmd(RCC_APB1Periph_TIM4, ENABLE);
 8014ca2:	2101      	movs	r1, #1
 8014ca4:	2004      	movs	r0, #4
 8014ca6:	f7ff ff73 	bl	8014b90 <RCC_APB1PeriphResetCmd>
    RCC_APB1PeriphResetCmd(RCC_APB1Periph_TIM4, DISABLE);
 8014caa:	2100      	movs	r1, #0
 8014cac:	2004      	movs	r0, #4
 8014cae:	f7ff ff6f 	bl	8014b90 <RCC_APB1PeriphResetCmd>
}
 8014cb2:	e0b7      	b.n	8014e24 <TIM_DeInit+0x1e4>
  else if (TIMx == TIM5)
 8014cb4:	687b      	ldr	r3, [r7, #4]
 8014cb6:	4a60      	ldr	r2, [pc, #384]	; (8014e38 <TIM_DeInit+0x1f8>)
 8014cb8:	4293      	cmp	r3, r2
 8014cba:	d108      	bne.n	8014cce <TIM_DeInit+0x8e>
    RCC_APB1PeriphResetCmd(RCC_APB1Periph_TIM5, ENABLE);
 8014cbc:	2101      	movs	r1, #1
 8014cbe:	2008      	movs	r0, #8
 8014cc0:	f7ff ff66 	bl	8014b90 <RCC_APB1PeriphResetCmd>
    RCC_APB1PeriphResetCmd(RCC_APB1Periph_TIM5, DISABLE);
 8014cc4:	2100      	movs	r1, #0
 8014cc6:	2008      	movs	r0, #8
 8014cc8:	f7ff ff62 	bl	8014b90 <RCC_APB1PeriphResetCmd>
}
 8014ccc:	e0aa      	b.n	8014e24 <TIM_DeInit+0x1e4>
  else if (TIMx == TIM6)
 8014cce:	687b      	ldr	r3, [r7, #4]
 8014cd0:	4a5a      	ldr	r2, [pc, #360]	; (8014e3c <TIM_DeInit+0x1fc>)
 8014cd2:	4293      	cmp	r3, r2
 8014cd4:	d108      	bne.n	8014ce8 <TIM_DeInit+0xa8>
    RCC_APB1PeriphResetCmd(RCC_APB1Periph_TIM6, ENABLE);
 8014cd6:	2101      	movs	r1, #1
 8014cd8:	2010      	movs	r0, #16
 8014cda:	f7ff ff59 	bl	8014b90 <RCC_APB1PeriphResetCmd>
    RCC_APB1PeriphResetCmd(RCC_APB1Periph_TIM6, DISABLE);
 8014cde:	2100      	movs	r1, #0
 8014ce0:	2010      	movs	r0, #16
 8014ce2:	f7ff ff55 	bl	8014b90 <RCC_APB1PeriphResetCmd>
}
 8014ce6:	e09d      	b.n	8014e24 <TIM_DeInit+0x1e4>
  else if (TIMx == TIM7)
 8014ce8:	687b      	ldr	r3, [r7, #4]
 8014cea:	4a55      	ldr	r2, [pc, #340]	; (8014e40 <TIM_DeInit+0x200>)
 8014cec:	4293      	cmp	r3, r2
 8014cee:	d108      	bne.n	8014d02 <TIM_DeInit+0xc2>
    RCC_APB1PeriphResetCmd(RCC_APB1Periph_TIM7, ENABLE);
 8014cf0:	2101      	movs	r1, #1
 8014cf2:	2020      	movs	r0, #32
 8014cf4:	f7ff ff4c 	bl	8014b90 <RCC_APB1PeriphResetCmd>
    RCC_APB1PeriphResetCmd(RCC_APB1Periph_TIM7, DISABLE);
 8014cf8:	2100      	movs	r1, #0
 8014cfa:	2020      	movs	r0, #32
 8014cfc:	f7ff ff48 	bl	8014b90 <RCC_APB1PeriphResetCmd>
}
 8014d00:	e090      	b.n	8014e24 <TIM_DeInit+0x1e4>
  else if (TIMx == TIM8)
 8014d02:	687b      	ldr	r3, [r7, #4]
 8014d04:	4a4f      	ldr	r2, [pc, #316]	; (8014e44 <TIM_DeInit+0x204>)
 8014d06:	4293      	cmp	r3, r2
 8014d08:	d10a      	bne.n	8014d20 <TIM_DeInit+0xe0>
    RCC_APB2PeriphResetCmd(RCC_APB2Periph_TIM8, ENABLE);
 8014d0a:	2101      	movs	r1, #1
 8014d0c:	f44f 5000 	mov.w	r0, #8192	; 0x2000
 8014d10:	f7ff ff20 	bl	8014b54 <RCC_APB2PeriphResetCmd>
    RCC_APB2PeriphResetCmd(RCC_APB2Periph_TIM8, DISABLE);
 8014d14:	2100      	movs	r1, #0
 8014d16:	f44f 5000 	mov.w	r0, #8192	; 0x2000
 8014d1a:	f7ff ff1b 	bl	8014b54 <RCC_APB2PeriphResetCmd>
}
 8014d1e:	e081      	b.n	8014e24 <TIM_DeInit+0x1e4>
  else if (TIMx == TIM9)
 8014d20:	687b      	ldr	r3, [r7, #4]
 8014d22:	4a49      	ldr	r2, [pc, #292]	; (8014e48 <TIM_DeInit+0x208>)
 8014d24:	4293      	cmp	r3, r2
 8014d26:	d10a      	bne.n	8014d3e <TIM_DeInit+0xfe>
    RCC_APB2PeriphResetCmd(RCC_APB2Periph_TIM9, ENABLE);
 8014d28:	2101      	movs	r1, #1
 8014d2a:	f44f 2000 	mov.w	r0, #524288	; 0x80000
 8014d2e:	f7ff ff11 	bl	8014b54 <RCC_APB2PeriphResetCmd>
    RCC_APB2PeriphResetCmd(RCC_APB2Periph_TIM9, DISABLE);  
 8014d32:	2100      	movs	r1, #0
 8014d34:	f44f 2000 	mov.w	r0, #524288	; 0x80000
 8014d38:	f7ff ff0c 	bl	8014b54 <RCC_APB2PeriphResetCmd>
}
 8014d3c:	e072      	b.n	8014e24 <TIM_DeInit+0x1e4>
  else if (TIMx == TIM10)
 8014d3e:	687b      	ldr	r3, [r7, #4]
 8014d40:	4a42      	ldr	r2, [pc, #264]	; (8014e4c <TIM_DeInit+0x20c>)
 8014d42:	4293      	cmp	r3, r2
 8014d44:	d10a      	bne.n	8014d5c <TIM_DeInit+0x11c>
    RCC_APB2PeriphResetCmd(RCC_APB2Periph_TIM10, ENABLE);
 8014d46:	2101      	movs	r1, #1
 8014d48:	f44f 1080 	mov.w	r0, #1048576	; 0x100000
 8014d4c:	f7ff ff02 	bl	8014b54 <RCC_APB2PeriphResetCmd>
    RCC_APB2PeriphResetCmd(RCC_APB2Periph_TIM10, DISABLE);  
 8014d50:	2100      	movs	r1, #0
 8014d52:	f44f 1080 	mov.w	r0, #1048576	; 0x100000
 8014d56:	f7ff fefd 	bl	8014b54 <RCC_APB2PeriphResetCmd>
}
 8014d5a:	e063      	b.n	8014e24 <TIM_DeInit+0x1e4>
  else if (TIMx == TIM11) 
 8014d5c:	687b      	ldr	r3, [r7, #4]
 8014d5e:	4a3c      	ldr	r2, [pc, #240]	; (8014e50 <TIM_DeInit+0x210>)
 8014d60:	4293      	cmp	r3, r2
 8014d62:	d10a      	bne.n	8014d7a <TIM_DeInit+0x13a>
    RCC_APB2PeriphResetCmd(RCC_APB2Periph_TIM11, ENABLE);
 8014d64:	2101      	movs	r1, #1
 8014d66:	f44f 1000 	mov.w	r0, #2097152	; 0x200000
 8014d6a:	f7ff fef3 	bl	8014b54 <RCC_APB2PeriphResetCmd>
    RCC_APB2PeriphResetCmd(RCC_APB2Periph_TIM11, DISABLE);  
 8014d6e:	2100      	movs	r1, #0
 8014d70:	f44f 1000 	mov.w	r0, #2097152	; 0x200000
 8014d74:	f7ff feee 	bl	8014b54 <RCC_APB2PeriphResetCmd>
}
 8014d78:	e054      	b.n	8014e24 <TIM_DeInit+0x1e4>
  else if (TIMx == TIM12)
 8014d7a:	687b      	ldr	r3, [r7, #4]
 8014d7c:	4a35      	ldr	r2, [pc, #212]	; (8014e54 <TIM_DeInit+0x214>)
 8014d7e:	4293      	cmp	r3, r2
 8014d80:	d108      	bne.n	8014d94 <TIM_DeInit+0x154>
    RCC_APB1PeriphResetCmd(RCC_APB1Periph_TIM12, ENABLE);
 8014d82:	2101      	movs	r1, #1
 8014d84:	2040      	movs	r0, #64	; 0x40
 8014d86:	f7ff ff03 	bl	8014b90 <RCC_APB1PeriphResetCmd>
    RCC_APB1PeriphResetCmd(RCC_APB1Periph_TIM12, DISABLE);  
 8014d8a:	2100      	movs	r1, #0
 8014d8c:	2040      	movs	r0, #64	; 0x40
 8014d8e:	f7ff feff 	bl	8014b90 <RCC_APB1PeriphResetCmd>
}
 8014d92:	e047      	b.n	8014e24 <TIM_DeInit+0x1e4>
  else if (TIMx == TIM13) 
 8014d94:	687b      	ldr	r3, [r7, #4]
 8014d96:	4a30      	ldr	r2, [pc, #192]	; (8014e58 <TIM_DeInit+0x218>)
 8014d98:	4293      	cmp	r3, r2
 8014d9a:	d108      	bne.n	8014dae <TIM_DeInit+0x16e>
    RCC_APB1PeriphResetCmd(RCC_APB1Periph_TIM13, ENABLE);
 8014d9c:	2101      	movs	r1, #1
 8014d9e:	2080      	movs	r0, #128	; 0x80
 8014da0:	f7ff fef6 	bl	8014b90 <RCC_APB1PeriphResetCmd>
    RCC_APB1PeriphResetCmd(RCC_APB1Periph_TIM13, DISABLE);  
 8014da4:	2100      	movs	r1, #0
 8014da6:	2080      	movs	r0, #128	; 0x80
 8014da8:	f7ff fef2 	bl	8014b90 <RCC_APB1PeriphResetCmd>
}
 8014dac:	e03a      	b.n	8014e24 <TIM_DeInit+0x1e4>
  else if (TIMx == TIM14) 
 8014dae:	687b      	ldr	r3, [r7, #4]
 8014db0:	4a2a      	ldr	r2, [pc, #168]	; (8014e5c <TIM_DeInit+0x21c>)
 8014db2:	4293      	cmp	r3, r2
 8014db4:	d10a      	bne.n	8014dcc <TIM_DeInit+0x18c>
    RCC_APB1PeriphResetCmd(RCC_APB1Periph_TIM14, ENABLE);
 8014db6:	2101      	movs	r1, #1
 8014db8:	f44f 7080 	mov.w	r0, #256	; 0x100
 8014dbc:	f7ff fee8 	bl	8014b90 <RCC_APB1PeriphResetCmd>
    RCC_APB1PeriphResetCmd(RCC_APB1Periph_TIM14, DISABLE);  
 8014dc0:	2100      	movs	r1, #0
 8014dc2:	f44f 7080 	mov.w	r0, #256	; 0x100
 8014dc6:	f7ff fee3 	bl	8014b90 <RCC_APB1PeriphResetCmd>
}
 8014dca:	e02b      	b.n	8014e24 <TIM_DeInit+0x1e4>
  else if (TIMx == TIM15)
 8014dcc:	687b      	ldr	r3, [r7, #4]
 8014dce:	4a24      	ldr	r2, [pc, #144]	; (8014e60 <TIM_DeInit+0x220>)
 8014dd0:	4293      	cmp	r3, r2
 8014dd2:	d10a      	bne.n	8014dea <TIM_DeInit+0x1aa>
    RCC_APB2PeriphResetCmd(RCC_APB2Periph_TIM15, ENABLE);
 8014dd4:	2101      	movs	r1, #1
 8014dd6:	f44f 3080 	mov.w	r0, #65536	; 0x10000
 8014dda:	f7ff febb 	bl	8014b54 <RCC_APB2PeriphResetCmd>
    RCC_APB2PeriphResetCmd(RCC_APB2Periph_TIM15, DISABLE);
 8014dde:	2100      	movs	r1, #0
 8014de0:	f44f 3080 	mov.w	r0, #65536	; 0x10000
 8014de4:	f7ff feb6 	bl	8014b54 <RCC_APB2PeriphResetCmd>
}
 8014de8:	e01c      	b.n	8014e24 <TIM_DeInit+0x1e4>
  else if (TIMx == TIM16)
 8014dea:	687b      	ldr	r3, [r7, #4]
 8014dec:	4a1d      	ldr	r2, [pc, #116]	; (8014e64 <TIM_DeInit+0x224>)
 8014dee:	4293      	cmp	r3, r2
 8014df0:	d10a      	bne.n	8014e08 <TIM_DeInit+0x1c8>
    RCC_APB2PeriphResetCmd(RCC_APB2Periph_TIM16, ENABLE);
 8014df2:	2101      	movs	r1, #1
 8014df4:	f44f 3000 	mov.w	r0, #131072	; 0x20000
 8014df8:	f7ff feac 	bl	8014b54 <RCC_APB2PeriphResetCmd>
    RCC_APB2PeriphResetCmd(RCC_APB2Periph_TIM16, DISABLE);
 8014dfc:	2100      	movs	r1, #0
 8014dfe:	f44f 3000 	mov.w	r0, #131072	; 0x20000
 8014e02:	f7ff fea7 	bl	8014b54 <RCC_APB2PeriphResetCmd>
}
 8014e06:	e00d      	b.n	8014e24 <TIM_DeInit+0x1e4>
    if (TIMx == TIM17)
 8014e08:	687b      	ldr	r3, [r7, #4]
 8014e0a:	4a17      	ldr	r2, [pc, #92]	; (8014e68 <TIM_DeInit+0x228>)
 8014e0c:	4293      	cmp	r3, r2
 8014e0e:	d109      	bne.n	8014e24 <TIM_DeInit+0x1e4>
      RCC_APB2PeriphResetCmd(RCC_APB2Periph_TIM17, ENABLE);
 8014e10:	2101      	movs	r1, #1
 8014e12:	f44f 2080 	mov.w	r0, #262144	; 0x40000
 8014e16:	f7ff fe9d 	bl	8014b54 <RCC_APB2PeriphResetCmd>
      RCC_APB2PeriphResetCmd(RCC_APB2Periph_TIM17, DISABLE);
 8014e1a:	2100      	movs	r1, #0
 8014e1c:	f44f 2080 	mov.w	r0, #262144	; 0x40000
 8014e20:	f7ff fe98 	bl	8014b54 <RCC_APB2PeriphResetCmd>
}
 8014e24:	bf00      	nop
 8014e26:	3708      	adds	r7, #8
 8014e28:	46bd      	mov	sp, r7
 8014e2a:	bd80      	pop	{r7, pc}
 8014e2c:	40012c00 	.word	0x40012c00
 8014e30:	40000400 	.word	0x40000400
 8014e34:	40000800 	.word	0x40000800
 8014e38:	40000c00 	.word	0x40000c00
 8014e3c:	40001000 	.word	0x40001000
 8014e40:	40001400 	.word	0x40001400
 8014e44:	40013400 	.word	0x40013400
 8014e48:	40014c00 	.word	0x40014c00
 8014e4c:	40015000 	.word	0x40015000
 8014e50:	40015400 	.word	0x40015400
 8014e54:	40001800 	.word	0x40001800
 8014e58:	40001c00 	.word	0x40001c00
 8014e5c:	40002000 	.word	0x40002000
 8014e60:	40014000 	.word	0x40014000
 8014e64:	40014400 	.word	0x40014400
 8014e68:	40014800 	.word	0x40014800

08014e6c <TIM_TimeBaseInit>:
  *         structure that contains the configuration information for the 
  *         specified TIM peripheral.
  * @retval None
  */
void TIM_TimeBaseInit(TIM_TypeDef* TIMx, TIM_TimeBaseInitTypeDef* TIM_TimeBaseInitStruct)
{
 8014e6c:	b480      	push	{r7}
 8014e6e:	b085      	sub	sp, #20
 8014e70:	af00      	add	r7, sp, #0
 8014e72:	6078      	str	r0, [r7, #4]
 8014e74:	6039      	str	r1, [r7, #0]
  uint16_t tmpcr1 = 0;
 8014e76:	2300      	movs	r3, #0
 8014e78:	81fb      	strh	r3, [r7, #14]
  /* Check the parameters */
  assert_param(IS_TIM_ALL_PERIPH(TIMx)); 
  assert_param(IS_TIM_COUNTER_MODE(TIM_TimeBaseInitStruct->TIM_CounterMode));
  assert_param(IS_TIM_CKD_DIV(TIM_TimeBaseInitStruct->TIM_ClockDivision));

  tmpcr1 = TIMx->CR1;  
 8014e7a:	687b      	ldr	r3, [r7, #4]
 8014e7c:	881b      	ldrh	r3, [r3, #0]
 8014e7e:	81fb      	strh	r3, [r7, #14]

  if((TIMx == TIM1) || (TIMx == TIM8)|| (TIMx == TIM2) || (TIMx == TIM3)||
 8014e80:	687b      	ldr	r3, [r7, #4]
 8014e82:	4a2e      	ldr	r2, [pc, #184]	; (8014f3c <TIM_TimeBaseInit+0xd0>)
 8014e84:	4293      	cmp	r3, r2
 8014e86:	d013      	beq.n	8014eb0 <TIM_TimeBaseInit+0x44>
 8014e88:	687b      	ldr	r3, [r7, #4]
 8014e8a:	4a2d      	ldr	r2, [pc, #180]	; (8014f40 <TIM_TimeBaseInit+0xd4>)
 8014e8c:	4293      	cmp	r3, r2
 8014e8e:	d00f      	beq.n	8014eb0 <TIM_TimeBaseInit+0x44>
 8014e90:	687b      	ldr	r3, [r7, #4]
 8014e92:	f1b3 4f80 	cmp.w	r3, #1073741824	; 0x40000000
 8014e96:	d00b      	beq.n	8014eb0 <TIM_TimeBaseInit+0x44>
 8014e98:	687b      	ldr	r3, [r7, #4]
 8014e9a:	4a2a      	ldr	r2, [pc, #168]	; (8014f44 <TIM_TimeBaseInit+0xd8>)
 8014e9c:	4293      	cmp	r3, r2
 8014e9e:	d007      	beq.n	8014eb0 <TIM_TimeBaseInit+0x44>
 8014ea0:	687b      	ldr	r3, [r7, #4]
 8014ea2:	4a29      	ldr	r2, [pc, #164]	; (8014f48 <TIM_TimeBaseInit+0xdc>)
 8014ea4:	4293      	cmp	r3, r2
 8014ea6:	d003      	beq.n	8014eb0 <TIM_TimeBaseInit+0x44>
     (TIMx == TIM4) || (TIMx == TIM5)) 
 8014ea8:	687b      	ldr	r3, [r7, #4]
 8014eaa:	4a28      	ldr	r2, [pc, #160]	; (8014f4c <TIM_TimeBaseInit+0xe0>)
 8014eac:	4293      	cmp	r3, r2
 8014eae:	d108      	bne.n	8014ec2 <TIM_TimeBaseInit+0x56>
  {
    /* Select the Counter Mode */
    tmpcr1 &= (uint16_t)(~((uint16_t)(TIM_CR1_DIR | TIM_CR1_CMS)));
 8014eb0:	89fb      	ldrh	r3, [r7, #14]
 8014eb2:	f023 0370 	bic.w	r3, r3, #112	; 0x70
 8014eb6:	81fb      	strh	r3, [r7, #14]
    tmpcr1 |= (uint32_t)TIM_TimeBaseInitStruct->TIM_CounterMode;
 8014eb8:	683b      	ldr	r3, [r7, #0]
 8014eba:	885a      	ldrh	r2, [r3, #2]
 8014ebc:	89fb      	ldrh	r3, [r7, #14]
 8014ebe:	4313      	orrs	r3, r2
 8014ec0:	81fb      	strh	r3, [r7, #14]
  }
 
  if((TIMx != TIM6) && (TIMx != TIM7))
 8014ec2:	687b      	ldr	r3, [r7, #4]
 8014ec4:	4a22      	ldr	r2, [pc, #136]	; (8014f50 <TIM_TimeBaseInit+0xe4>)
 8014ec6:	4293      	cmp	r3, r2
 8014ec8:	d00c      	beq.n	8014ee4 <TIM_TimeBaseInit+0x78>
 8014eca:	687b      	ldr	r3, [r7, #4]
 8014ecc:	4a21      	ldr	r2, [pc, #132]	; (8014f54 <TIM_TimeBaseInit+0xe8>)
 8014ece:	4293      	cmp	r3, r2
 8014ed0:	d008      	beq.n	8014ee4 <TIM_TimeBaseInit+0x78>
  {
    /* Set the clock division */
    tmpcr1 &= (uint16_t)(~((uint16_t)TIM_CR1_CKD));
 8014ed2:	89fb      	ldrh	r3, [r7, #14]
 8014ed4:	f423 7340 	bic.w	r3, r3, #768	; 0x300
 8014ed8:	81fb      	strh	r3, [r7, #14]
    tmpcr1 |= (uint32_t)TIM_TimeBaseInitStruct->TIM_ClockDivision;
 8014eda:	683b      	ldr	r3, [r7, #0]
 8014edc:	88da      	ldrh	r2, [r3, #6]
 8014ede:	89fb      	ldrh	r3, [r7, #14]
 8014ee0:	4313      	orrs	r3, r2
 8014ee2:	81fb      	strh	r3, [r7, #14]
  }

  TIMx->CR1 = tmpcr1;
 8014ee4:	687b      	ldr	r3, [r7, #4]
 8014ee6:	89fa      	ldrh	r2, [r7, #14]
 8014ee8:	801a      	strh	r2, [r3, #0]

  /* Set the Autoreload value */
  TIMx->ARR = TIM_TimeBaseInitStruct->TIM_Period ;
 8014eea:	683b      	ldr	r3, [r7, #0]
 8014eec:	889a      	ldrh	r2, [r3, #4]
 8014eee:	687b      	ldr	r3, [r7, #4]
 8014ef0:	859a      	strh	r2, [r3, #44]	; 0x2c
 
  /* Set the Prescaler value */
  TIMx->PSC = TIM_TimeBaseInitStruct->TIM_Prescaler;
 8014ef2:	683b      	ldr	r3, [r7, #0]
 8014ef4:	881a      	ldrh	r2, [r3, #0]
 8014ef6:	687b      	ldr	r3, [r7, #4]
 8014ef8:	851a      	strh	r2, [r3, #40]	; 0x28
    
  if ((TIMx == TIM1) || (TIMx == TIM8)|| (TIMx == TIM15)|| (TIMx == TIM16) || (TIMx == TIM17))  
 8014efa:	687b      	ldr	r3, [r7, #4]
 8014efc:	4a0f      	ldr	r2, [pc, #60]	; (8014f3c <TIM_TimeBaseInit+0xd0>)
 8014efe:	4293      	cmp	r3, r2
 8014f00:	d00f      	beq.n	8014f22 <TIM_TimeBaseInit+0xb6>
 8014f02:	687b      	ldr	r3, [r7, #4]
 8014f04:	4a0e      	ldr	r2, [pc, #56]	; (8014f40 <TIM_TimeBaseInit+0xd4>)
 8014f06:	4293      	cmp	r3, r2
 8014f08:	d00b      	beq.n	8014f22 <TIM_TimeBaseInit+0xb6>
 8014f0a:	687b      	ldr	r3, [r7, #4]
 8014f0c:	4a12      	ldr	r2, [pc, #72]	; (8014f58 <TIM_TimeBaseInit+0xec>)
 8014f0e:	4293      	cmp	r3, r2
 8014f10:	d007      	beq.n	8014f22 <TIM_TimeBaseInit+0xb6>
 8014f12:	687b      	ldr	r3, [r7, #4]
 8014f14:	4a11      	ldr	r2, [pc, #68]	; (8014f5c <TIM_TimeBaseInit+0xf0>)
 8014f16:	4293      	cmp	r3, r2
 8014f18:	d003      	beq.n	8014f22 <TIM_TimeBaseInit+0xb6>
 8014f1a:	687b      	ldr	r3, [r7, #4]
 8014f1c:	4a10      	ldr	r2, [pc, #64]	; (8014f60 <TIM_TimeBaseInit+0xf4>)
 8014f1e:	4293      	cmp	r3, r2
 8014f20:	d104      	bne.n	8014f2c <TIM_TimeBaseInit+0xc0>
  {
    /* Set the Repetition Counter value */
    TIMx->RCR = TIM_TimeBaseInitStruct->TIM_RepetitionCounter;
 8014f22:	683b      	ldr	r3, [r7, #0]
 8014f24:	7a1b      	ldrb	r3, [r3, #8]
 8014f26:	b29a      	uxth	r2, r3
 8014f28:	687b      	ldr	r3, [r7, #4]
 8014f2a:	861a      	strh	r2, [r3, #48]	; 0x30
  }

  /* Generate an update event to reload the Prescaler and the Repetition counter
     values immediately */
  TIMx->EGR = TIM_PSCReloadMode_Immediate;           
 8014f2c:	687b      	ldr	r3, [r7, #4]
 8014f2e:	2201      	movs	r2, #1
 8014f30:	829a      	strh	r2, [r3, #20]
}
 8014f32:	bf00      	nop
 8014f34:	3714      	adds	r7, #20
 8014f36:	46bd      	mov	sp, r7
 8014f38:	bc80      	pop	{r7}
 8014f3a:	4770      	bx	lr
 8014f3c:	40012c00 	.word	0x40012c00
 8014f40:	40013400 	.word	0x40013400
 8014f44:	40000400 	.word	0x40000400
 8014f48:	40000800 	.word	0x40000800
 8014f4c:	40000c00 	.word	0x40000c00
 8014f50:	40001000 	.word	0x40001000
 8014f54:	40001400 	.word	0x40001400
 8014f58:	40014000 	.word	0x40014000
 8014f5c:	40014400 	.word	0x40014400
 8014f60:	40014800 	.word	0x40014800

08014f64 <TIM_Cmd>:
  * @param  NewState: new state of the TIMx peripheral.
  *   This parameter can be: ENABLE or DISABLE.
  * @retval None
  */
void TIM_Cmd(TIM_TypeDef* TIMx, FunctionalState NewState)
{
 8014f64:	b480      	push	{r7}
 8014f66:	b083      	sub	sp, #12
 8014f68:	af00      	add	r7, sp, #0
 8014f6a:	6078      	str	r0, [r7, #4]
 8014f6c:	460b      	mov	r3, r1
 8014f6e:	70fb      	strb	r3, [r7, #3]
  /* Check the parameters */
  assert_param(IS_TIM_ALL_PERIPH(TIMx));
  assert_param(IS_FUNCTIONAL_STATE(NewState));
  
  if (NewState != DISABLE)
 8014f70:	78fb      	ldrb	r3, [r7, #3]
 8014f72:	2b00      	cmp	r3, #0
 8014f74:	d008      	beq.n	8014f88 <TIM_Cmd+0x24>
  {
    /* Enable the TIM Counter */
    TIMx->CR1 |= TIM_CR1_CEN;
 8014f76:	687b      	ldr	r3, [r7, #4]
 8014f78:	881b      	ldrh	r3, [r3, #0]
 8014f7a:	b29b      	uxth	r3, r3
 8014f7c:	f043 0301 	orr.w	r3, r3, #1
 8014f80:	b29a      	uxth	r2, r3
 8014f82:	687b      	ldr	r3, [r7, #4]
 8014f84:	801a      	strh	r2, [r3, #0]
  else
  {
    /* Disable the TIM Counter */
    TIMx->CR1 &= (uint16_t)(~((uint16_t)TIM_CR1_CEN));
  }
}
 8014f86:	e007      	b.n	8014f98 <TIM_Cmd+0x34>
    TIMx->CR1 &= (uint16_t)(~((uint16_t)TIM_CR1_CEN));
 8014f88:	687b      	ldr	r3, [r7, #4]
 8014f8a:	881b      	ldrh	r3, [r3, #0]
 8014f8c:	b29b      	uxth	r3, r3
 8014f8e:	f023 0301 	bic.w	r3, r3, #1
 8014f92:	b29a      	uxth	r2, r3
 8014f94:	687b      	ldr	r3, [r7, #4]
 8014f96:	801a      	strh	r2, [r3, #0]
}
 8014f98:	bf00      	nop
 8014f9a:	370c      	adds	r7, #12
 8014f9c:	46bd      	mov	sp, r7
 8014f9e:	bc80      	pop	{r7}
 8014fa0:	4770      	bx	lr

08014fa2 <TIM_ITConfig>:
  * @param  NewState: new state of the TIM interrupts.
  *   This parameter can be: ENABLE or DISABLE.
  * @retval None
  */
void TIM_ITConfig(TIM_TypeDef* TIMx, uint16_t TIM_IT, FunctionalState NewState)
{  
 8014fa2:	b480      	push	{r7}
 8014fa4:	b083      	sub	sp, #12
 8014fa6:	af00      	add	r7, sp, #0
 8014fa8:	6078      	str	r0, [r7, #4]
 8014faa:	460b      	mov	r3, r1
 8014fac:	807b      	strh	r3, [r7, #2]
 8014fae:	4613      	mov	r3, r2
 8014fb0:	707b      	strb	r3, [r7, #1]
  /* Check the parameters */
  assert_param(IS_TIM_ALL_PERIPH(TIMx));
  assert_param(IS_TIM_IT(TIM_IT));
  assert_param(IS_FUNCTIONAL_STATE(NewState));
  
  if (NewState != DISABLE)
 8014fb2:	787b      	ldrb	r3, [r7, #1]
 8014fb4:	2b00      	cmp	r3, #0
 8014fb6:	d008      	beq.n	8014fca <TIM_ITConfig+0x28>
  {
    /* Enable the Interrupt sources */
    TIMx->DIER |= TIM_IT;
 8014fb8:	687b      	ldr	r3, [r7, #4]
 8014fba:	899b      	ldrh	r3, [r3, #12]
 8014fbc:	b29a      	uxth	r2, r3
 8014fbe:	887b      	ldrh	r3, [r7, #2]
 8014fc0:	4313      	orrs	r3, r2
 8014fc2:	b29a      	uxth	r2, r3
 8014fc4:	687b      	ldr	r3, [r7, #4]
 8014fc6:	819a      	strh	r2, [r3, #12]
  else
  {
    /* Disable the Interrupt sources */
    TIMx->DIER &= (uint16_t)~TIM_IT;
  }
}
 8014fc8:	e009      	b.n	8014fde <TIM_ITConfig+0x3c>
    TIMx->DIER &= (uint16_t)~TIM_IT;
 8014fca:	687b      	ldr	r3, [r7, #4]
 8014fcc:	899b      	ldrh	r3, [r3, #12]
 8014fce:	b29a      	uxth	r2, r3
 8014fd0:	887b      	ldrh	r3, [r7, #2]
 8014fd2:	43db      	mvns	r3, r3
 8014fd4:	b29b      	uxth	r3, r3
 8014fd6:	4013      	ands	r3, r2
 8014fd8:	b29a      	uxth	r2, r3
 8014fda:	687b      	ldr	r3, [r7, #4]
 8014fdc:	819a      	strh	r2, [r3, #12]
}
 8014fde:	bf00      	nop
 8014fe0:	370c      	adds	r7, #12
 8014fe2:	46bd      	mov	sp, r7
 8014fe4:	bc80      	pop	{r7}
 8014fe6:	4770      	bx	lr

08014fe8 <TIM_GetITStatus>:
  *   - TIM_IT_Break is used only with TIM1, TIM8 and TIM15. 
  *   - TIM_IT_COM is used only with TIM1, TIM8, TIM15, TIM16 and TIM17.  
  * @retval The new state of the TIM_IT(SET or RESET).
  */
ITStatus TIM_GetITStatus(TIM_TypeDef* TIMx, uint16_t TIM_IT)
{
 8014fe8:	b480      	push	{r7}
 8014fea:	b085      	sub	sp, #20
 8014fec:	af00      	add	r7, sp, #0
 8014fee:	6078      	str	r0, [r7, #4]
 8014ff0:	460b      	mov	r3, r1
 8014ff2:	807b      	strh	r3, [r7, #2]
  ITStatus bitstatus = RESET;  
 8014ff4:	2300      	movs	r3, #0
 8014ff6:	73fb      	strb	r3, [r7, #15]
  uint16_t itstatus = 0x0, itenable = 0x0;
 8014ff8:	2300      	movs	r3, #0
 8014ffa:	81bb      	strh	r3, [r7, #12]
 8014ffc:	2300      	movs	r3, #0
 8014ffe:	817b      	strh	r3, [r7, #10]
  /* Check the parameters */
  assert_param(IS_TIM_ALL_PERIPH(TIMx));
  assert_param(IS_TIM_GET_IT(TIM_IT));
   
  itstatus = TIMx->SR & TIM_IT;
 8015000:	687b      	ldr	r3, [r7, #4]
 8015002:	8a1b      	ldrh	r3, [r3, #16]
 8015004:	b29a      	uxth	r2, r3
 8015006:	887b      	ldrh	r3, [r7, #2]
 8015008:	4013      	ands	r3, r2
 801500a:	81bb      	strh	r3, [r7, #12]
  
  itenable = TIMx->DIER & TIM_IT;
 801500c:	687b      	ldr	r3, [r7, #4]
 801500e:	899b      	ldrh	r3, [r3, #12]
 8015010:	b29a      	uxth	r2, r3
 8015012:	887b      	ldrh	r3, [r7, #2]
 8015014:	4013      	ands	r3, r2
 8015016:	817b      	strh	r3, [r7, #10]
  if ((itstatus != (uint16_t)RESET) && (itenable != (uint16_t)RESET))
 8015018:	89bb      	ldrh	r3, [r7, #12]
 801501a:	2b00      	cmp	r3, #0
 801501c:	d005      	beq.n	801502a <TIM_GetITStatus+0x42>
 801501e:	897b      	ldrh	r3, [r7, #10]
 8015020:	2b00      	cmp	r3, #0
 8015022:	d002      	beq.n	801502a <TIM_GetITStatus+0x42>
  {
    bitstatus = SET;
 8015024:	2301      	movs	r3, #1
 8015026:	73fb      	strb	r3, [r7, #15]
 8015028:	e001      	b.n	801502e <TIM_GetITStatus+0x46>
  }
  else
  {
    bitstatus = RESET;
 801502a:	2300      	movs	r3, #0
 801502c:	73fb      	strb	r3, [r7, #15]
  }
  return bitstatus;
 801502e:	7bfb      	ldrb	r3, [r7, #15]
}
 8015030:	4618      	mov	r0, r3
 8015032:	3714      	adds	r7, #20
 8015034:	46bd      	mov	sp, r7
 8015036:	bc80      	pop	{r7}
 8015038:	4770      	bx	lr

0801503a <TIM_ClearITPendingBit>:
  *   - TIM_IT_Break is used only with TIM1, TIM8 and TIM15. 
  *   - TIM_IT_COM is used only with TIM1, TIM8, TIM15, TIM16 and TIM17.    
  * @retval None
  */
void TIM_ClearITPendingBit(TIM_TypeDef* TIMx, uint16_t TIM_IT)
{
 801503a:	b480      	push	{r7}
 801503c:	b083      	sub	sp, #12
 801503e:	af00      	add	r7, sp, #0
 8015040:	6078      	str	r0, [r7, #4]
 8015042:	460b      	mov	r3, r1
 8015044:	807b      	strh	r3, [r7, #2]
  /* Check the parameters */
  assert_param(IS_TIM_ALL_PERIPH(TIMx));
  assert_param(IS_TIM_IT(TIM_IT));
  /* Clear the IT pending Bit */
  TIMx->SR = (uint16_t)~TIM_IT;
 8015046:	887b      	ldrh	r3, [r7, #2]
 8015048:	43db      	mvns	r3, r3
 801504a:	b29a      	uxth	r2, r3
 801504c:	687b      	ldr	r3, [r7, #4]
 801504e:	821a      	strh	r2, [r3, #16]
}
 8015050:	bf00      	nop
 8015052:	370c      	adds	r7, #12
 8015054:	46bd      	mov	sp, r7
 8015056:	bc80      	pop	{r7}
 8015058:	4770      	bx	lr
	...

0801505c <USART_DeInit>:
  *   This parameter can be one of the following values: 
  *      USART1, USART2, USART3, UART4 or UART5.
  * @retval None
  */
void USART_DeInit(USART_TypeDef* USARTx)
{
 801505c:	b580      	push	{r7, lr}
 801505e:	b082      	sub	sp, #8
 8015060:	af00      	add	r7, sp, #0
 8015062:	6078      	str	r0, [r7, #4]
  /* Check the parameters */
  assert_param(IS_USART_ALL_PERIPH(USARTx));

  if (USARTx == USART1)
 8015064:	687b      	ldr	r3, [r7, #4]
 8015066:	4a26      	ldr	r2, [pc, #152]	; (8015100 <USART_DeInit+0xa4>)
 8015068:	4293      	cmp	r3, r2
 801506a:	d10a      	bne.n	8015082 <USART_DeInit+0x26>
  {
    RCC_APB2PeriphResetCmd(RCC_APB2Periph_USART1, ENABLE);
 801506c:	2101      	movs	r1, #1
 801506e:	f44f 4080 	mov.w	r0, #16384	; 0x4000
 8015072:	f7ff fd6f 	bl	8014b54 <RCC_APB2PeriphResetCmd>
    RCC_APB2PeriphResetCmd(RCC_APB2Periph_USART1, DISABLE);
 8015076:	2100      	movs	r1, #0
 8015078:	f44f 4080 	mov.w	r0, #16384	; 0x4000
 801507c:	f7ff fd6a 	bl	8014b54 <RCC_APB2PeriphResetCmd>
    { 
      RCC_APB1PeriphResetCmd(RCC_APB1Periph_UART5, ENABLE);
      RCC_APB1PeriphResetCmd(RCC_APB1Periph_UART5, DISABLE);
    }
  }
}
 8015080:	e03a      	b.n	80150f8 <USART_DeInit+0x9c>
  else if (USARTx == USART2)
 8015082:	687b      	ldr	r3, [r7, #4]
 8015084:	4a1f      	ldr	r2, [pc, #124]	; (8015104 <USART_DeInit+0xa8>)
 8015086:	4293      	cmp	r3, r2
 8015088:	d10a      	bne.n	80150a0 <USART_DeInit+0x44>
    RCC_APB1PeriphResetCmd(RCC_APB1Periph_USART2, ENABLE);
 801508a:	2101      	movs	r1, #1
 801508c:	f44f 3000 	mov.w	r0, #131072	; 0x20000
 8015090:	f7ff fd7e 	bl	8014b90 <RCC_APB1PeriphResetCmd>
    RCC_APB1PeriphResetCmd(RCC_APB1Periph_USART2, DISABLE);
 8015094:	2100      	movs	r1, #0
 8015096:	f44f 3000 	mov.w	r0, #131072	; 0x20000
 801509a:	f7ff fd79 	bl	8014b90 <RCC_APB1PeriphResetCmd>
}
 801509e:	e02b      	b.n	80150f8 <USART_DeInit+0x9c>
  else if (USARTx == USART3)
 80150a0:	687b      	ldr	r3, [r7, #4]
 80150a2:	4a19      	ldr	r2, [pc, #100]	; (8015108 <USART_DeInit+0xac>)
 80150a4:	4293      	cmp	r3, r2
 80150a6:	d10a      	bne.n	80150be <USART_DeInit+0x62>
    RCC_APB1PeriphResetCmd(RCC_APB1Periph_USART3, ENABLE);
 80150a8:	2101      	movs	r1, #1
 80150aa:	f44f 2080 	mov.w	r0, #262144	; 0x40000
 80150ae:	f7ff fd6f 	bl	8014b90 <RCC_APB1PeriphResetCmd>
    RCC_APB1PeriphResetCmd(RCC_APB1Periph_USART3, DISABLE);
 80150b2:	2100      	movs	r1, #0
 80150b4:	f44f 2080 	mov.w	r0, #262144	; 0x40000
 80150b8:	f7ff fd6a 	bl	8014b90 <RCC_APB1PeriphResetCmd>
}
 80150bc:	e01c      	b.n	80150f8 <USART_DeInit+0x9c>
  else if (USARTx == UART4)
 80150be:	687b      	ldr	r3, [r7, #4]
 80150c0:	4a12      	ldr	r2, [pc, #72]	; (801510c <USART_DeInit+0xb0>)
 80150c2:	4293      	cmp	r3, r2
 80150c4:	d10a      	bne.n	80150dc <USART_DeInit+0x80>
    RCC_APB1PeriphResetCmd(RCC_APB1Periph_UART4, ENABLE);
 80150c6:	2101      	movs	r1, #1
 80150c8:	f44f 2000 	mov.w	r0, #524288	; 0x80000
 80150cc:	f7ff fd60 	bl	8014b90 <RCC_APB1PeriphResetCmd>
    RCC_APB1PeriphResetCmd(RCC_APB1Periph_UART4, DISABLE);
 80150d0:	2100      	movs	r1, #0
 80150d2:	f44f 2000 	mov.w	r0, #524288	; 0x80000
 80150d6:	f7ff fd5b 	bl	8014b90 <RCC_APB1PeriphResetCmd>
}
 80150da:	e00d      	b.n	80150f8 <USART_DeInit+0x9c>
    if (USARTx == UART5)
 80150dc:	687b      	ldr	r3, [r7, #4]
 80150de:	4a0c      	ldr	r2, [pc, #48]	; (8015110 <USART_DeInit+0xb4>)
 80150e0:	4293      	cmp	r3, r2
 80150e2:	d109      	bne.n	80150f8 <USART_DeInit+0x9c>
      RCC_APB1PeriphResetCmd(RCC_APB1Periph_UART5, ENABLE);
 80150e4:	2101      	movs	r1, #1
 80150e6:	f44f 1080 	mov.w	r0, #1048576	; 0x100000
 80150ea:	f7ff fd51 	bl	8014b90 <RCC_APB1PeriphResetCmd>
      RCC_APB1PeriphResetCmd(RCC_APB1Periph_UART5, DISABLE);
 80150ee:	2100      	movs	r1, #0
 80150f0:	f44f 1080 	mov.w	r0, #1048576	; 0x100000
 80150f4:	f7ff fd4c 	bl	8014b90 <RCC_APB1PeriphResetCmd>
}
 80150f8:	bf00      	nop
 80150fa:	3708      	adds	r7, #8
 80150fc:	46bd      	mov	sp, r7
 80150fe:	bd80      	pop	{r7, pc}
 8015100:	40013800 	.word	0x40013800
 8015104:	40004400 	.word	0x40004400
 8015108:	40004800 	.word	0x40004800
 801510c:	40004c00 	.word	0x40004c00
 8015110:	40005000 	.word	0x40005000

08015114 <USART_Init>:
  *         that contains the configuration information for the specified USART 
  *         peripheral.
  * @retval None
  */
void USART_Init(USART_TypeDef* USARTx, USART_InitTypeDef* USART_InitStruct)
{
 8015114:	b580      	push	{r7, lr}
 8015116:	b08c      	sub	sp, #48	; 0x30
 8015118:	af00      	add	r7, sp, #0
 801511a:	6078      	str	r0, [r7, #4]
 801511c:	6039      	str	r1, [r7, #0]
  uint32_t tmpreg = 0x00, apbclock = 0x00;
 801511e:	2300      	movs	r3, #0
 8015120:	62fb      	str	r3, [r7, #44]	; 0x2c
 8015122:	2300      	movs	r3, #0
 8015124:	62bb      	str	r3, [r7, #40]	; 0x28
  uint32_t integerdivider = 0x00;
 8015126:	2300      	movs	r3, #0
 8015128:	627b      	str	r3, [r7, #36]	; 0x24
  uint32_t fractionaldivider = 0x00;
 801512a:	2300      	movs	r3, #0
 801512c:	623b      	str	r3, [r7, #32]
  uint32_t usartxbase = 0;
 801512e:	2300      	movs	r3, #0
 8015130:	61fb      	str	r3, [r7, #28]
  if (USART_InitStruct->USART_HardwareFlowControl != USART_HardwareFlowControl_None)
  {
    assert_param(IS_USART_123_PERIPH(USARTx));
  }

  usartxbase = (uint32_t)USARTx;
 8015132:	687b      	ldr	r3, [r7, #4]
 8015134:	61fb      	str	r3, [r7, #28]

/*---------------------------- USART CR2 Configuration -----------------------*/
  tmpreg = USARTx->CR2;
 8015136:	687b      	ldr	r3, [r7, #4]
 8015138:	8a1b      	ldrh	r3, [r3, #16]
 801513a:	b29b      	uxth	r3, r3
 801513c:	62fb      	str	r3, [r7, #44]	; 0x2c
  /* Clear STOP[13:12] bits */
  tmpreg &= CR2_STOP_CLEAR_Mask;
 801513e:	6afa      	ldr	r2, [r7, #44]	; 0x2c
 8015140:	f64c 73ff 	movw	r3, #53247	; 0xcfff
 8015144:	4013      	ands	r3, r2
 8015146:	62fb      	str	r3, [r7, #44]	; 0x2c
  /* Configure the USART Stop Bits, Clock, CPOL, CPHA and LastBit ------------*/
  /* Set STOP[13:12] bits according to USART_StopBits value */
  tmpreg |= (uint32_t)USART_InitStruct->USART_StopBits;
 8015148:	683b      	ldr	r3, [r7, #0]
 801514a:	88db      	ldrh	r3, [r3, #6]
 801514c:	461a      	mov	r2, r3
 801514e:	6afb      	ldr	r3, [r7, #44]	; 0x2c
 8015150:	4313      	orrs	r3, r2
 8015152:	62fb      	str	r3, [r7, #44]	; 0x2c
  
  /* Write to USART CR2 */
  USARTx->CR2 = (uint16_t)tmpreg;
 8015154:	6afb      	ldr	r3, [r7, #44]	; 0x2c
 8015156:	b29a      	uxth	r2, r3
 8015158:	687b      	ldr	r3, [r7, #4]
 801515a:	821a      	strh	r2, [r3, #16]

/*---------------------------- USART CR1 Configuration -----------------------*/
  tmpreg = USARTx->CR1;
 801515c:	687b      	ldr	r3, [r7, #4]
 801515e:	899b      	ldrh	r3, [r3, #12]
 8015160:	b29b      	uxth	r3, r3
 8015162:	62fb      	str	r3, [r7, #44]	; 0x2c
  /* Clear M, PCE, PS, TE and RE bits */
  tmpreg &= CR1_CLEAR_Mask;
 8015164:	6afa      	ldr	r2, [r7, #44]	; 0x2c
 8015166:	f64e 13f3 	movw	r3, #59891	; 0xe9f3
 801516a:	4013      	ands	r3, r2
 801516c:	62fb      	str	r3, [r7, #44]	; 0x2c
  /* Configure the USART Word Length, Parity and mode ----------------------- */
  /* Set the M bits according to USART_WordLength value */
  /* Set PCE and PS bits according to USART_Parity value */
  /* Set TE and RE bits according to USART_Mode value */
  tmpreg |= (uint32_t)USART_InitStruct->USART_WordLength | USART_InitStruct->USART_Parity |
 801516e:	683b      	ldr	r3, [r7, #0]
 8015170:	889a      	ldrh	r2, [r3, #4]
 8015172:	683b      	ldr	r3, [r7, #0]
 8015174:	891b      	ldrh	r3, [r3, #8]
 8015176:	4313      	orrs	r3, r2
 8015178:	b29a      	uxth	r2, r3
            USART_InitStruct->USART_Mode;
 801517a:	683b      	ldr	r3, [r7, #0]
 801517c:	895b      	ldrh	r3, [r3, #10]
  tmpreg |= (uint32_t)USART_InitStruct->USART_WordLength | USART_InitStruct->USART_Parity |
 801517e:	4313      	orrs	r3, r2
 8015180:	b29b      	uxth	r3, r3
 8015182:	461a      	mov	r2, r3
 8015184:	6afb      	ldr	r3, [r7, #44]	; 0x2c
 8015186:	4313      	orrs	r3, r2
 8015188:	62fb      	str	r3, [r7, #44]	; 0x2c
  /* Write to USART CR1 */
  USARTx->CR1 = (uint16_t)tmpreg;
 801518a:	6afb      	ldr	r3, [r7, #44]	; 0x2c
 801518c:	b29a      	uxth	r2, r3
 801518e:	687b      	ldr	r3, [r7, #4]
 8015190:	819a      	strh	r2, [r3, #12]

/*---------------------------- USART CR3 Configuration -----------------------*/  
  tmpreg = USARTx->CR3;
 8015192:	687b      	ldr	r3, [r7, #4]
 8015194:	8a9b      	ldrh	r3, [r3, #20]
 8015196:	b29b      	uxth	r3, r3
 8015198:	62fb      	str	r3, [r7, #44]	; 0x2c
  /* Clear CTSE and RTSE bits */
  tmpreg &= CR3_CLEAR_Mask;
 801519a:	6afa      	ldr	r2, [r7, #44]	; 0x2c
 801519c:	f64f 43ff 	movw	r3, #64767	; 0xfcff
 80151a0:	4013      	ands	r3, r2
 80151a2:	62fb      	str	r3, [r7, #44]	; 0x2c
  /* Configure the USART HFC -------------------------------------------------*/
  /* Set CTSE and RTSE bits according to USART_HardwareFlowControl value */
  tmpreg |= USART_InitStruct->USART_HardwareFlowControl;
 80151a4:	683b      	ldr	r3, [r7, #0]
 80151a6:	899b      	ldrh	r3, [r3, #12]
 80151a8:	461a      	mov	r2, r3
 80151aa:	6afb      	ldr	r3, [r7, #44]	; 0x2c
 80151ac:	4313      	orrs	r3, r2
 80151ae:	62fb      	str	r3, [r7, #44]	; 0x2c
  /* Write to USART CR3 */
  USARTx->CR3 = (uint16_t)tmpreg;
 80151b0:	6afb      	ldr	r3, [r7, #44]	; 0x2c
 80151b2:	b29a      	uxth	r2, r3
 80151b4:	687b      	ldr	r3, [r7, #4]
 80151b6:	829a      	strh	r2, [r3, #20]

/*---------------------------- USART BRR Configuration -----------------------*/
  /* Configure the USART Baud Rate -------------------------------------------*/
  RCC_GetClocksFreq(&RCC_ClocksStatus);
 80151b8:	f107 0308 	add.w	r3, r7, #8
 80151bc:	4618      	mov	r0, r3
 80151be:	f7ff fbdd 	bl	801497c <RCC_GetClocksFreq>
  if (usartxbase == USART1_BASE)
 80151c2:	69fb      	ldr	r3, [r7, #28]
 80151c4:	4a2e      	ldr	r2, [pc, #184]	; (8015280 <USART_Init+0x16c>)
 80151c6:	4293      	cmp	r3, r2
 80151c8:	d102      	bne.n	80151d0 <USART_Init+0xbc>
  {
    apbclock = RCC_ClocksStatus.PCLK2_Frequency;
 80151ca:	697b      	ldr	r3, [r7, #20]
 80151cc:	62bb      	str	r3, [r7, #40]	; 0x28
 80151ce:	e001      	b.n	80151d4 <USART_Init+0xc0>
  }
  else
  {
    apbclock = RCC_ClocksStatus.PCLK1_Frequency;
 80151d0:	693b      	ldr	r3, [r7, #16]
 80151d2:	62bb      	str	r3, [r7, #40]	; 0x28
  }
  
  /* Determine the integer part */
  if ((USARTx->CR1 & CR1_OVER8_Set) != 0)
 80151d4:	687b      	ldr	r3, [r7, #4]
 80151d6:	899b      	ldrh	r3, [r3, #12]
 80151d8:	b29b      	uxth	r3, r3
 80151da:	b21b      	sxth	r3, r3
 80151dc:	2b00      	cmp	r3, #0
 80151de:	da0c      	bge.n	80151fa <USART_Init+0xe6>
  {
    /* Integer part computing in case Oversampling mode is 8 Samples */
    integerdivider = ((25 * apbclock) / (2 * (USART_InitStruct->USART_BaudRate)));    
 80151e0:	6aba      	ldr	r2, [r7, #40]	; 0x28
 80151e2:	4613      	mov	r3, r2
 80151e4:	009b      	lsls	r3, r3, #2
 80151e6:	4413      	add	r3, r2
 80151e8:	009a      	lsls	r2, r3, #2
 80151ea:	441a      	add	r2, r3
 80151ec:	683b      	ldr	r3, [r7, #0]
 80151ee:	681b      	ldr	r3, [r3, #0]
 80151f0:	005b      	lsls	r3, r3, #1
 80151f2:	fbb2 f3f3 	udiv	r3, r2, r3
 80151f6:	627b      	str	r3, [r7, #36]	; 0x24
 80151f8:	e00b      	b.n	8015212 <USART_Init+0xfe>
  }
  else /* if ((USARTx->CR1 & CR1_OVER8_Set) == 0) */
  {
    /* Integer part computing in case Oversampling mode is 16 Samples */
    integerdivider = ((25 * apbclock) / (4 * (USART_InitStruct->USART_BaudRate)));    
 80151fa:	6aba      	ldr	r2, [r7, #40]	; 0x28
 80151fc:	4613      	mov	r3, r2
 80151fe:	009b      	lsls	r3, r3, #2
 8015200:	4413      	add	r3, r2
 8015202:	009a      	lsls	r2, r3, #2
 8015204:	441a      	add	r2, r3
 8015206:	683b      	ldr	r3, [r7, #0]
 8015208:	681b      	ldr	r3, [r3, #0]
 801520a:	009b      	lsls	r3, r3, #2
 801520c:	fbb2 f3f3 	udiv	r3, r2, r3
 8015210:	627b      	str	r3, [r7, #36]	; 0x24
  }
  tmpreg = (integerdivider / 100) << 4;
 8015212:	6a7b      	ldr	r3, [r7, #36]	; 0x24
 8015214:	4a1b      	ldr	r2, [pc, #108]	; (8015284 <USART_Init+0x170>)
 8015216:	fba2 2303 	umull	r2, r3, r2, r3
 801521a:	095b      	lsrs	r3, r3, #5
 801521c:	011b      	lsls	r3, r3, #4
 801521e:	62fb      	str	r3, [r7, #44]	; 0x2c

  /* Determine the fractional part */
  fractionaldivider = integerdivider - (100 * (tmpreg >> 4));
 8015220:	6afb      	ldr	r3, [r7, #44]	; 0x2c
 8015222:	091b      	lsrs	r3, r3, #4
 8015224:	2264      	movs	r2, #100	; 0x64
 8015226:	fb02 f303 	mul.w	r3, r2, r3
 801522a:	6a7a      	ldr	r2, [r7, #36]	; 0x24
 801522c:	1ad3      	subs	r3, r2, r3
 801522e:	623b      	str	r3, [r7, #32]

  /* Implement the fractional part in the register */
  if ((USARTx->CR1 & CR1_OVER8_Set) != 0)
 8015230:	687b      	ldr	r3, [r7, #4]
 8015232:	899b      	ldrh	r3, [r3, #12]
 8015234:	b29b      	uxth	r3, r3
 8015236:	b21b      	sxth	r3, r3
 8015238:	2b00      	cmp	r3, #0
 801523a:	da0c      	bge.n	8015256 <USART_Init+0x142>
  {
    tmpreg |= ((((fractionaldivider * 8) + 50) / 100)) & ((uint8_t)0x07);
 801523c:	6a3b      	ldr	r3, [r7, #32]
 801523e:	00db      	lsls	r3, r3, #3
 8015240:	3332      	adds	r3, #50	; 0x32
 8015242:	4a10      	ldr	r2, [pc, #64]	; (8015284 <USART_Init+0x170>)
 8015244:	fba2 2303 	umull	r2, r3, r2, r3
 8015248:	095b      	lsrs	r3, r3, #5
 801524a:	f003 0307 	and.w	r3, r3, #7
 801524e:	6afa      	ldr	r2, [r7, #44]	; 0x2c
 8015250:	4313      	orrs	r3, r2
 8015252:	62fb      	str	r3, [r7, #44]	; 0x2c
 8015254:	e00b      	b.n	801526e <USART_Init+0x15a>
  }
  else /* if ((USARTx->CR1 & CR1_OVER8_Set) == 0) */
  {
    tmpreg |= ((((fractionaldivider * 16) + 50) / 100)) & ((uint8_t)0x0F);
 8015256:	6a3b      	ldr	r3, [r7, #32]
 8015258:	011b      	lsls	r3, r3, #4
 801525a:	3332      	adds	r3, #50	; 0x32
 801525c:	4a09      	ldr	r2, [pc, #36]	; (8015284 <USART_Init+0x170>)
 801525e:	fba2 2303 	umull	r2, r3, r2, r3
 8015262:	095b      	lsrs	r3, r3, #5
 8015264:	f003 030f 	and.w	r3, r3, #15
 8015268:	6afa      	ldr	r2, [r7, #44]	; 0x2c
 801526a:	4313      	orrs	r3, r2
 801526c:	62fb      	str	r3, [r7, #44]	; 0x2c
  }
  
  /* Write to USART BRR */
  USARTx->BRR = (uint16_t)tmpreg;
 801526e:	6afb      	ldr	r3, [r7, #44]	; 0x2c
 8015270:	b29a      	uxth	r2, r3
 8015272:	687b      	ldr	r3, [r7, #4]
 8015274:	811a      	strh	r2, [r3, #8]
}
 8015276:	bf00      	nop
 8015278:	3730      	adds	r7, #48	; 0x30
 801527a:	46bd      	mov	sp, r7
 801527c:	bd80      	pop	{r7, pc}
 801527e:	bf00      	nop
 8015280:	40013800 	.word	0x40013800
 8015284:	51eb851f 	.word	0x51eb851f

08015288 <USART_Cmd>:
  * @param  NewState: new state of the USARTx peripheral.
  *         This parameter can be: ENABLE or DISABLE.
  * @retval None
  */
void USART_Cmd(USART_TypeDef* USARTx, FunctionalState NewState)
{
 8015288:	b480      	push	{r7}
 801528a:	b083      	sub	sp, #12
 801528c:	af00      	add	r7, sp, #0
 801528e:	6078      	str	r0, [r7, #4]
 8015290:	460b      	mov	r3, r1
 8015292:	70fb      	strb	r3, [r7, #3]
  /* Check the parameters */
  assert_param(IS_USART_ALL_PERIPH(USARTx));
  assert_param(IS_FUNCTIONAL_STATE(NewState));
  
  if (NewState != DISABLE)
 8015294:	78fb      	ldrb	r3, [r7, #3]
 8015296:	2b00      	cmp	r3, #0
 8015298:	d008      	beq.n	80152ac <USART_Cmd+0x24>
  {
    /* Enable the selected USART by setting the UE bit in the CR1 register */
    USARTx->CR1 |= CR1_UE_Set;
 801529a:	687b      	ldr	r3, [r7, #4]
 801529c:	899b      	ldrh	r3, [r3, #12]
 801529e:	b29b      	uxth	r3, r3
 80152a0:	f443 5300 	orr.w	r3, r3, #8192	; 0x2000
 80152a4:	b29a      	uxth	r2, r3
 80152a6:	687b      	ldr	r3, [r7, #4]
 80152a8:	819a      	strh	r2, [r3, #12]
  else
  {
    /* Disable the selected USART by clearing the UE bit in the CR1 register */
    USARTx->CR1 &= CR1_UE_Reset;
  }
}
 80152aa:	e007      	b.n	80152bc <USART_Cmd+0x34>
    USARTx->CR1 &= CR1_UE_Reset;
 80152ac:	687b      	ldr	r3, [r7, #4]
 80152ae:	899b      	ldrh	r3, [r3, #12]
 80152b0:	b29b      	uxth	r3, r3
 80152b2:	f423 5300 	bic.w	r3, r3, #8192	; 0x2000
 80152b6:	b29a      	uxth	r2, r3
 80152b8:	687b      	ldr	r3, [r7, #4]
 80152ba:	819a      	strh	r2, [r3, #12]
}
 80152bc:	bf00      	nop
 80152be:	370c      	adds	r7, #12
 80152c0:	46bd      	mov	sp, r7
 80152c2:	bc80      	pop	{r7}
 80152c4:	4770      	bx	lr

080152c6 <USART_ITConfig>:
  * @param  NewState: new state of the specified USARTx interrupts.
  *   This parameter can be: ENABLE or DISABLE.
  * @retval None
  */
void USART_ITConfig(USART_TypeDef* USARTx, uint16_t USART_IT, FunctionalState NewState)
{
 80152c6:	b480      	push	{r7}
 80152c8:	b087      	sub	sp, #28
 80152ca:	af00      	add	r7, sp, #0
 80152cc:	6078      	str	r0, [r7, #4]
 80152ce:	460b      	mov	r3, r1
 80152d0:	807b      	strh	r3, [r7, #2]
 80152d2:	4613      	mov	r3, r2
 80152d4:	707b      	strb	r3, [r7, #1]
  uint32_t usartreg = 0x00, itpos = 0x00, itmask = 0x00;
 80152d6:	2300      	movs	r3, #0
 80152d8:	613b      	str	r3, [r7, #16]
 80152da:	2300      	movs	r3, #0
 80152dc:	60fb      	str	r3, [r7, #12]
 80152de:	2300      	movs	r3, #0
 80152e0:	60bb      	str	r3, [r7, #8]
  uint32_t usartxbase = 0x00;
 80152e2:	2300      	movs	r3, #0
 80152e4:	617b      	str	r3, [r7, #20]
  if (USART_IT == USART_IT_CTS)
  {
    assert_param(IS_USART_123_PERIPH(USARTx));
  }   
  
  usartxbase = (uint32_t)USARTx;
 80152e6:	687b      	ldr	r3, [r7, #4]
 80152e8:	617b      	str	r3, [r7, #20]

  /* Get the USART register index */
  usartreg = (((uint8_t)USART_IT) >> 0x05);
 80152ea:	887b      	ldrh	r3, [r7, #2]
 80152ec:	b2db      	uxtb	r3, r3
 80152ee:	095b      	lsrs	r3, r3, #5
 80152f0:	b2db      	uxtb	r3, r3
 80152f2:	613b      	str	r3, [r7, #16]

  /* Get the interrupt position */
  itpos = USART_IT & IT_Mask;
 80152f4:	887b      	ldrh	r3, [r7, #2]
 80152f6:	f003 031f 	and.w	r3, r3, #31
 80152fa:	60fb      	str	r3, [r7, #12]
  itmask = (((uint32_t)0x01) << itpos);
 80152fc:	2201      	movs	r2, #1
 80152fe:	68fb      	ldr	r3, [r7, #12]
 8015300:	fa02 f303 	lsl.w	r3, r2, r3
 8015304:	60bb      	str	r3, [r7, #8]
    
  if (usartreg == 0x01) /* The IT is in CR1 register */
 8015306:	693b      	ldr	r3, [r7, #16]
 8015308:	2b01      	cmp	r3, #1
 801530a:	d103      	bne.n	8015314 <USART_ITConfig+0x4e>
  {
    usartxbase += 0x0C;
 801530c:	697b      	ldr	r3, [r7, #20]
 801530e:	330c      	adds	r3, #12
 8015310:	617b      	str	r3, [r7, #20]
 8015312:	e009      	b.n	8015328 <USART_ITConfig+0x62>
  }
  else if (usartreg == 0x02) /* The IT is in CR2 register */
 8015314:	693b      	ldr	r3, [r7, #16]
 8015316:	2b02      	cmp	r3, #2
 8015318:	d103      	bne.n	8015322 <USART_ITConfig+0x5c>
  {
    usartxbase += 0x10;
 801531a:	697b      	ldr	r3, [r7, #20]
 801531c:	3310      	adds	r3, #16
 801531e:	617b      	str	r3, [r7, #20]
 8015320:	e002      	b.n	8015328 <USART_ITConfig+0x62>
  }
  else /* The IT is in CR3 register */
  {
    usartxbase += 0x14; 
 8015322:	697b      	ldr	r3, [r7, #20]
 8015324:	3314      	adds	r3, #20
 8015326:	617b      	str	r3, [r7, #20]
  }
  if (NewState != DISABLE)
 8015328:	787b      	ldrb	r3, [r7, #1]
 801532a:	2b00      	cmp	r3, #0
 801532c:	d006      	beq.n	801533c <USART_ITConfig+0x76>
  {
    *(__IO uint32_t*)usartxbase  |= itmask;
 801532e:	697b      	ldr	r3, [r7, #20]
 8015330:	697a      	ldr	r2, [r7, #20]
 8015332:	6811      	ldr	r1, [r2, #0]
 8015334:	68ba      	ldr	r2, [r7, #8]
 8015336:	430a      	orrs	r2, r1
 8015338:	601a      	str	r2, [r3, #0]
  }
  else
  {
    *(__IO uint32_t*)usartxbase &= ~itmask;
  }
}
 801533a:	e006      	b.n	801534a <USART_ITConfig+0x84>
    *(__IO uint32_t*)usartxbase &= ~itmask;
 801533c:	697b      	ldr	r3, [r7, #20]
 801533e:	697a      	ldr	r2, [r7, #20]
 8015340:	6811      	ldr	r1, [r2, #0]
 8015342:	68ba      	ldr	r2, [r7, #8]
 8015344:	43d2      	mvns	r2, r2
 8015346:	400a      	ands	r2, r1
 8015348:	601a      	str	r2, [r3, #0]
}
 801534a:	bf00      	nop
 801534c:	371c      	adds	r7, #28
 801534e:	46bd      	mov	sp, r7
 8015350:	bc80      	pop	{r7}
 8015352:	4770      	bx	lr

08015354 <USART_SendData>:
  *   USART1, USART2, USART3, UART4 or UART5.
  * @param  Data: the data to transmit.
  * @retval None
  */
void USART_SendData(USART_TypeDef* USARTx, uint16_t Data)
{
 8015354:	b480      	push	{r7}
 8015356:	b083      	sub	sp, #12
 8015358:	af00      	add	r7, sp, #0
 801535a:	6078      	str	r0, [r7, #4]
 801535c:	460b      	mov	r3, r1
 801535e:	807b      	strh	r3, [r7, #2]
  /* Check the parameters */
  assert_param(IS_USART_ALL_PERIPH(USARTx));
  assert_param(IS_USART_DATA(Data)); 
    
  /* Transmit Data */
  USARTx->DR = (Data & (uint16_t)0x01FF);
 8015360:	887b      	ldrh	r3, [r7, #2]
 8015362:	f3c3 0308 	ubfx	r3, r3, #0, #9
 8015366:	b29a      	uxth	r2, r3
 8015368:	687b      	ldr	r3, [r7, #4]
 801536a:	809a      	strh	r2, [r3, #4]
}
 801536c:	bf00      	nop
 801536e:	370c      	adds	r7, #12
 8015370:	46bd      	mov	sp, r7
 8015372:	bc80      	pop	{r7}
 8015374:	4770      	bx	lr

08015376 <USART_ReceiveData>:
  *   This parameter can be one of the following values:
  *   USART1, USART2, USART3, UART4 or UART5.
  * @retval The received data.
  */
uint16_t USART_ReceiveData(USART_TypeDef* USARTx)
{
 8015376:	b480      	push	{r7}
 8015378:	b083      	sub	sp, #12
 801537a:	af00      	add	r7, sp, #0
 801537c:	6078      	str	r0, [r7, #4]
  /* Check the parameters */
  assert_param(IS_USART_ALL_PERIPH(USARTx));
  
  /* Receive Data */
  return (uint16_t)(USARTx->DR & (uint16_t)0x01FF);
 801537e:	687b      	ldr	r3, [r7, #4]
 8015380:	889b      	ldrh	r3, [r3, #4]
 8015382:	b29b      	uxth	r3, r3
 8015384:	f3c3 0308 	ubfx	r3, r3, #0, #9
 8015388:	b29b      	uxth	r3, r3
}
 801538a:	4618      	mov	r0, r3
 801538c:	370c      	adds	r7, #12
 801538e:	46bd      	mov	sp, r7
 8015390:	bc80      	pop	{r7}
 8015392:	4770      	bx	lr

08015394 <USART_GetFlagStatus>:
  *     @arg USART_FLAG_FE:   Framing Error flag
  *     @arg USART_FLAG_PE:   Parity Error flag
  * @retval The new state of USART_FLAG (SET or RESET).
  */
FlagStatus USART_GetFlagStatus(USART_TypeDef* USARTx, uint16_t USART_FLAG)
{
 8015394:	b480      	push	{r7}
 8015396:	b085      	sub	sp, #20
 8015398:	af00      	add	r7, sp, #0
 801539a:	6078      	str	r0, [r7, #4]
 801539c:	460b      	mov	r3, r1
 801539e:	807b      	strh	r3, [r7, #2]
  FlagStatus bitstatus = RESET;
 80153a0:	2300      	movs	r3, #0
 80153a2:	73fb      	strb	r3, [r7, #15]
  if (USART_FLAG == USART_FLAG_CTS)
  {
    assert_param(IS_USART_123_PERIPH(USARTx));
  }  
  
  if ((USARTx->SR & USART_FLAG) != (uint16_t)RESET)
 80153a4:	687b      	ldr	r3, [r7, #4]
 80153a6:	881b      	ldrh	r3, [r3, #0]
 80153a8:	b29a      	uxth	r2, r3
 80153aa:	887b      	ldrh	r3, [r7, #2]
 80153ac:	4013      	ands	r3, r2
 80153ae:	b29b      	uxth	r3, r3
 80153b0:	2b00      	cmp	r3, #0
 80153b2:	d002      	beq.n	80153ba <USART_GetFlagStatus+0x26>
  {
    bitstatus = SET;
 80153b4:	2301      	movs	r3, #1
 80153b6:	73fb      	strb	r3, [r7, #15]
 80153b8:	e001      	b.n	80153be <USART_GetFlagStatus+0x2a>
  }
  else
  {
    bitstatus = RESET;
 80153ba:	2300      	movs	r3, #0
 80153bc:	73fb      	strb	r3, [r7, #15]
  }
  return bitstatus;
 80153be:	7bfb      	ldrb	r3, [r7, #15]
}
 80153c0:	4618      	mov	r0, r3
 80153c2:	3714      	adds	r7, #20
 80153c4:	46bd      	mov	sp, r7
 80153c6:	bc80      	pop	{r7}
 80153c8:	4770      	bx	lr

080153ca <USART_ClearFlag>:
  *   - TXE flag is cleared only by a write to the USART_DR register 
  *     (USART_SendData()).
  * @retval None
  */
void USART_ClearFlag(USART_TypeDef* USARTx, uint16_t USART_FLAG)
{
 80153ca:	b480      	push	{r7}
 80153cc:	b083      	sub	sp, #12
 80153ce:	af00      	add	r7, sp, #0
 80153d0:	6078      	str	r0, [r7, #4]
 80153d2:	460b      	mov	r3, r1
 80153d4:	807b      	strh	r3, [r7, #2]
  if ((USART_FLAG & USART_FLAG_CTS) == USART_FLAG_CTS)
  {
    assert_param(IS_USART_123_PERIPH(USARTx));
  } 
   
  USARTx->SR = (uint16_t)~USART_FLAG;
 80153d6:	887b      	ldrh	r3, [r7, #2]
 80153d8:	43db      	mvns	r3, r3
 80153da:	b29a      	uxth	r2, r3
 80153dc:	687b      	ldr	r3, [r7, #4]
 80153de:	801a      	strh	r2, [r3, #0]
}
 80153e0:	bf00      	nop
 80153e2:	370c      	adds	r7, #12
 80153e4:	46bd      	mov	sp, r7
 80153e6:	bc80      	pop	{r7}
 80153e8:	4770      	bx	lr

080153ea <USART_GetITStatus>:
  *     @arg USART_IT_FE:   Framing Error interrupt
  *     @arg USART_IT_PE:   Parity Error interrupt
  * @retval The new state of USART_IT (SET or RESET).
  */
ITStatus USART_GetITStatus(USART_TypeDef* USARTx, uint16_t USART_IT)
{
 80153ea:	b480      	push	{r7}
 80153ec:	b087      	sub	sp, #28
 80153ee:	af00      	add	r7, sp, #0
 80153f0:	6078      	str	r0, [r7, #4]
 80153f2:	460b      	mov	r3, r1
 80153f4:	807b      	strh	r3, [r7, #2]
  uint32_t bitpos = 0x00, itmask = 0x00, usartreg = 0x00;
 80153f6:	2300      	movs	r3, #0
 80153f8:	60fb      	str	r3, [r7, #12]
 80153fa:	2300      	movs	r3, #0
 80153fc:	617b      	str	r3, [r7, #20]
 80153fe:	2300      	movs	r3, #0
 8015400:	60bb      	str	r3, [r7, #8]
  ITStatus bitstatus = RESET;
 8015402:	2300      	movs	r3, #0
 8015404:	74fb      	strb	r3, [r7, #19]
  {
    assert_param(IS_USART_123_PERIPH(USARTx));
  }   
  
  /* Get the USART register index */
  usartreg = (((uint8_t)USART_IT) >> 0x05);
 8015406:	887b      	ldrh	r3, [r7, #2]
 8015408:	b2db      	uxtb	r3, r3
 801540a:	095b      	lsrs	r3, r3, #5
 801540c:	b2db      	uxtb	r3, r3
 801540e:	60bb      	str	r3, [r7, #8]
  /* Get the interrupt position */
  itmask = USART_IT & IT_Mask;
 8015410:	887b      	ldrh	r3, [r7, #2]
 8015412:	f003 031f 	and.w	r3, r3, #31
 8015416:	617b      	str	r3, [r7, #20]
  itmask = (uint32_t)0x01 << itmask;
 8015418:	2201      	movs	r2, #1
 801541a:	697b      	ldr	r3, [r7, #20]
 801541c:	fa02 f303 	lsl.w	r3, r2, r3
 8015420:	617b      	str	r3, [r7, #20]
  
  if (usartreg == 0x01) /* The IT  is in CR1 register */
 8015422:	68bb      	ldr	r3, [r7, #8]
 8015424:	2b01      	cmp	r3, #1
 8015426:	d107      	bne.n	8015438 <USART_GetITStatus+0x4e>
  {
    itmask &= USARTx->CR1;
 8015428:	687b      	ldr	r3, [r7, #4]
 801542a:	899b      	ldrh	r3, [r3, #12]
 801542c:	b29b      	uxth	r3, r3
 801542e:	461a      	mov	r2, r3
 8015430:	697b      	ldr	r3, [r7, #20]
 8015432:	4013      	ands	r3, r2
 8015434:	617b      	str	r3, [r7, #20]
 8015436:	e011      	b.n	801545c <USART_GetITStatus+0x72>
  }
  else if (usartreg == 0x02) /* The IT  is in CR2 register */
 8015438:	68bb      	ldr	r3, [r7, #8]
 801543a:	2b02      	cmp	r3, #2
 801543c:	d107      	bne.n	801544e <USART_GetITStatus+0x64>
  {
    itmask &= USARTx->CR2;
 801543e:	687b      	ldr	r3, [r7, #4]
 8015440:	8a1b      	ldrh	r3, [r3, #16]
 8015442:	b29b      	uxth	r3, r3
 8015444:	461a      	mov	r2, r3
 8015446:	697b      	ldr	r3, [r7, #20]
 8015448:	4013      	ands	r3, r2
 801544a:	617b      	str	r3, [r7, #20]
 801544c:	e006      	b.n	801545c <USART_GetITStatus+0x72>
  }
  else /* The IT  is in CR3 register */
  {
    itmask &= USARTx->CR3;
 801544e:	687b      	ldr	r3, [r7, #4]
 8015450:	8a9b      	ldrh	r3, [r3, #20]
 8015452:	b29b      	uxth	r3, r3
 8015454:	461a      	mov	r2, r3
 8015456:	697b      	ldr	r3, [r7, #20]
 8015458:	4013      	ands	r3, r2
 801545a:	617b      	str	r3, [r7, #20]
  }
  
  bitpos = USART_IT >> 0x08;
 801545c:	887b      	ldrh	r3, [r7, #2]
 801545e:	0a1b      	lsrs	r3, r3, #8
 8015460:	b29b      	uxth	r3, r3
 8015462:	60fb      	str	r3, [r7, #12]
  bitpos = (uint32_t)0x01 << bitpos;
 8015464:	2201      	movs	r2, #1
 8015466:	68fb      	ldr	r3, [r7, #12]
 8015468:	fa02 f303 	lsl.w	r3, r2, r3
 801546c:	60fb      	str	r3, [r7, #12]
  bitpos &= USARTx->SR;
 801546e:	687b      	ldr	r3, [r7, #4]
 8015470:	881b      	ldrh	r3, [r3, #0]
 8015472:	b29b      	uxth	r3, r3
 8015474:	461a      	mov	r2, r3
 8015476:	68fb      	ldr	r3, [r7, #12]
 8015478:	4013      	ands	r3, r2
 801547a:	60fb      	str	r3, [r7, #12]
  if ((itmask != (uint16_t)RESET)&&(bitpos != (uint16_t)RESET))
 801547c:	697b      	ldr	r3, [r7, #20]
 801547e:	2b00      	cmp	r3, #0
 8015480:	d005      	beq.n	801548e <USART_GetITStatus+0xa4>
 8015482:	68fb      	ldr	r3, [r7, #12]
 8015484:	2b00      	cmp	r3, #0
 8015486:	d002      	beq.n	801548e <USART_GetITStatus+0xa4>
  {
    bitstatus = SET;
 8015488:	2301      	movs	r3, #1
 801548a:	74fb      	strb	r3, [r7, #19]
 801548c:	e001      	b.n	8015492 <USART_GetITStatus+0xa8>
  }
  else
  {
    bitstatus = RESET;
 801548e:	2300      	movs	r3, #0
 8015490:	74fb      	strb	r3, [r7, #19]
  }
  
  return bitstatus;  
 8015492:	7cfb      	ldrb	r3, [r7, #19]
}
 8015494:	4618      	mov	r0, r3
 8015496:	371c      	adds	r7, #28
 8015498:	46bd      	mov	sp, r7
 801549a:	bc80      	pop	{r7}
 801549c:	4770      	bx	lr

0801549e <USART_ClearITPendingBit>:
  *   - TXE pending bit is cleared only by a write to the USART_DR register 
  *     (USART_SendData()).
  * @retval None
  */
void USART_ClearITPendingBit(USART_TypeDef* USARTx, uint16_t USART_IT)
{
 801549e:	b480      	push	{r7}
 80154a0:	b085      	sub	sp, #20
 80154a2:	af00      	add	r7, sp, #0
 80154a4:	6078      	str	r0, [r7, #4]
 80154a6:	460b      	mov	r3, r1
 80154a8:	807b      	strh	r3, [r7, #2]
  uint16_t bitpos = 0x00, itmask = 0x00;
 80154aa:	2300      	movs	r3, #0
 80154ac:	81fb      	strh	r3, [r7, #14]
 80154ae:	2300      	movs	r3, #0
 80154b0:	81bb      	strh	r3, [r7, #12]
  if (USART_IT == USART_IT_CTS)
  {
    assert_param(IS_USART_123_PERIPH(USARTx));
  }   
  
  bitpos = USART_IT >> 0x08;
 80154b2:	887b      	ldrh	r3, [r7, #2]
 80154b4:	0a1b      	lsrs	r3, r3, #8
 80154b6:	81fb      	strh	r3, [r7, #14]
  itmask = ((uint16_t)0x01 << (uint16_t)bitpos);
 80154b8:	89fb      	ldrh	r3, [r7, #14]
 80154ba:	2201      	movs	r2, #1
 80154bc:	fa02 f303 	lsl.w	r3, r2, r3
 80154c0:	81bb      	strh	r3, [r7, #12]
  USARTx->SR = (uint16_t)~itmask;
 80154c2:	89bb      	ldrh	r3, [r7, #12]
 80154c4:	43db      	mvns	r3, r3
 80154c6:	b29a      	uxth	r2, r3
 80154c8:	687b      	ldr	r3, [r7, #4]
 80154ca:	801a      	strh	r2, [r3, #0]
}
 80154cc:	bf00      	nop
 80154ce:	3714      	adds	r7, #20
 80154d0:	46bd      	mov	sp, r7
 80154d2:	bc80      	pop	{r7}
 80154d4:	4770      	bx	lr
	...

080154d8 <SysTick_Init>:
 * 初始化延迟函数
 * SYSTICK的时钟固定为AHB时钟的1/8
 * SYSCLK:系统时钟频率
 */
void SysTick_Init(uint8_t SYSCLK)
{
 80154d8:	b580      	push	{r7, lr}
 80154da:	b082      	sub	sp, #8
 80154dc:	af00      	add	r7, sp, #0
 80154de:	4603      	mov	r3, r0
 80154e0:	71fb      	strb	r3, [r7, #7]
	SysTick_CLKSourceConfig(SysTick_CLKSource_HCLK_Div8);
 80154e2:	f06f 0004 	mvn.w	r0, #4
 80154e6:	f7fe fee1 	bl	80142ac <SysTick_CLKSourceConfig>
	fac_us = SYSCLK / 8;
 80154ea:	79fb      	ldrb	r3, [r7, #7]
 80154ec:	08db      	lsrs	r3, r3, #3
 80154ee:	b2da      	uxtb	r2, r3
 80154f0:	4b08      	ldr	r3, [pc, #32]	; (8015514 <SysTick_Init+0x3c>)
 80154f2:	701a      	strb	r2, [r3, #0]
	fac_ms = (uint16_t) fac_us * 1000;
 80154f4:	4b07      	ldr	r3, [pc, #28]	; (8015514 <SysTick_Init+0x3c>)
 80154f6:	781b      	ldrb	r3, [r3, #0]
 80154f8:	b29b      	uxth	r3, r3
 80154fa:	461a      	mov	r2, r3
 80154fc:	0152      	lsls	r2, r2, #5
 80154fe:	1ad2      	subs	r2, r2, r3
 8015500:	0092      	lsls	r2, r2, #2
 8015502:	4413      	add	r3, r2
 8015504:	00db      	lsls	r3, r3, #3
 8015506:	b29a      	uxth	r2, r3
 8015508:	4b03      	ldr	r3, [pc, #12]	; (8015518 <SysTick_Init+0x40>)
 801550a:	801a      	strh	r2, [r3, #0]
}
 801550c:	bf00      	nop
 801550e:	3708      	adds	r7, #8
 8015510:	46bd      	mov	sp, r7
 8015512:	bd80      	pop	{r7, pc}
 8015514:	20001617 	.word	0x20001617
 8015518:	20001618 	.word	0x20001618

0801551c <delay_us>:
 * 输    入         : nus：要延时的us数
 * 注意:nus的值,不要大于798915us(最大值即2^24/fac_us@fac_us=21)
 * 输    出         : 无
 *******************************************************************************/
void delay_us(uint32_t nus)
{
 801551c:	b480      	push	{r7}
 801551e:	b085      	sub	sp, #20
 8015520:	af00      	add	r7, sp, #0
 8015522:	6078      	str	r0, [r7, #4]
	uint32_t temp;
	SysTick->LOAD = nus * fac_us; 					//时间加载
 8015524:	4a15      	ldr	r2, [pc, #84]	; (801557c <delay_us+0x60>)
 8015526:	4b16      	ldr	r3, [pc, #88]	; (8015580 <delay_us+0x64>)
 8015528:	781b      	ldrb	r3, [r3, #0]
 801552a:	4619      	mov	r1, r3
 801552c:	687b      	ldr	r3, [r7, #4]
 801552e:	fb03 f301 	mul.w	r3, r3, r1
 8015532:	6053      	str	r3, [r2, #4]
	SysTick->VAL = 0x00;        					//清空计数器
 8015534:	4b11      	ldr	r3, [pc, #68]	; (801557c <delay_us+0x60>)
 8015536:	2200      	movs	r2, #0
 8015538:	609a      	str	r2, [r3, #8]
	SysTick->CTRL |= SysTick_CTRL_ENABLE_Msk;	//开始倒数
 801553a:	4a10      	ldr	r2, [pc, #64]	; (801557c <delay_us+0x60>)
 801553c:	4b0f      	ldr	r3, [pc, #60]	; (801557c <delay_us+0x60>)
 801553e:	681b      	ldr	r3, [r3, #0]
 8015540:	f043 0301 	orr.w	r3, r3, #1
 8015544:	6013      	str	r3, [r2, #0]
	do
	{
		temp = SysTick->CTRL;
 8015546:	4b0d      	ldr	r3, [pc, #52]	; (801557c <delay_us+0x60>)
 8015548:	681b      	ldr	r3, [r3, #0]
 801554a:	60fb      	str	r3, [r7, #12]
	} while ((temp & 0x01) && !(temp & (1 << 16)));		//等待时间到达
 801554c:	68fb      	ldr	r3, [r7, #12]
 801554e:	f003 0301 	and.w	r3, r3, #1
 8015552:	2b00      	cmp	r3, #0
 8015554:	d004      	beq.n	8015560 <delay_us+0x44>
 8015556:	68fb      	ldr	r3, [r7, #12]
 8015558:	f403 3380 	and.w	r3, r3, #65536	; 0x10000
 801555c:	2b00      	cmp	r3, #0
 801555e:	d0f2      	beq.n	8015546 <delay_us+0x2a>
	SysTick->CTRL &= ~SysTick_CTRL_ENABLE_Msk;	//关闭计数器
 8015560:	4a06      	ldr	r2, [pc, #24]	; (801557c <delay_us+0x60>)
 8015562:	4b06      	ldr	r3, [pc, #24]	; (801557c <delay_us+0x60>)
 8015564:	681b      	ldr	r3, [r3, #0]
 8015566:	f023 0301 	bic.w	r3, r3, #1
 801556a:	6013      	str	r3, [r2, #0]
	SysTick->VAL = 0X00;      					 //清空计数器
 801556c:	4b03      	ldr	r3, [pc, #12]	; (801557c <delay_us+0x60>)
 801556e:	2200      	movs	r2, #0
 8015570:	609a      	str	r2, [r3, #8]
}
 8015572:	bf00      	nop
 8015574:	3714      	adds	r7, #20
 8015576:	46bd      	mov	sp, r7
 8015578:	bc80      	pop	{r7}
 801557a:	4770      	bx	lr
 801557c:	e000e010 	.word	0xe000e010
 8015580:	20001617 	.word	0x20001617

08015584 <delay_ms>:
 * 不要大于0xffffff*8*1000/SYSCLK
 * 对72M条件下,nms<=1864ms
 * 输    出         : 无
 *******************************************************************************/
void delay_ms(uint16_t nms)
{
 8015584:	b480      	push	{r7}
 8015586:	b085      	sub	sp, #20
 8015588:	af00      	add	r7, sp, #0
 801558a:	4603      	mov	r3, r0
 801558c:	80fb      	strh	r3, [r7, #6]
	uint32_t temp;
	SysTick->LOAD = (uint32_t) nms * fac_ms;		//时间加载(SysTick->LOAD为24bit)
 801558e:	4a15      	ldr	r2, [pc, #84]	; (80155e4 <delay_ms+0x60>)
 8015590:	88fb      	ldrh	r3, [r7, #6]
 8015592:	4915      	ldr	r1, [pc, #84]	; (80155e8 <delay_ms+0x64>)
 8015594:	8809      	ldrh	r1, [r1, #0]
 8015596:	fb01 f303 	mul.w	r3, r1, r3
 801559a:	6053      	str	r3, [r2, #4]
	SysTick->VAL = 0x00;							//清空计数器
 801559c:	4b11      	ldr	r3, [pc, #68]	; (80155e4 <delay_ms+0x60>)
 801559e:	2200      	movs	r2, #0
 80155a0:	609a      	str	r2, [r3, #8]
	SysTick->CTRL |= SysTick_CTRL_ENABLE_Msk;	//开始倒数
 80155a2:	4a10      	ldr	r2, [pc, #64]	; (80155e4 <delay_ms+0x60>)
 80155a4:	4b0f      	ldr	r3, [pc, #60]	; (80155e4 <delay_ms+0x60>)
 80155a6:	681b      	ldr	r3, [r3, #0]
 80155a8:	f043 0301 	orr.w	r3, r3, #1
 80155ac:	6013      	str	r3, [r2, #0]
	do
	{
		temp = SysTick->CTRL;
 80155ae:	4b0d      	ldr	r3, [pc, #52]	; (80155e4 <delay_ms+0x60>)
 80155b0:	681b      	ldr	r3, [r3, #0]
 80155b2:	60fb      	str	r3, [r7, #12]
	} while ((temp & 0x01) && !(temp & (1 << 16)));		//等待时间到达
 80155b4:	68fb      	ldr	r3, [r7, #12]
 80155b6:	f003 0301 	and.w	r3, r3, #1
 80155ba:	2b00      	cmp	r3, #0
 80155bc:	d004      	beq.n	80155c8 <delay_ms+0x44>
 80155be:	68fb      	ldr	r3, [r7, #12]
 80155c0:	f403 3380 	and.w	r3, r3, #65536	; 0x10000
 80155c4:	2b00      	cmp	r3, #0
 80155c6:	d0f2      	beq.n	80155ae <delay_ms+0x2a>
	SysTick->CTRL &= ~SysTick_CTRL_ENABLE_Msk;	//关闭计数器
 80155c8:	4a06      	ldr	r2, [pc, #24]	; (80155e4 <delay_ms+0x60>)
 80155ca:	4b06      	ldr	r3, [pc, #24]	; (80155e4 <delay_ms+0x60>)
 80155cc:	681b      	ldr	r3, [r3, #0]
 80155ce:	f023 0301 	bic.w	r3, r3, #1
 80155d2:	6013      	str	r3, [r2, #0]
	SysTick->VAL = 0X00;       					//清空计数器
 80155d4:	4b03      	ldr	r3, [pc, #12]	; (80155e4 <delay_ms+0x60>)
 80155d6:	2200      	movs	r2, #0
 80155d8:	609a      	str	r2, [r3, #8]
}
 80155da:	bf00      	nop
 80155dc:	3714      	adds	r7, #20
 80155de:	46bd      	mov	sp, r7
 80155e0:	bc80      	pop	{r7}
 80155e2:	4770      	bx	lr
 80155e4:	e000e010 	.word	0xe000e010
 80155e8:	20001618 	.word	0x20001618

080155ec <USART1_Init>:
 * 函数功能		   : USART1初始化函数
 * 输    入         : bound:波特率
 * 输    出         : 无
 *******************************************************************************/
void USART1_Init(u32 bound)
{
 80155ec:	b590      	push	{r4, r7, lr}
 80155ee:	b097      	sub	sp, #92	; 0x5c
 80155f0:	af04      	add	r7, sp, #16
 80155f2:	6078      	str	r0, [r7, #4]
	//GPIO端口设置
	GPIO_InitTypeDef GPIO_InitStructure;
	USART_InitTypeDef USART_InitStructure;
	NVIC_InitTypeDef NVIC_InitStructure;

	USART_DeInit(USART1);
 80155f4:	4872      	ldr	r0, [pc, #456]	; (80157c0 <USART1_Init+0x1d4>)
 80155f6:	f7ff fd31 	bl	801505c <USART_DeInit>

	RCC_APB2PeriphClockCmd(RCC_APB2Periph_GPIOA, ENABLE);
 80155fa:	2101      	movs	r1, #1
 80155fc:	2004      	movs	r0, #4
 80155fe:	f7ff fa6d 	bl	8014adc <RCC_APB2PeriphClockCmd>
	RCC_APB2PeriphClockCmd(RCC_APB2Periph_USART1, ENABLE);
 8015602:	2101      	movs	r1, #1
 8015604:	f44f 4080 	mov.w	r0, #16384	; 0x4000
 8015608:	f7ff fa68 	bl	8014adc <RCC_APB2PeriphClockCmd>

	/*  配置GPIO的模式和IO口 */
	GPIO_InitStructure.GPIO_Pin = GPIO_Pin_9; //TX			   //串口输出PA9
 801560c:	f44f 7300 	mov.w	r3, #512	; 0x200
 8015610:	f8a7 3040 	strh.w	r3, [r7, #64]	; 0x40
	GPIO_InitStructure.GPIO_Speed = GPIO_Speed_50MHz;
 8015614:	2303      	movs	r3, #3
 8015616:	f887 3042 	strb.w	r3, [r7, #66]	; 0x42
	GPIO_InitStructure.GPIO_Mode = GPIO_Mode_AF_PP;	    //复用推挽输出
 801561a:	2318      	movs	r3, #24
 801561c:	f887 3043 	strb.w	r3, [r7, #67]	; 0x43
	GPIO_Init(GPIOA, &GPIO_InitStructure); /* 初始化串口输入IO */
 8015620:	f107 0340 	add.w	r3, r7, #64	; 0x40
 8015624:	4619      	mov	r1, r3
 8015626:	4867      	ldr	r0, [pc, #412]	; (80157c4 <USART1_Init+0x1d8>)
 8015628:	f7fe ff5c 	bl	80144e4 <GPIO_Init>
	GPIO_InitStructure.GPIO_Pin = GPIO_Pin_10;	    //RX			 //串口输入PA10
 801562c:	f44f 6380 	mov.w	r3, #1024	; 0x400
 8015630:	f8a7 3040 	strh.w	r3, [r7, #64]	; 0x40
	GPIO_InitStructure.GPIO_Mode = GPIO_Mode_IN_FLOATING;		  //模拟输入
 8015634:	2304      	movs	r3, #4
 8015636:	f887 3043 	strb.w	r3, [r7, #67]	; 0x43
	GPIO_Init(GPIOA, &GPIO_InitStructure); /* 初始化GPIO */
 801563a:	f107 0340 	add.w	r3, r7, #64	; 0x40
 801563e:	4619      	mov	r1, r3
 8015640:	4860      	ldr	r0, [pc, #384]	; (80157c4 <USART1_Init+0x1d8>)
 8015642:	f7fe ff4f 	bl	80144e4 <GPIO_Init>

	//USART1 初始化设置
	USART_InitStructure.USART_BaudRate = bound;		  //波特率设置
 8015646:	687b      	ldr	r3, [r7, #4]
 8015648:	633b      	str	r3, [r7, #48]	; 0x30
	USART_InitStructure.USART_WordLength = USART_WordLength_8b;		 //字长为8位数据格式
 801564a:	2300      	movs	r3, #0
 801564c:	86bb      	strh	r3, [r7, #52]	; 0x34
	USART_InitStructure.USART_StopBits = USART_StopBits_1;		  //一个停止位
 801564e:	2300      	movs	r3, #0
 8015650:	86fb      	strh	r3, [r7, #54]	; 0x36
	USART_InitStructure.USART_Parity = USART_Parity_No;		  //无奇偶校验位
 8015652:	2300      	movs	r3, #0
 8015654:	873b      	strh	r3, [r7, #56]	; 0x38
	USART_InitStructure.USART_HardwareFlowControl =
 8015656:	2300      	movs	r3, #0
 8015658:	87bb      	strh	r3, [r7, #60]	; 0x3c
	USART_HardwareFlowControl_None;		  //无硬件数据流控制
	USART_InitStructure.USART_Mode = USART_Mode_Rx | USART_Mode_Tx;	//收发模式
 801565a:	230c      	movs	r3, #12
 801565c:	877b      	strh	r3, [r7, #58]	; 0x3a
	USART_Init(USART1, &USART_InitStructure); //初始化串口1
 801565e:	f107 0330 	add.w	r3, r7, #48	; 0x30
 8015662:	4619      	mov	r1, r3
 8015664:	4856      	ldr	r0, [pc, #344]	; (80157c0 <USART1_Init+0x1d4>)
 8015666:	f7ff fd55 	bl	8015114 <USART_Init>

	USART_Cmd(USART1, ENABLE);  //使能串口1
 801566a:	2101      	movs	r1, #1
 801566c:	4854      	ldr	r0, [pc, #336]	; (80157c0 <USART1_Init+0x1d4>)
 801566e:	f7ff fe0b 	bl	8015288 <USART_Cmd>

	USART_ClearFlag(USART1, USART_FLAG_TC);
 8015672:	2140      	movs	r1, #64	; 0x40
 8015674:	4852      	ldr	r0, [pc, #328]	; (80157c0 <USART1_Init+0x1d4>)
 8015676:	f7ff fea8 	bl	80153ca <USART_ClearFlag>

	USART_ITConfig(USART1, USART_IT_RXNE, ENABLE);  //开启相关中断
 801567a:	2201      	movs	r2, #1
 801567c:	f240 5125 	movw	r1, #1317	; 0x525
 8015680:	484f      	ldr	r0, [pc, #316]	; (80157c0 <USART1_Init+0x1d4>)
 8015682:	f7ff fe20 	bl	80152c6 <USART_ITConfig>

	//Usart1 NVIC 配置
	NVIC_InitStructure.NVIC_IRQChannel = USART1_IRQn;  //串口1中断通道
 8015686:	2325      	movs	r3, #37	; 0x25
 8015688:	f887 302c 	strb.w	r3, [r7, #44]	; 0x2c
	NVIC_InitStructure.NVIC_IRQChannelPreemptionPriority = 2;  //抢占优先级2
 801568c:	2302      	movs	r3, #2
 801568e:	f887 302d 	strb.w	r3, [r7, #45]	; 0x2d
	NVIC_InitStructure.NVIC_IRQChannelSubPriority = 3;		//子优先级3
 8015692:	2303      	movs	r3, #3
 8015694:	f887 302e 	strb.w	r3, [r7, #46]	; 0x2e
	NVIC_InitStructure.NVIC_IRQChannelCmd = ENABLE;			//IRQ通道使能
 8015698:	2301      	movs	r3, #1
 801569a:	f887 302f 	strb.w	r3, [r7, #47]	; 0x2f
	NVIC_Init(&NVIC_InitStructure);	//根据指定的参数初始化VIC寄存器、
 801569e:	f107 032c 	add.w	r3, r7, #44	; 0x2c
 80156a2:	4618      	mov	r0, r3
 80156a4:	f7fe fd8a 	bl	80141bc <NVIC_Init>

	//开始拆解注册参数
	ReadAPPServer();
 80156a8:	f7fc f902 	bl	80118b0 <ReadAPPServer>
	printf("RegisterParams=%s\r\n", APPServer);
 80156ac:	4946      	ldr	r1, [pc, #280]	; (80157c8 <USART1_Init+0x1dc>)
 80156ae:	4847      	ldr	r0, [pc, #284]	; (80157cc <USART1_Init+0x1e0>)
 80156b0:	f000 fef0 	bl	8016494 <printf>
	char *tem = NULL;
 80156b4:	2300      	movs	r3, #0
 80156b6:	647b      	str	r3, [r7, #68]	; 0x44
	char res[35] =
 80156b8:	f107 0308 	add.w	r3, r7, #8
 80156bc:	2223      	movs	r2, #35	; 0x23
 80156be:	2100      	movs	r1, #0
 80156c0:	4618      	mov	r0, r3
 80156c2:	f000 fedf 	bl	8016484 <memset>
	{ 0 };
	tem = strtok(APPServer, "-");
 80156c6:	4942      	ldr	r1, [pc, #264]	; (80157d0 <USART1_Init+0x1e4>)
 80156c8:	483f      	ldr	r0, [pc, #252]	; (80157c8 <USART1_Init+0x1dc>)
 80156ca:	f001 f837 	bl	801673c <strtok>
 80156ce:	6478      	str	r0, [r7, #68]	; 0x44
	memcpy(RegisterParams.key, tem, 16); //取key
 80156d0:	4a40      	ldr	r2, [pc, #256]	; (80157d4 <USART1_Init+0x1e8>)
 80156d2:	6c7b      	ldr	r3, [r7, #68]	; 0x44
 80156d4:	4614      	mov	r4, r2
 80156d6:	6818      	ldr	r0, [r3, #0]
 80156d8:	6859      	ldr	r1, [r3, #4]
 80156da:	689a      	ldr	r2, [r3, #8]
 80156dc:	68db      	ldr	r3, [r3, #12]
 80156de:	c40f      	stmia	r4!, {r0, r1, r2, r3}
	if (strcmp("aaaaaaaaaaaaaaaa", RegisterParams.key) == 0)
 80156e0:	493c      	ldr	r1, [pc, #240]	; (80157d4 <USART1_Init+0x1e8>)
 80156e2:	483d      	ldr	r0, [pc, #244]	; (80157d8 <USART1_Init+0x1ec>)
 80156e4:	f7fa fda0 	bl	8010228 <strcmp>
 80156e8:	4603      	mov	r3, r0
 80156ea:	2b00      	cmp	r3, #0
 80156ec:	d102      	bne.n	80156f4 <USART1_Init+0x108>
	{
		printf("key is right!\r\n");
 80156ee:	483b      	ldr	r0, [pc, #236]	; (80157dc <USART1_Init+0x1f0>)
 80156f0:	f000 ff48 	bl	8016584 <puts>
	}
	tem = strtok(NULL, "-");
 80156f4:	4936      	ldr	r1, [pc, #216]	; (80157d0 <USART1_Init+0x1e4>)
 80156f6:	2000      	movs	r0, #0
 80156f8:	f001 f820 	bl	801673c <strtok>
 80156fc:	6478      	str	r0, [r7, #68]	; 0x44
	strcpy(res, tem); //指向ip和port
 80156fe:	f107 0308 	add.w	r3, r7, #8
 8015702:	6c79      	ldr	r1, [r7, #68]	; 0x44
 8015704:	4618      	mov	r0, r3
 8015706:	f000 ffba 	bl	801667e <strcpy>
	//取剩下的参数
	tem = strtok(NULL, "-");
 801570a:	4931      	ldr	r1, [pc, #196]	; (80157d0 <USART1_Init+0x1e4>)
 801570c:	2000      	movs	r0, #0
 801570e:	f001 f815 	bl	801673c <strtok>
 8015712:	6478      	str	r0, [r7, #68]	; 0x44
	RegisterParams.needConfirmParams = atoi(tem);
 8015714:	6c78      	ldr	r0, [r7, #68]	; 0x44
 8015716:	f000 fe59 	bl	80163cc <atoi>
 801571a:	4603      	mov	r3, r0
 801571c:	b2da      	uxtb	r2, r3
 801571e:	4b2d      	ldr	r3, [pc, #180]	; (80157d4 <USART1_Init+0x1e8>)
 8015720:	f883 2030 	strb.w	r2, [r3, #48]	; 0x30
	tem = strtok(NULL, "-");
 8015724:	492a      	ldr	r1, [pc, #168]	; (80157d0 <USART1_Init+0x1e4>)
 8015726:	2000      	movs	r0, #0
 8015728:	f001 f808 	bl	801673c <strtok>
 801572c:	6478      	str	r0, [r7, #68]	; 0x44
	RegisterParams.motor_TCtime = atoi(tem);
 801572e:	6c78      	ldr	r0, [r7, #68]	; 0x44
 8015730:	f000 fe4c 	bl	80163cc <atoi>
 8015734:	4603      	mov	r3, r0
 8015736:	b2da      	uxtb	r2, r3
 8015738:	4b26      	ldr	r3, [pc, #152]	; (80157d4 <USART1_Init+0x1e8>)
 801573a:	741a      	strb	r2, [r3, #16]
	tem = strtok(NULL, "-");
 801573c:	4924      	ldr	r1, [pc, #144]	; (80157d0 <USART1_Init+0x1e4>)
 801573e:	2000      	movs	r0, #0
 8015740:	f000 fffc 	bl	801673c <strtok>
 8015744:	6478      	str	r0, [r7, #68]	; 0x44
	RegisterParams.motor_HTtime = atoi(tem);
 8015746:	6c78      	ldr	r0, [r7, #68]	; 0x44
 8015748:	f000 fe40 	bl	80163cc <atoi>
 801574c:	4603      	mov	r3, r0
 801574e:	b2da      	uxtb	r2, r3
 8015750:	4b20      	ldr	r3, [pc, #128]	; (80157d4 <USART1_Init+0x1e8>)
 8015752:	745a      	strb	r2, [r3, #17]
	//取ip和port
	// tem = res;
	tem = strtok(res, ":");
 8015754:	f107 0308 	add.w	r3, r7, #8
 8015758:	4921      	ldr	r1, [pc, #132]	; (80157e0 <USART1_Init+0x1f4>)
 801575a:	4618      	mov	r0, r3
 801575c:	f000 ffee 	bl	801673c <strtok>
 8015760:	6478      	str	r0, [r7, #68]	; 0x44
	strcpy(RegisterParams.ip, tem);
 8015762:	6c79      	ldr	r1, [r7, #68]	; 0x44
 8015764:	481f      	ldr	r0, [pc, #124]	; (80157e4 <USART1_Init+0x1f8>)
 8015766:	f000 ff8a 	bl	801667e <strcpy>
	tem = strtok(NULL, ":");
 801576a:	491d      	ldr	r1, [pc, #116]	; (80157e0 <USART1_Init+0x1f4>)
 801576c:	2000      	movs	r0, #0
 801576e:	f000 ffe5 	bl	801673c <strtok>
 8015772:	6478      	str	r0, [r7, #68]	; 0x44
	strncpy(RegisterParams.port, tem, 5);
 8015774:	2205      	movs	r2, #5
 8015776:	6c79      	ldr	r1, [r7, #68]	; 0x44
 8015778:	481b      	ldr	r0, [pc, #108]	; (80157e8 <USART1_Init+0x1fc>)
 801577a:	f000 ffae 	bl	80166da <strncpy>
	if (strncmp("13401", RegisterParams.port, 5) == 0)
 801577e:	2205      	movs	r2, #5
 8015780:	4919      	ldr	r1, [pc, #100]	; (80157e8 <USART1_Init+0x1fc>)
 8015782:	481a      	ldr	r0, [pc, #104]	; (80157ec <USART1_Init+0x200>)
 8015784:	f000 ff97 	bl	80166b6 <strncmp>
 8015788:	4603      	mov	r3, r0
 801578a:	2b00      	cmp	r3, #0
 801578c:	d102      	bne.n	8015794 <USART1_Init+0x1a8>
	{
		printf("port is right!\r\n");
 801578e:	4818      	ldr	r0, [pc, #96]	; (80157f0 <USART1_Init+0x204>)
 8015790:	f000 fef8 	bl	8016584 <puts>
	}
	printf("key=%s,ip=%s,port=%s,confirm=%d,TCtime=%d,HTtime=%d\r\n",
			RegisterParams.key, RegisterParams.ip, RegisterParams.port,
			RegisterParams.needConfirmParams, RegisterParams.motor_TCtime,
 8015794:	4b0f      	ldr	r3, [pc, #60]	; (80157d4 <USART1_Init+0x1e8>)
 8015796:	f893 3030 	ldrb.w	r3, [r3, #48]	; 0x30
	printf("key=%s,ip=%s,port=%s,confirm=%d,TCtime=%d,HTtime=%d\r\n",
 801579a:	461a      	mov	r2, r3
			RegisterParams.needConfirmParams, RegisterParams.motor_TCtime,
 801579c:	4b0d      	ldr	r3, [pc, #52]	; (80157d4 <USART1_Init+0x1e8>)
 801579e:	7c1b      	ldrb	r3, [r3, #16]
	printf("key=%s,ip=%s,port=%s,confirm=%d,TCtime=%d,HTtime=%d\r\n",
 80157a0:	4619      	mov	r1, r3
			RegisterParams.motor_HTtime);
 80157a2:	4b0c      	ldr	r3, [pc, #48]	; (80157d4 <USART1_Init+0x1e8>)
 80157a4:	7c5b      	ldrb	r3, [r3, #17]
	printf("key=%s,ip=%s,port=%s,confirm=%d,TCtime=%d,HTtime=%d\r\n",
 80157a6:	9302      	str	r3, [sp, #8]
 80157a8:	9101      	str	r1, [sp, #4]
 80157aa:	9200      	str	r2, [sp, #0]
 80157ac:	4b0e      	ldr	r3, [pc, #56]	; (80157e8 <USART1_Init+0x1fc>)
 80157ae:	4a0d      	ldr	r2, [pc, #52]	; (80157e4 <USART1_Init+0x1f8>)
 80157b0:	4908      	ldr	r1, [pc, #32]	; (80157d4 <USART1_Init+0x1e8>)
 80157b2:	4810      	ldr	r0, [pc, #64]	; (80157f4 <USART1_Init+0x208>)
 80157b4:	f000 fe6e 	bl	8016494 <printf>
}
 80157b8:	bf00      	nop
 80157ba:	374c      	adds	r7, #76	; 0x4c
 80157bc:	46bd      	mov	sp, r7
 80157be:	bd90      	pop	{r4, r7, pc}
 80157c0:	40013800 	.word	0x40013800
 80157c4:	40010800 	.word	0x40010800
 80157c8:	200022c8 	.word	0x200022c8
 80157cc:	0801b95c 	.word	0x0801b95c
 80157d0:	0801b970 	.word	0x0801b970
 80157d4:	20001a20 	.word	0x20001a20
 80157d8:	0801b974 	.word	0x0801b974
 80157dc:	0801b988 	.word	0x0801b988
 80157e0:	0801b998 	.word	0x0801b998
 80157e4:	20001a32 	.word	0x20001a32
 80157e8:	20001a54 	.word	0x20001a54
 80157ec:	0801b99c 	.word	0x0801b99c
 80157f0:	0801b9a4 	.word	0x0801b9a4
 80157f4:	0801b9b4 	.word	0x0801b9b4

080157f8 <USART1_IRQHandler>:
 * 输    出         : 无
 *******************************************************************************/
char usart1TestBuf[18] =
{ 0 };
void USART1_IRQHandler(void)                	//串口1中断服务程序
{
 80157f8:	b580      	push	{r7, lr}
 80157fa:	b0a2      	sub	sp, #136	; 0x88
 80157fc:	af00      	add	r7, sp, #0
	u8 r;
	char *res = NULL;
 80157fe:	2300      	movs	r3, #0
 8015800:	f8c7 3084 	str.w	r3, [r7, #132]	; 0x84
	u8 mot = 0;
 8015804:	2300      	movs	r3, #0
 8015806:	f887 3083 	strb.w	r3, [r7, #131]	; 0x83
	char buf[128];
	if (USART_GetITStatus(USART1, USART_IT_RXNE) != RESET)  //接收中断
 801580a:	f240 5125 	movw	r1, #1317	; 0x525
 801580e:	48c7      	ldr	r0, [pc, #796]	; (8015b2c <USART1_IRQHandler+0x334>)
 8015810:	f7ff fdeb 	bl	80153ea <USART_GetITStatus>
 8015814:	4603      	mov	r3, r0
 8015816:	2b00      	cmp	r3, #0
 8015818:	f000 81fd 	beq.w	8015c16 <USART1_IRQHandler+0x41e>
	{
		USART_ClearITPendingBit(USART1, USART_IT_RXNE);
 801581c:	f240 5125 	movw	r1, #1317	; 0x525
 8015820:	48c2      	ldr	r0, [pc, #776]	; (8015b2c <USART1_IRQHandler+0x334>)
 8015822:	f7ff fe3c 	bl	801549e <USART_ClearITPendingBit>
		r = USART_ReceiveData(USART1);  //(USART1->DR);	//读取接收到的数据
 8015826:	48c1      	ldr	r0, [pc, #772]	; (8015b2c <USART1_IRQHandler+0x334>)
 8015828:	f7ff fda5 	bl	8015376 <USART_ReceiveData>
 801582c:	4603      	mov	r3, r0
 801582e:	f887 3082 	strb.w	r3, [r7, #130]	; 0x82
		if (USART1_Record_Struct.InfBit.FramLength < (RX_BUF_MAX_LEN - 1))
 8015832:	4bbf      	ldr	r3, [pc, #764]	; (8015b30 <USART1_IRQHandler+0x338>)
 8015834:	f8b3 3400 	ldrh.w	r3, [r3, #1024]	; 0x400
 8015838:	f3c3 030e 	ubfx	r3, r3, #0, #15
 801583c:	b29b      	uxth	r3, r3
 801583e:	461a      	mov	r2, r3
 8015840:	f240 33fe 	movw	r3, #1022	; 0x3fe
 8015844:	429a      	cmp	r2, r3
 8015846:	dc14      	bgt.n	8015872 <USART1_IRQHandler+0x7a>
		{
			USART1_Record_Struct.RX_BUF[USART1_Record_Struct.InfBit.FramLength++] =
 8015848:	4bb9      	ldr	r3, [pc, #740]	; (8015b30 <USART1_IRQHandler+0x338>)
 801584a:	f8b3 3400 	ldrh.w	r3, [r3, #1024]	; 0x400
 801584e:	f3c3 030e 	ubfx	r3, r3, #0, #15
 8015852:	b299      	uxth	r1, r3
 8015854:	1c4b      	adds	r3, r1, #1
 8015856:	f3c3 030e 	ubfx	r3, r3, #0, #15
 801585a:	b298      	uxth	r0, r3
 801585c:	4ab4      	ldr	r2, [pc, #720]	; (8015b30 <USART1_IRQHandler+0x338>)
 801585e:	f8b2 3400 	ldrh.w	r3, [r2, #1024]	; 0x400
 8015862:	f360 030e 	bfi	r3, r0, #0, #15
 8015866:	f8a2 3400 	strh.w	r3, [r2, #1024]	; 0x400
 801586a:	4ab1      	ldr	r2, [pc, #708]	; (8015b30 <USART1_IRQHandler+0x338>)
 801586c:	f897 3082 	ldrb.w	r3, [r7, #130]	; 0x82
 8015870:	5453      	strb	r3, [r2, r1]
					r;
		}
		if (r == ']')
 8015872:	f897 3082 	ldrb.w	r3, [r7, #130]	; 0x82
 8015876:	2b5d      	cmp	r3, #93	; 0x5d
 8015878:	d11b      	bne.n	80158b2 <USART1_IRQHandler+0xba>
		{
			WDeviceID = strtok(USART1_Record_Struct.RX_BUF, "]");
 801587a:	49ae      	ldr	r1, [pc, #696]	; (8015b34 <USART1_IRQHandler+0x33c>)
 801587c:	48ac      	ldr	r0, [pc, #688]	; (8015b30 <USART1_IRQHandler+0x338>)
 801587e:	f000 ff5d 	bl	801673c <strtok>
 8015882:	4602      	mov	r2, r0
 8015884:	4bac      	ldr	r3, [pc, #688]	; (8015b38 <USART1_IRQHandler+0x340>)
 8015886:	601a      	str	r2, [r3, #0]
			printf("write DeviceID=%s\r\n", WDeviceID);
 8015888:	4bab      	ldr	r3, [pc, #684]	; (8015b38 <USART1_IRQHandler+0x340>)
 801588a:	681b      	ldr	r3, [r3, #0]
 801588c:	4619      	mov	r1, r3
 801588e:	48ab      	ldr	r0, [pc, #684]	; (8015b3c <USART1_IRQHandler+0x344>)
 8015890:	f000 fe00 	bl	8016494 <printf>
			STMFLASH_Write(EEPROM_ADDR, (u16 *) WDeviceID, 8);
 8015894:	4ba8      	ldr	r3, [pc, #672]	; (8015b38 <USART1_IRQHandler+0x340>)
 8015896:	681b      	ldr	r3, [r3, #0]
 8015898:	2208      	movs	r2, #8
 801589a:	4619      	mov	r1, r3
 801589c:	48a8      	ldr	r0, [pc, #672]	; (8015b40 <USART1_IRQHandler+0x348>)
 801589e:	f7fb ff21 	bl	80116e4 <STMFLASH_Write>
//			STMFLASH_Read(EEPROM_ADDR, (u16 *) RDeviceID, 8);
//			printf("成功写入设备编号:%s\r\n", RDeviceID);
			USART1_Record_Struct.InfBit.FramLength = 0; //重新开始接收新数据
 80158a2:	4aa3      	ldr	r2, [pc, #652]	; (8015b30 <USART1_IRQHandler+0x338>)
 80158a4:	f8b2 3400 	ldrh.w	r3, [r2, #1024]	; 0x400
 80158a8:	f36f 030e 	bfc	r3, #0, #15
 80158ac:	f8a2 3400 	strh.w	r3, [r2, #1024]	; 0x400
 80158b0:	e1b1      	b.n	8015c16 <USART1_IRQHandler+0x41e>
		}
		else if (r == '$')
 80158b2:	f897 3082 	ldrb.w	r3, [r7, #130]	; 0x82
 80158b6:	2b24      	cmp	r3, #36	; 0x24
 80158b8:	d115      	bne.n	80158e6 <USART1_IRQHandler+0xee>
		{
			res = strtok(USART1_Record_Struct.RX_BUF, "$");
 80158ba:	49a2      	ldr	r1, [pc, #648]	; (8015b44 <USART1_IRQHandler+0x34c>)
 80158bc:	489c      	ldr	r0, [pc, #624]	; (8015b30 <USART1_IRQHandler+0x338>)
 80158be:	f000 ff3d 	bl	801673c <strtok>
 80158c2:	f8c7 0084 	str.w	r0, [r7, #132]	; 0x84
			Send_AT_Cmd(res, "OK", NULL, 500);
 80158c6:	f44f 73fa 	mov.w	r3, #500	; 0x1f4
 80158ca:	2200      	movs	r2, #0
 80158cc:	499e      	ldr	r1, [pc, #632]	; (8015b48 <USART1_IRQHandler+0x350>)
 80158ce:	f8d7 0084 	ldr.w	r0, [r7, #132]	; 0x84
 80158d2:	f7fc fc3d 	bl	8012150 <Send_AT_Cmd>
			USART1_Record_Struct.InfBit.FramLength = 0; //重新开始接收新数据
 80158d6:	4a96      	ldr	r2, [pc, #600]	; (8015b30 <USART1_IRQHandler+0x338>)
 80158d8:	f8b2 3400 	ldrh.w	r3, [r2, #1024]	; 0x400
 80158dc:	f36f 030e 	bfc	r3, #0, #15
 80158e0:	f8a2 3400 	strh.w	r3, [r2, #1024]	; 0x400
 80158e4:	e197      	b.n	8015c16 <USART1_IRQHandler+0x41e>
		}
		else if (r == '#')
 80158e6:	f897 3082 	ldrb.w	r3, [r7, #130]	; 0x82
 80158ea:	2b23      	cmp	r3, #35	; 0x23
 80158ec:	d115      	bne.n	801591a <USART1_IRQHandler+0x122>
		{
			res = strtok(USART1_Record_Struct.RX_BUF, "#");
 80158ee:	4997      	ldr	r1, [pc, #604]	; (8015b4c <USART1_IRQHandler+0x354>)
 80158f0:	488f      	ldr	r0, [pc, #572]	; (8015b30 <USART1_IRQHandler+0x338>)
 80158f2:	f000 ff23 	bl	801673c <strtok>
 80158f6:	f8c7 0084 	str.w	r0, [r7, #132]	; 0x84
			controlPowerbank(hexStr2Byte(res));
 80158fa:	f8d7 0084 	ldr.w	r0, [r7, #132]	; 0x84
 80158fe:	f000 f9ad 	bl	8015c5c <hexStr2Byte>
 8015902:	4603      	mov	r3, r0
 8015904:	4618      	mov	r0, r3
 8015906:	f7fe f83b 	bl	8013980 <controlPowerbank>
			USART1_Record_Struct.InfBit.FramLength = 0; //重新开始接收新数据
 801590a:	4a89      	ldr	r2, [pc, #548]	; (8015b30 <USART1_IRQHandler+0x338>)
 801590c:	f8b2 3400 	ldrh.w	r3, [r2, #1024]	; 0x400
 8015910:	f36f 030e 	bfc	r3, #0, #15
 8015914:	f8a2 3400 	strh.w	r3, [r2, #1024]	; 0x400
 8015918:	e17d      	b.n	8015c16 <USART1_IRQHandler+0x41e>
		}
		else if (r == '%')
 801591a:	f897 3082 	ldrb.w	r3, [r7, #130]	; 0x82
 801591e:	2b25      	cmp	r3, #37	; 0x25
 8015920:	d16d      	bne.n	80159fe <USART1_IRQHandler+0x206>
		{
			res = strtok(USART1_Record_Struct.RX_BUF, "%");
 8015922:	498b      	ldr	r1, [pc, #556]	; (8015b50 <USART1_IRQHandler+0x358>)
 8015924:	4882      	ldr	r0, [pc, #520]	; (8015b30 <USART1_IRQHandler+0x338>)
 8015926:	f000 ff09 	bl	801673c <strtok>
 801592a:	f8c7 0084 	str.w	r0, [r7, #132]	; 0x84
			USART1_Record_Struct.InfBit.FramLength = 0; //重新开始接收新数据
 801592e:	4a80      	ldr	r2, [pc, #512]	; (8015b30 <USART1_IRQHandler+0x338>)
 8015930:	f8b2 3400 	ldrh.w	r3, [r2, #1024]	; 0x400
 8015934:	f36f 030e 	bfc	r3, #0, #15
 8015938:	f8a2 3400 	strh.w	r3, [r2, #1024]	; 0x400
			if (*res == 'l') //亮某个灯
 801593c:	f8d7 3084 	ldr.w	r3, [r7, #132]	; 0x84
 8015940:	781b      	ldrb	r3, [r3, #0]
 8015942:	2b6c      	cmp	r3, #108	; 0x6c
 8015944:	d10c      	bne.n	8015960 <USART1_IRQHandler+0x168>
			{
				mot = *(res + 1) - 0x30;
 8015946:	f8d7 3084 	ldr.w	r3, [r7, #132]	; 0x84
 801594a:	3301      	adds	r3, #1
 801594c:	781b      	ldrb	r3, [r3, #0]
 801594e:	3b30      	subs	r3, #48	; 0x30
 8015950:	f887 3083 	strb.w	r3, [r7, #131]	; 0x83
				ledON(mot);
 8015954:	f897 3083 	ldrb.w	r3, [r7, #131]	; 0x83
 8015958:	4618      	mov	r0, r3
 801595a:	f7fb fbad 	bl	80110b8 <ledON>
 801595e:	e15a      	b.n	8015c16 <USART1_IRQHandler+0x41e>
			}
			else if (*res == 'd') //灭某个灯
 8015960:	f8d7 3084 	ldr.w	r3, [r7, #132]	; 0x84
 8015964:	781b      	ldrb	r3, [r3, #0]
 8015966:	2b64      	cmp	r3, #100	; 0x64
 8015968:	d10c      	bne.n	8015984 <USART1_IRQHandler+0x18c>
			{
				mot = *(res + 1) - 0x30;
 801596a:	f8d7 3084 	ldr.w	r3, [r7, #132]	; 0x84
 801596e:	3301      	adds	r3, #1
 8015970:	781b      	ldrb	r3, [r3, #0]
 8015972:	3b30      	subs	r3, #48	; 0x30
 8015974:	f887 3083 	strb.w	r3, [r7, #131]	; 0x83
				ledOFF(mot);
 8015978:	f897 3083 	ldrb.w	r3, [r7, #131]	; 0x83
 801597c:	4618      	mov	r0, r3
 801597e:	f7fb fbc1 	bl	8011104 <ledOFF>
 8015982:	e148      	b.n	8015c16 <USART1_IRQHandler+0x41e>
			}
			else if (*res == 'a') //直接操作全部
 8015984:	f8d7 3084 	ldr.w	r3, [r7, #132]	; 0x84
 8015988:	781b      	ldrb	r3, [r3, #0]
 801598a:	2b61      	cmp	r3, #97	; 0x61
 801598c:	d10d      	bne.n	80159aa <USART1_IRQHandler+0x1b2>
			{
				res++;
 801598e:	f8d7 3084 	ldr.w	r3, [r7, #132]	; 0x84
 8015992:	3301      	adds	r3, #1
 8015994:	f8c7 3084 	str.w	r3, [r7, #132]	; 0x84
				HC595_Send_Byte(hexStr2Byte(res));
 8015998:	f8d7 0084 	ldr.w	r0, [r7, #132]	; 0x84
 801599c:	f000 f95e 	bl	8015c5c <hexStr2Byte>
 80159a0:	4603      	mov	r3, r0
 80159a2:	4618      	mov	r0, r3
 80159a4:	f7fb fb4a 	bl	801103c <HC595_Send_Byte>
 80159a8:	e135      	b.n	8015c16 <USART1_IRQHandler+0x41e>
			}
			else if (*res == 'u') //允许更新模块固件
 80159aa:	f8d7 3084 	ldr.w	r3, [r7, #132]	; 0x84
 80159ae:	781b      	ldrb	r3, [r3, #0]
 80159b0:	2b75      	cmp	r3, #117	; 0x75
 80159b2:	d103      	bne.n	80159bc <USART1_IRQHandler+0x1c4>
			{
				allowModuleUpdate = 1;
 80159b4:	4b67      	ldr	r3, [pc, #412]	; (8015b54 <USART1_IRQHandler+0x35c>)
 80159b6:	2201      	movs	r2, #1
 80159b8:	701a      	strb	r2, [r3, #0]
 80159ba:	e12c      	b.n	8015c16 <USART1_IRQHandler+0x41e>
			}
			else if (*res == 'c') //读取4G模块的信息
 80159bc:	f8d7 3084 	ldr.w	r3, [r7, #132]	; 0x84
 80159c0:	781b      	ldrb	r3, [r3, #0]
 80159c2:	2b63      	cmp	r3, #99	; 0x63
 80159c4:	d103      	bne.n	80159ce <USART1_IRQHandler+0x1d6>
			{
				allowModuleUpdate = 0;
 80159c6:	4b63      	ldr	r3, [pc, #396]	; (8015b54 <USART1_IRQHandler+0x35c>)
 80159c8:	2200      	movs	r2, #0
 80159ca:	701a      	strb	r2, [r3, #0]
 80159cc:	e123      	b.n	8015c16 <USART1_IRQHandler+0x41e>
			}
			else if (*res == 'r') //读取4G模块的信息
 80159ce:	f8d7 3084 	ldr.w	r3, [r7, #132]	; 0x84
 80159d2:	781b      	ldrb	r3, [r3, #0]
 80159d4:	2b72      	cmp	r3, #114	; 0x72
 80159d6:	f040 811e 	bne.w	8015c16 <USART1_IRQHandler+0x41e>
			{
				PC_USART("%s", F4G_Fram_Record_Struct.Data_RX_BUF);
 80159da:	495f      	ldr	r1, [pc, #380]	; (8015b58 <USART1_IRQHandler+0x360>)
 80159dc:	485f      	ldr	r0, [pc, #380]	; (8015b5c <USART1_IRQHandler+0x364>)
 80159de:	f000 fd59 	bl	8016494 <printf>
				F4G_Fram_Record_Struct.InfBit.FramLength = 0;
 80159e2:	4a5d      	ldr	r2, [pc, #372]	; (8015b58 <USART1_IRQHandler+0x360>)
 80159e4:	f8b2 3a42 	ldrh.w	r3, [r2, #2626]	; 0xa42
 80159e8:	f36f 030e 	bfc	r3, #0, #15
 80159ec:	f8a2 3a42 	strh.w	r3, [r2, #2626]	; 0xa42
				memset(F4G_Fram_Record_Struct.Data_RX_BUF, '\0', RX4G_BUF_MAX_LEN);
 80159f0:	f44f 6280 	mov.w	r2, #1024	; 0x400
 80159f4:	2100      	movs	r1, #0
 80159f6:	4858      	ldr	r0, [pc, #352]	; (8015b58 <USART1_IRQHandler+0x360>)
 80159f8:	f000 fd44 	bl	8016484 <memset>
 80159fc:	e10b      	b.n	8015c16 <USART1_IRQHandler+0x41e>
			}
		}
		else if (r == '@')
 80159fe:	f897 3082 	ldrb.w	r3, [r7, #130]	; 0x82
 8015a02:	2b40      	cmp	r3, #64	; 0x40
 8015a04:	f040 8107 	bne.w	8015c16 <USART1_IRQHandler+0x41e>
		{
			res = strtok(USART1_Record_Struct.RX_BUF, "@");
 8015a08:	4955      	ldr	r1, [pc, #340]	; (8015b60 <USART1_IRQHandler+0x368>)
 8015a0a:	4849      	ldr	r0, [pc, #292]	; (8015b30 <USART1_IRQHandler+0x338>)
 8015a0c:	f000 fe96 	bl	801673c <strtok>
 8015a10:	f8c7 0084 	str.w	r0, [r7, #132]	; 0x84
			USART1_Record_Struct.InfBit.FramLength = 0; //重新开始接收新数据
 8015a14:	4a46      	ldr	r2, [pc, #280]	; (8015b30 <USART1_IRQHandler+0x338>)
 8015a16:	f8b2 3400 	ldrh.w	r3, [r2, #1024]	; 0x400
 8015a1a:	f36f 030e 	bfc	r3, #0, #15
 8015a1e:	f8a2 3400 	strh.w	r3, [r2, #1024]	; 0x400
			if (*res == 't')
 8015a22:	f8d7 3084 	ldr.w	r3, [r7, #132]	; 0x84
 8015a26:	781b      	ldrb	r3, [r3, #0]
 8015a28:	2b74      	cmp	r3, #116	; 0x74
 8015a2a:	d112      	bne.n	8015a52 <USART1_IRQHandler+0x25a>
			{
				mot = *(res + 1) - 0x30;
 8015a2c:	f8d7 3084 	ldr.w	r3, [r7, #132]	; 0x84
 8015a30:	3301      	adds	r3, #1
 8015a32:	781b      	ldrb	r3, [r3, #0]
 8015a34:	3b30      	subs	r3, #48	; 0x30
 8015a36:	f887 3083 	strb.w	r3, [r7, #131]	; 0x83
				printf("Trig the Audio_%d.\r\n", mot);
 8015a3a:	f897 3083 	ldrb.w	r3, [r7, #131]	; 0x83
 8015a3e:	4619      	mov	r1, r3
 8015a40:	4848      	ldr	r0, [pc, #288]	; (8015b64 <USART1_IRQHandler+0x36c>)
 8015a42:	f000 fd27 	bl	8016494 <printf>
				play_audio(mot);
 8015a46:	f897 3083 	ldrb.w	r3, [r7, #131]	; 0x83
 8015a4a:	4618      	mov	r0, r3
 8015a4c:	f7fb fdf0 	bl	8011630 <play_audio>
 8015a50:	e0e1      	b.n	8015c16 <USART1_IRQHandler+0x41e>
			}
			else if (*res == '&')
 8015a52:	f8d7 3084 	ldr.w	r3, [r7, #132]	; 0x84
 8015a56:	781b      	ldrb	r3, [r3, #0]
 8015a58:	2b26      	cmp	r3, #38	; 0x26
 8015a5a:	d118      	bne.n	8015a8e <USART1_IRQHandler+0x296>
			{
				res++;
 8015a5c:	f8d7 3084 	ldr.w	r3, [r7, #132]	; 0x84
 8015a60:	3301      	adds	r3, #1
 8015a62:	f8c7 3084 	str.w	r3, [r7, #132]	; 0x84
//				statu_heart("90");
//				for(int i = 0; i <6; i++)
//				{
//					checkPowerbankStatus(i, usart1TestBuf);
//				}
				checkPowerbankStatus((u8) atoi(res) - 1, usart1TestBuf);
 8015a66:	f8d7 0084 	ldr.w	r0, [r7, #132]	; 0x84
 8015a6a:	f000 fcaf 	bl	80163cc <atoi>
 8015a6e:	4603      	mov	r3, r0
 8015a70:	b2db      	uxtb	r3, r3
 8015a72:	3b01      	subs	r3, #1
 8015a74:	b2db      	uxtb	r3, r3
 8015a76:	493c      	ldr	r1, [pc, #240]	; (8015b68 <USART1_IRQHandler+0x370>)
 8015a78:	4618      	mov	r0, r3
 8015a7a:	f7fd fc31 	bl	80132e0 <checkPowerbankStatus>
				//communicationTest(atoi(res) - 1);
				USART1_Record_Struct.InfBit.FramLength = 0; //重新开始接收新数据
 8015a7e:	4a2c      	ldr	r2, [pc, #176]	; (8015b30 <USART1_IRQHandler+0x338>)
 8015a80:	f8b2 3400 	ldrh.w	r3, [r2, #1024]	; 0x400
 8015a84:	f36f 030e 	bfc	r3, #0, #15
 8015a88:	f8a2 3400 	strh.w	r3, [r2, #1024]	; 0x400
 8015a8c:	e0c3      	b.n	8015c16 <USART1_IRQHandler+0x41e>
			}
			else if (*res == 'e')
 8015a8e:	f8d7 3084 	ldr.w	r3, [r7, #132]	; 0x84
 8015a92:	781b      	ldrb	r3, [r3, #0]
 8015a94:	2b65      	cmp	r3, #101	; 0x65
 8015a96:	d102      	bne.n	8015a9e <USART1_IRQHandler+0x2a6>
			{
				F4G_ExitUnvarnishSend();
 8015a98:	f7fc fc8a 	bl	80123b0 <F4G_ExitUnvarnishSend>
 8015a9c:	e0bb      	b.n	8015c16 <USART1_IRQHandler+0x41e>
			}
			else if (*res == 's')
 8015a9e:	f8d7 3084 	ldr.w	r3, [r7, #132]	; 0x84
 8015aa2:	781b      	ldrb	r3, [r3, #0]
 8015aa4:	2b73      	cmp	r3, #115	; 0x73
 8015aa6:	d10f      	bne.n	8015ac8 <USART1_IRQHandler+0x2d0>
			{
				res++;
 8015aa8:	f8d7 3084 	ldr.w	r3, [r7, #132]	; 0x84
 8015aac:	3301      	adds	r3, #1
 8015aae:	f8c7 3084 	str.w	r3, [r7, #132]	; 0x84
				base64_encode((const unsigned char *) res, buf);
 8015ab2:	463b      	mov	r3, r7
 8015ab4:	4619      	mov	r1, r3
 8015ab6:	f8d7 0084 	ldr.w	r0, [r7, #132]	; 0x84
 8015aba:	f7fe f885 	bl	8013bc8 <base64_encode>
				F4G_sendStr(buf);
 8015abe:	463b      	mov	r3, r7
 8015ac0:	4618      	mov	r0, r3
 8015ac2:	f7fc fc0f 	bl	80122e4 <F4G_sendStr>
 8015ac6:	e0a6      	b.n	8015c16 <USART1_IRQHandler+0x41e>
			}
			else if (*res == 'f')
 8015ac8:	f8d7 3084 	ldr.w	r3, [r7, #132]	; 0x84
 8015acc:	781b      	ldrb	r3, [r3, #0]
 8015ace:	2b66      	cmp	r3, #102	; 0x66
 8015ad0:	d113      	bne.n	8015afa <USART1_IRQHandler+0x302>
			{
				mot = *(res + 1) - 0x30;
 8015ad2:	f8d7 3084 	ldr.w	r3, [r7, #132]	; 0x84
 8015ad6:	3301      	adds	r3, #1
 8015ad8:	781b      	ldrb	r3, [r3, #0]
 8015ada:	3b30      	subs	r3, #48	; 0x30
 8015adc:	f887 3083 	strb.w	r3, [r7, #131]	; 0x83
				printf("now motor forward=%d\r\n", mot);
 8015ae0:	f897 3083 	ldrb.w	r3, [r7, #131]	; 0x83
 8015ae4:	4619      	mov	r1, r3
 8015ae6:	4821      	ldr	r0, [pc, #132]	; (8015b6c <USART1_IRQHandler+0x374>)
 8015ae8:	f000 fcd4 	bl	8016494 <printf>
				motor_run(mot, FORWARD);
 8015aec:	f897 3083 	ldrb.w	r3, [r7, #131]	; 0x83
 8015af0:	2101      	movs	r1, #1
 8015af2:	4618      	mov	r0, r3
 8015af4:	f7fd f832 	bl	8012b5c <motor_run>
 8015af8:	e08d      	b.n	8015c16 <USART1_IRQHandler+0x41e>
			}
			else if (*res == 'b')
 8015afa:	f8d7 3084 	ldr.w	r3, [r7, #132]	; 0x84
 8015afe:	781b      	ldrb	r3, [r3, #0]
 8015b00:	2b62      	cmp	r3, #98	; 0x62
 8015b02:	d137      	bne.n	8015b74 <USART1_IRQHandler+0x37c>
			{
				mot = *(res + 1) - 0x30;
 8015b04:	f8d7 3084 	ldr.w	r3, [r7, #132]	; 0x84
 8015b08:	3301      	adds	r3, #1
 8015b0a:	781b      	ldrb	r3, [r3, #0]
 8015b0c:	3b30      	subs	r3, #48	; 0x30
 8015b0e:	f887 3083 	strb.w	r3, [r7, #131]	; 0x83
				printf("now motor backward=%d\r\n", mot);
 8015b12:	f897 3083 	ldrb.w	r3, [r7, #131]	; 0x83
 8015b16:	4619      	mov	r1, r3
 8015b18:	4815      	ldr	r0, [pc, #84]	; (8015b70 <USART1_IRQHandler+0x378>)
 8015b1a:	f000 fcbb 	bl	8016494 <printf>
				motor_run(mot, BACKWARD);
 8015b1e:	f897 3083 	ldrb.w	r3, [r7, #131]	; 0x83
 8015b22:	2100      	movs	r1, #0
 8015b24:	4618      	mov	r0, r3
 8015b26:	f7fd f819 	bl	8012b5c <motor_run>
 8015b2a:	e074      	b.n	8015c16 <USART1_IRQHandler+0x41e>
 8015b2c:	40013800 	.word	0x40013800
 8015b30:	2000161c 	.word	0x2000161c
 8015b34:	0801b9ec 	.word	0x0801b9ec
 8015b38:	200006d8 	.word	0x200006d8
 8015b3c:	0801b9f0 	.word	0x0801b9f0
 8015b40:	0803f804 	.word	0x0803f804
 8015b44:	0801ba04 	.word	0x0801ba04
 8015b48:	0801ba08 	.word	0x0801ba08
 8015b4c:	0801ba0c 	.word	0x0801ba0c
 8015b50:	0801ba10 	.word	0x0801ba10
 8015b54:	200006c7 	.word	0x200006c7
 8015b58:	200006e4 	.word	0x200006e4
 8015b5c:	0801ba14 	.word	0x0801ba14
 8015b60:	0801ba18 	.word	0x0801ba18
 8015b64:	0801ba1c 	.word	0x0801ba1c
 8015b68:	20001a5c 	.word	0x20001a5c
 8015b6c:	0801ba34 	.word	0x0801ba34
 8015b70:	0801ba4c 	.word	0x0801ba4c
			}
			else if (*res == 'p')
 8015b74:	f8d7 3084 	ldr.w	r3, [r7, #132]	; 0x84
 8015b78:	781b      	ldrb	r3, [r3, #0]
 8015b7a:	2b70      	cmp	r3, #112	; 0x70
 8015b7c:	d112      	bne.n	8015ba4 <USART1_IRQHandler+0x3ac>
			{
				mot = *(res + 1) - 0x30;
 8015b7e:	f8d7 3084 	ldr.w	r3, [r7, #132]	; 0x84
 8015b82:	3301      	adds	r3, #1
 8015b84:	781b      	ldrb	r3, [r3, #0]
 8015b86:	3b30      	subs	r3, #48	; 0x30
 8015b88:	f887 3083 	strb.w	r3, [r7, #131]	; 0x83
				printf("now motor stop=%d\r\n", mot);
 8015b8c:	f897 3083 	ldrb.w	r3, [r7, #131]	; 0x83
 8015b90:	4619      	mov	r1, r3
 8015b92:	482a      	ldr	r0, [pc, #168]	; (8015c3c <USART1_IRQHandler+0x444>)
 8015b94:	f000 fc7e 	bl	8016494 <printf>
				motor_stop(mot);
 8015b98:	f897 3083 	ldrb.w	r3, [r7, #131]	; 0x83
 8015b9c:	4618      	mov	r0, r3
 8015b9e:	f7fd f9f9 	bl	8012f94 <motor_stop>
 8015ba2:	e038      	b.n	8015c16 <USART1_IRQHandler+0x41e>
			}
			else if (*res == 'r')
 8015ba4:	f8d7 3084 	ldr.w	r3, [r7, #132]	; 0x84
 8015ba8:	781b      	ldrb	r3, [r3, #0]
 8015baa:	2b72      	cmp	r3, #114	; 0x72
 8015bac:	d110      	bne.n	8015bd0 <USART1_IRQHandler+0x3d8>
			{
				STMFLASH_Read(EEPROM_ADDR, (u16 *) RDeviceID, 8);
 8015bae:	2208      	movs	r2, #8
 8015bb0:	4923      	ldr	r1, [pc, #140]	; (8015c40 <USART1_IRQHandler+0x448>)
 8015bb2:	4824      	ldr	r0, [pc, #144]	; (8015c44 <USART1_IRQHandler+0x44c>)
 8015bb4:	f7fb fe3e 	bl	8011834 <STMFLASH_Read>
				printf("read DeviceID=%s\r\n", RDeviceID);
 8015bb8:	4921      	ldr	r1, [pc, #132]	; (8015c40 <USART1_IRQHandler+0x448>)
 8015bba:	4823      	ldr	r0, [pc, #140]	; (8015c48 <USART1_IRQHandler+0x450>)
 8015bbc:	f000 fc6a 	bl	8016494 <printf>
				USART1_Record_Struct.InfBit.FramLength = 0; //重新开始接收新数据
 8015bc0:	4a22      	ldr	r2, [pc, #136]	; (8015c4c <USART1_IRQHandler+0x454>)
 8015bc2:	f8b2 3400 	ldrh.w	r3, [r2, #1024]	; 0x400
 8015bc6:	f36f 030e 	bfc	r3, #0, #15
 8015bca:	f8a2 3400 	strh.w	r3, [r2, #1024]	; 0x400
 8015bce:	e022      	b.n	8015c16 <USART1_IRQHandler+0x41e>
			}
			else if (*res == 'x')
 8015bd0:	f8d7 3084 	ldr.w	r3, [r7, #132]	; 0x84
 8015bd4:	781b      	ldrb	r3, [r3, #0]
 8015bd6:	2b78      	cmp	r3, #120	; 0x78
 8015bd8:	d10c      	bne.n	8015bf4 <USART1_IRQHandler+0x3fc>
			{
				printf("now Exchange TX3_RX3\r\n");
 8015bda:	481d      	ldr	r0, [pc, #116]	; (8015c50 <USART1_IRQHandler+0x458>)
 8015bdc:	f000 fcd2 	bl	8016584 <puts>
				TX3_RX3_Exchange;
 8015be0:	4a1c      	ldr	r2, [pc, #112]	; (8015c54 <USART1_IRQHandler+0x45c>)
 8015be2:	4b1c      	ldr	r3, [pc, #112]	; (8015c54 <USART1_IRQHandler+0x45c>)
 8015be4:	681b      	ldr	r3, [r3, #0]
 8015be6:	2b00      	cmp	r3, #0
 8015be8:	bf0c      	ite	eq
 8015bea:	2301      	moveq	r3, #1
 8015bec:	2300      	movne	r3, #0
 8015bee:	b2db      	uxtb	r3, r3
 8015bf0:	6013      	str	r3, [r2, #0]
 8015bf2:	e010      	b.n	8015c16 <USART1_IRQHandler+0x41e>
			}
			else if (*res == 'y')
 8015bf4:	f8d7 3084 	ldr.w	r3, [r7, #132]	; 0x84
 8015bf8:	781b      	ldrb	r3, [r3, #0]
 8015bfa:	2b79      	cmp	r3, #121	; 0x79
 8015bfc:	d10b      	bne.n	8015c16 <USART1_IRQHandler+0x41e>
			{
				mot = *(res + 1) - 0x30;
 8015bfe:	f8d7 3084 	ldr.w	r3, [r7, #132]	; 0x84
 8015c02:	3301      	adds	r3, #1
 8015c04:	781b      	ldrb	r3, [r3, #0]
 8015c06:	3b30      	subs	r3, #48	; 0x30
 8015c08:	f887 3083 	strb.w	r3, [r7, #131]	; 0x83
				communicateWithPort(mot);
 8015c0c:	f897 3083 	ldrb.w	r3, [r7, #131]	; 0x83
 8015c10:	4618      	mov	r0, r3
 8015c12:	f7fd faab 	bl	801316c <communicateWithPort>
			}
		}
	}
	if (USART_GetFlagStatus(USART1, USART_FLAG_ORE) != RESET)
 8015c16:	2108      	movs	r1, #8
 8015c18:	480f      	ldr	r0, [pc, #60]	; (8015c58 <USART1_IRQHandler+0x460>)
 8015c1a:	f7ff fbbb 	bl	8015394 <USART_GetFlagStatus>
 8015c1e:	4603      	mov	r3, r0
 8015c20:	2b00      	cmp	r3, #0
 8015c22:	d006      	beq.n	8015c32 <USART1_IRQHandler+0x43a>
	{
		USART_ClearFlag(USART1, USART_FLAG_ORE);
 8015c24:	2108      	movs	r1, #8
 8015c26:	480c      	ldr	r0, [pc, #48]	; (8015c58 <USART1_IRQHandler+0x460>)
 8015c28:	f7ff fbcf 	bl	80153ca <USART_ClearFlag>
		USART_ReceiveData(USART1);
 8015c2c:	480a      	ldr	r0, [pc, #40]	; (8015c58 <USART1_IRQHandler+0x460>)
 8015c2e:	f7ff fba2 	bl	8015376 <USART_ReceiveData>
	}
}
 8015c32:	bf00      	nop
 8015c34:	3788      	adds	r7, #136	; 0x88
 8015c36:	46bd      	mov	sp, r7
 8015c38:	bd80      	pop	{r7, pc}
 8015c3a:	bf00      	nop
 8015c3c:	0801ba64 	.word	0x0801ba64
 8015c40:	200022c0 	.word	0x200022c0
 8015c44:	0803f804 	.word	0x0803f804
 8015c48:	0801ba78 	.word	0x0801ba78
 8015c4c:	2000161c 	.word	0x2000161c
 8015c50:	0801ba8c 	.word	0x0801ba8c
 8015c54:	422201a0 	.word	0x422201a0
 8015c58:	40013800 	.word	0x40013800

08015c5c <hexStr2Byte>:

u8 hexStr2Byte(char *hexStr)
{
 8015c5c:	b480      	push	{r7}
 8015c5e:	b085      	sub	sp, #20
 8015c60:	af00      	add	r7, sp, #0
 8015c62:	6078      	str	r0, [r7, #4]
	unsigned char highByte, lowByte;
	highByte = *hexStr;
 8015c64:	687b      	ldr	r3, [r7, #4]
 8015c66:	781b      	ldrb	r3, [r3, #0]
 8015c68:	73fb      	strb	r3, [r7, #15]
	lowByte = *(hexStr + 1);
 8015c6a:	687b      	ldr	r3, [r7, #4]
 8015c6c:	3301      	adds	r3, #1
 8015c6e:	781b      	ldrb	r3, [r3, #0]
 8015c70:	73bb      	strb	r3, [r7, #14]

	if (highByte > 0x39)
 8015c72:	7bfb      	ldrb	r3, [r7, #15]
 8015c74:	2b39      	cmp	r3, #57	; 0x39
 8015c76:	d903      	bls.n	8015c80 <hexStr2Byte+0x24>
		highByte -= 0x37;
 8015c78:	7bfb      	ldrb	r3, [r7, #15]
 8015c7a:	3b37      	subs	r3, #55	; 0x37
 8015c7c:	73fb      	strb	r3, [r7, #15]
 8015c7e:	e002      	b.n	8015c86 <hexStr2Byte+0x2a>
	else
		highByte -= 0x30;
 8015c80:	7bfb      	ldrb	r3, [r7, #15]
 8015c82:	3b30      	subs	r3, #48	; 0x30
 8015c84:	73fb      	strb	r3, [r7, #15]

	if (lowByte > 0x39)
 8015c86:	7bbb      	ldrb	r3, [r7, #14]
 8015c88:	2b39      	cmp	r3, #57	; 0x39
 8015c8a:	d903      	bls.n	8015c94 <hexStr2Byte+0x38>
		lowByte -= 0x37;
 8015c8c:	7bbb      	ldrb	r3, [r7, #14]
 8015c8e:	3b37      	subs	r3, #55	; 0x37
 8015c90:	73bb      	strb	r3, [r7, #14]
 8015c92:	e002      	b.n	8015c9a <hexStr2Byte+0x3e>
	else
		lowByte -= 0x30;
 8015c94:	7bbb      	ldrb	r3, [r7, #14]
 8015c96:	3b30      	subs	r3, #48	; 0x30
 8015c98:	73bb      	strb	r3, [r7, #14]

	return (u8) ((highByte << 4) | lowByte);
 8015c9a:	7bfb      	ldrb	r3, [r7, #15]
 8015c9c:	011b      	lsls	r3, r3, #4
 8015c9e:	b25a      	sxtb	r2, r3
 8015ca0:	f997 300e 	ldrsb.w	r3, [r7, #14]
 8015ca4:	4313      	orrs	r3, r2
 8015ca6:	b25b      	sxtb	r3, r3
 8015ca8:	b2db      	uxtb	r3, r3
}
 8015caa:	4618      	mov	r0, r3
 8015cac:	3714      	adds	r7, #20
 8015cae:	46bd      	mov	sp, r7
 8015cb0:	bc80      	pop	{r7}
 8015cb2:	4770      	bx	lr

08015cb4 <NVIC_SystemReset>:
{
 8015cb4:	b480      	push	{r7}
 8015cb6:	af00      	add	r7, sp, #0
 8015cb8:	f3bf 8f4f 	dsb	sy
  SCB->AIRCR  = ((0x5FA << SCB_AIRCR_VECTKEY_Pos)      |
 8015cbc:	4905      	ldr	r1, [pc, #20]	; (8015cd4 <NVIC_SystemReset+0x20>)
                 (SCB->AIRCR & SCB_AIRCR_PRIGROUP_Msk) |
 8015cbe:	4b05      	ldr	r3, [pc, #20]	; (8015cd4 <NVIC_SystemReset+0x20>)
 8015cc0:	68db      	ldr	r3, [r3, #12]
 8015cc2:	f403 62e0 	and.w	r2, r3, #1792	; 0x700
 8015cc6:	4b04      	ldr	r3, [pc, #16]	; (8015cd8 <NVIC_SystemReset+0x24>)
 8015cc8:	4313      	orrs	r3, r2
  SCB->AIRCR  = ((0x5FA << SCB_AIRCR_VECTKEY_Pos)      |
 8015cca:	60cb      	str	r3, [r1, #12]
 8015ccc:	f3bf 8f4f 	dsb	sy
  while(1);                                                    /* wait until reset */
 8015cd0:	e7fe      	b.n	8015cd0 <NVIC_SystemReset+0x1c>
 8015cd2:	bf00      	nop
 8015cd4:	e000ed00 	.word	0xe000ed00
 8015cd8:	05fa0004 	.word	0x05fa0004

08015cdc <RunApp>:

pFunction Jump_To_Application;
uint32_t JumpAddress;

void RunApp(void)
{
 8015cdc:	b580      	push	{r7, lr}
 8015cde:	b082      	sub	sp, #8
 8015ce0:	af00      	add	r7, sp, #0
	if (((*(__IO uint32_t*) ApplicationAddress) & 0x2FFE0000) == 0x20000000)
 8015ce2:	4b1a      	ldr	r3, [pc, #104]	; (8015d4c <RunApp+0x70>)
 8015ce4:	681a      	ldr	r2, [r3, #0]
 8015ce6:	4b1a      	ldr	r3, [pc, #104]	; (8015d50 <RunApp+0x74>)
 8015ce8:	4013      	ands	r3, r2
 8015cea:	f1b3 5f00 	cmp.w	r3, #536870912	; 0x20000000
 8015cee:	d124      	bne.n	8015d3a <RunApp+0x5e>
	{
		printf("\r\nRun to app.\r\n");
 8015cf0:	4818      	ldr	r0, [pc, #96]	; (8015d54 <RunApp+0x78>)
 8015cf2:	f000 fc47 	bl	8016584 <puts>
		RCC_DeInit(); //关闭外设
 8015cf6:	f7fe fd57 	bl	80147a8 <RCC_DeInit>
  This function disables IRQ interrupts by setting the I-bit in the CPSR.
  Can only be executed in Privileged modes.
 */
__attribute__( ( always_inline ) ) static __INLINE void __disable_irq(void)
{
  __ASM volatile ("cpsid i");
 8015cfa:	b672      	cpsid	i
		__disable_irq();
		TIM_Cmd(TIM4, DISABLE); //关闭定时器4
 8015cfc:	2100      	movs	r1, #0
 8015cfe:	4816      	ldr	r0, [pc, #88]	; (8015d58 <RunApp+0x7c>)
 8015d00:	f7ff f930 	bl	8014f64 <TIM_Cmd>
		USART_Cmd(USART1, DISABLE);
 8015d04:	2100      	movs	r1, #0
 8015d06:	4815      	ldr	r0, [pc, #84]	; (8015d5c <RunApp+0x80>)
 8015d08:	f7ff fabe 	bl	8015288 <USART_Cmd>
		USART_Cmd(USART2, DISABLE);
 8015d0c:	2100      	movs	r1, #0
 8015d0e:	4814      	ldr	r0, [pc, #80]	; (8015d60 <RunApp+0x84>)
 8015d10:	f7ff faba 	bl	8015288 <USART_Cmd>
		JumpAddress = *(__IO uint32_t*) (ApplicationAddress + 4);
 8015d14:	4b13      	ldr	r3, [pc, #76]	; (8015d64 <RunApp+0x88>)
 8015d16:	681b      	ldr	r3, [r3, #0]
 8015d18:	4a13      	ldr	r2, [pc, #76]	; (8015d68 <RunApp+0x8c>)
 8015d1a:	6013      	str	r3, [r2, #0]
		Jump_To_Application = (pFunction) JumpAddress;
 8015d1c:	4b12      	ldr	r3, [pc, #72]	; (8015d68 <RunApp+0x8c>)
 8015d1e:	681b      	ldr	r3, [r3, #0]
 8015d20:	461a      	mov	r2, r3
 8015d22:	4b12      	ldr	r3, [pc, #72]	; (8015d6c <RunApp+0x90>)
 8015d24:	601a      	str	r2, [r3, #0]
		__set_MSP(*(__IO uint32_t*) ApplicationAddress);
 8015d26:	4b09      	ldr	r3, [pc, #36]	; (8015d4c <RunApp+0x70>)
 8015d28:	681b      	ldr	r3, [r3, #0]
 8015d2a:	607b      	str	r3, [r7, #4]

    \param [in]    topOfMainStack  Main Stack Pointer value to set
 */
__attribute__( ( always_inline ) ) static __INLINE void __set_MSP(uint32_t topOfMainStack)
{
  __ASM volatile ("MSR msp, %0\n" : : "r" (topOfMainStack) );
 8015d2c:	687b      	ldr	r3, [r7, #4]
 8015d2e:	f383 8808 	msr	MSP, r3
		Jump_To_Application();
 8015d32:	4b0e      	ldr	r3, [pc, #56]	; (8015d6c <RunApp+0x90>)
 8015d34:	681b      	ldr	r3, [r3, #0]
 8015d36:	4798      	blx	r3
	else
	{
		printf("\r\nRun to app error.\r\n");
		NVIC_SystemReset(); //跳转失败，重启系统
	}
}
 8015d38:	e004      	b.n	8015d44 <RunApp+0x68>
		printf("\r\nRun to app error.\r\n");
 8015d3a:	480d      	ldr	r0, [pc, #52]	; (8015d70 <RunApp+0x94>)
 8015d3c:	f000 fc22 	bl	8016584 <puts>
		NVIC_SystemReset(); //跳转失败，重启系统
 8015d40:	f7ff ffb8 	bl	8015cb4 <NVIC_SystemReset>
}
 8015d44:	bf00      	nop
 8015d46:	3708      	adds	r7, #8
 8015d48:	46bd      	mov	sp, r7
 8015d4a:	bd80      	pop	{r7, pc}
 8015d4c:	08010000 	.word	0x08010000
 8015d50:	2ffe0000 	.word	0x2ffe0000
 8015d54:	0801baa4 	.word	0x0801baa4
 8015d58:	40000800 	.word	0x40000800
 8015d5c:	40013800 	.word	0x40013800
 8015d60:	40004400 	.word	0x40004400
 8015d64:	08010004 	.word	0x08010004
 8015d68:	2000232c 	.word	0x2000232c
 8015d6c:	20002330 	.word	0x20002330
 8015d70:	0801bab4 	.word	0x0801bab4

08015d74 <HSI_SetSysClock>:
#include "app.h"

//volatile u8 curPort = 0xFF;

void HSI_SetSysClock(uint32_t pllmul)
{
 8015d74:	b580      	push	{r7, lr}
 8015d76:	b084      	sub	sp, #16
 8015d78:	af00      	add	r7, sp, #0
 8015d7a:	6078      	str	r0, [r7, #4]
	__IO uint32_t HSIStartUpStatus = 0;
 8015d7c:	2300      	movs	r3, #0
 8015d7e:	60fb      	str	r3, [r7, #12]

	// 把 RCC 外设初始化成复位状态，这句是必须的
	RCC_DeInit();
 8015d80:	f7fe fd12 	bl	80147a8 <RCC_DeInit>

	//使能 HSI
	RCC_HSICmd(ENABLE);
 8015d84:	2001      	movs	r0, #1
 8015d86:	f7fe fd3d 	bl	8014804 <RCC_HSICmd>

	// 等待 HSI 就绪
	HSIStartUpStatus = RCC->CR & RCC_CR_HSIRDY;
 8015d8a:	4b1a      	ldr	r3, [pc, #104]	; (8015df4 <HSI_SetSysClock+0x80>)
 8015d8c:	681b      	ldr	r3, [r3, #0]
 8015d8e:	f003 0302 	and.w	r3, r3, #2
 8015d92:	60fb      	str	r3, [r7, #12]

	// 只有 HSI 就绪之后则继续往下执行
	if (HSIStartUpStatus == RCC_CR_HSIRDY)
 8015d94:	68fb      	ldr	r3, [r7, #12]
 8015d96:	2b02      	cmp	r3, #2
 8015d98:	d127      	bne.n	8015dea <HSI_SetSysClock+0x76>
	{
		//-------------------------------------------------------------//

		// 使能 FLASH 预存取缓冲区
		FLASH_PrefetchBufferCmd(FLASH_PrefetchBuffer_Enable);
 8015d9a:	2010      	movs	r0, #16
 8015d9c:	f7fe fabe 	bl	801431c <FLASH_PrefetchBufferCmd>
		// 设置成 2 的时候，SYSCLK 低于 48M 也可以工作，如果设置成 0 或者 1 的时候，
		// 如果配置的 SYSCLK 超出了范围的话，则会进入硬件错误，程序就死了
		// 0：0 < SYSCLK <= 24M
		// 1：24< SYSCLK <= 48M
		// 2：48< SYSCLK <= 72M
		FLASH_SetLatency(FLASH_Latency_2);
 8015da0:	2002      	movs	r0, #2
 8015da2:	f7fe fa9f 	bl	80142e4 <FLASH_SetLatency>
		//------------------------------------------------------------//

		// AHB 预分频因子设置为 1 分频，HCLK = SYSCLK
		RCC_HCLKConfig(RCC_SYSCLK_Div1);
 8015da6:	2000      	movs	r0, #0
 8015da8:	f7fe fd94 	bl	80148d4 <RCC_HCLKConfig>

		// APB2 预分频因子设置为 1 分频，PCLK2 = HCLK
		RCC_PCLK2Config(RCC_HCLK_Div1);
 8015dac:	2000      	movs	r0, #0
 8015dae:	f7fe fdc9 	bl	8014944 <RCC_PCLK2Config>

		// APB1 预分频因子设置为 1 分频，PCLK1 = HCLK/2
		RCC_PCLK1Config(RCC_HCLK_Div2);
 8015db2:	f44f 6080 	mov.w	r0, #1024	; 0x400
 8015db6:	f7fe fda9 	bl	801490c <RCC_PCLK1Config>

		//-----------设置各种频率主要就是在这里设置-------------------//
		// 设置 PLL 时钟来源为 HSE，设置 PLL 倍频因子
		// PLLCLK = 4MHz * pllmul
		RCC_PLLConfig(RCC_PLLSource_HSI_Div2, pllmul);
 8015dba:	6879      	ldr	r1, [r7, #4]
 8015dbc:	2000      	movs	r0, #0
 8015dbe:	f7fe fd31 	bl	8014824 <RCC_PLLConfig>
		//-- -----------------------------------------------------//

		// 开启 PLL
		RCC_PLLCmd(ENABLE);
 8015dc2:	2001      	movs	r0, #1
 8015dc4:	f7fe fd4c 	bl	8014860 <RCC_PLLCmd>

		// 等待 PLL 稳定
		while (RCC_GetFlagStatus(RCC_FLAG_PLLRDY) == RESET)
 8015dc8:	bf00      	nop
 8015dca:	2039      	movs	r0, #57	; 0x39
 8015dcc:	f7fe fefe 	bl	8014bcc <RCC_GetFlagStatus>
 8015dd0:	4603      	mov	r3, r0
 8015dd2:	2b00      	cmp	r3, #0
 8015dd4:	d0f9      	beq.n	8015dca <HSI_SetSysClock+0x56>
		{
		}

		// 当 PLL 稳定之后，把 PLL 时钟切换为系统时钟 SYSCLK
		RCC_SYSCLKConfig(RCC_SYSCLKSource_PLLCLK);
 8015dd6:	2002      	movs	r0, #2
 8015dd8:	f7fe fd52 	bl	8014880 <RCC_SYSCLKConfig>

		// 读取时钟切换状态位，确保 PLLCLK 被选为系统时钟
		while (RCC_GetSYSCLKSource() != 0x08)
 8015ddc:	bf00      	nop
 8015dde:	f7fe fd6b 	bl	80148b8 <RCC_GetSYSCLKSource>
 8015de2:	4603      	mov	r3, r0
 8015de4:	2b08      	cmp	r3, #8
 8015de6:	d1fa      	bne.n	8015dde <HSI_SetSysClock+0x6a>
		while (1)
		{

		}
	}
}
 8015de8:	e000      	b.n	8015dec <HSI_SetSysClock+0x78>
		while (1)
 8015dea:	e7fe      	b.n	8015dea <HSI_SetSysClock+0x76>
}
 8015dec:	3710      	adds	r7, #16
 8015dee:	46bd      	mov	sp, r7
 8015df0:	bd80      	pop	{r7, pc}
 8015df2:	bf00      	nop
 8015df4:	40021000 	.word	0x40021000

08015df8 <main>:
 **  Abstract: main program
 **
 **===========================================================================
 */
int main(void)
{
 8015df8:	b580      	push	{r7, lr}
 8015dfa:	b082      	sub	sp, #8
 8015dfc:	af00      	add	r7, sp, #0
	int i = 0;
 8015dfe:	2300      	movs	r3, #0
 8015e00:	607b      	str	r3, [r7, #4]
//	SystemInit();
	HSI_SetSysClock(RCC_PLLMul_9);
 8015e02:	f44f 10e0 	mov.w	r0, #1835008	; 0x1c0000
 8015e06:	f7ff ffb5 	bl	8015d74 <HSI_SetSysClock>
	NVIC_SetVectorTable(NVIC_VectTab_FLASH, 0x10000);
 8015e0a:	f44f 3180 	mov.w	r1, #65536	; 0x10000
 8015e0e:	f04f 6000 	mov.w	r0, #134217728	; 0x8000000
 8015e12:	f7fe fa35 	bl	8014280 <NVIC_SetVectorTable>
  __ASM volatile ("cpsie i");
 8015e16:	b662      	cpsie	i
	__enable_irq(); //开启总中断
	SysTick_Init(36);
 8015e18:	2024      	movs	r0, #36	; 0x24
 8015e1a:	f7ff fb5d 	bl	80154d8 <SysTick_Init>
	NVIC_PriorityGroupConfig(NVIC_PriorityGroup_2);  //中断优先级分组 分2组S
 8015e1e:	f44f 60a0 	mov.w	r0, #1280	; 0x500
 8015e22:	f7fe f9b9 	bl	8014198 <NVIC_PriorityGroupConfig>
	USART1_Init(115200);
 8015e26:	f44f 30e1 	mov.w	r0, #115200	; 0x1c200
 8015e2a:	f7ff fbdf 	bl	80155ec <USART1_Init>
	printf("Now In APP\r\n");
 8015e2e:	4881      	ldr	r0, [pc, #516]	; (8016034 <main+0x23c>)
 8015e30:	f000 fba8 	bl	8016584 <puts>
//	WIFI_Init(115200);
	Init_74HC165();
 8015e34:	f7fb f822 	bl	8010e7c <Init_74HC165>
	Init_Audio();
 8015e38:	f7fb fbde 	bl	80115f8 <Init_Audio>
	Init_Motor();
 8015e3c:	f7fc fe42 	bl	8012ac4 <Init_Motor>
	Init_BAT_Charge();
 8015e40:	f7fd fe38 	bl	8013ab4 <Init_BAT_Charge>
	Init_Bat_Usart(115200);
 8015e44:	f44f 30e1 	mov.w	r0, #115200	; 0x1c200
 8015e48:	f7fd f962 	bl	8013110 <Init_Bat_Usart>
	Init_74HC595();
 8015e4c:	f7fb f8bc 	bl	8010fc8 <Init_74HC595>
	Init_led();
 8015e50:	f7fb fd6c 	bl	801192c <Init_led>
	TIM4_Init(10, 36000 - 1); //10ms
 8015e54:	f648 419f 	movw	r1, #35999	; 0x8c9f
 8015e58:	200a      	movs	r0, #10
 8015e5a:	f7fb f99b 	bl	8011194 <TIM4_Init>
	//scanPowerBank();
	F4G_Init(115200);
 8015e5e:	f44f 30e1 	mov.w	r0, #115200	; 0x1c200
 8015e62:	f7fb fdf7 	bl	8011a54 <F4G_Init>
//			F4G_Params.linkedClosed = 0;
//			printf("TCP connect was closed\r\n");
//			checkLinkedStatus();
//		}
		//系统弹出
		if (F4G_Params.sysTC)
 8015e66:	4b74      	ldr	r3, [pc, #464]	; (8016038 <main+0x240>)
 8015e68:	789b      	ldrb	r3, [r3, #2]
 8015e6a:	b2db      	uxtb	r3, r3
 8015e6c:	2b00      	cmp	r3, #0
 8015e6e:	d028      	beq.n	8015ec2 <main+0xca>
		{
			F4G_Params.sysTC = 0;
 8015e70:	4b71      	ldr	r3, [pc, #452]	; (8016038 <main+0x240>)
 8015e72:	2200      	movs	r2, #0
 8015e74:	709a      	strb	r2, [r3, #2]
			if (curPort != F4G_Params.port)
 8015e76:	4b71      	ldr	r3, [pc, #452]	; (801603c <main+0x244>)
 8015e78:	781b      	ldrb	r3, [r3, #0]
 8015e7a:	b2db      	uxtb	r3, r3
 8015e7c:	461a      	mov	r2, r3
 8015e7e:	4b6e      	ldr	r3, [pc, #440]	; (8016038 <main+0x240>)
 8015e80:	689b      	ldr	r3, [r3, #8]
 8015e82:	429a      	cmp	r2, r3
 8015e84:	f000 80b3 	beq.w	8015fee <main+0x1f6>
			{
				curPort = F4G_Params.port;
 8015e88:	4b6b      	ldr	r3, [pc, #428]	; (8016038 <main+0x240>)
 8015e8a:	689b      	ldr	r3, [r3, #8]
 8015e8c:	b2da      	uxtb	r2, r3
 8015e8e:	4b6b      	ldr	r3, [pc, #428]	; (801603c <main+0x244>)
 8015e90:	701a      	strb	r2, [r3, #0]
				popUP_powerBank(F4G_Params.port + 1, F4G_Params.play);
 8015e92:	4b69      	ldr	r3, [pc, #420]	; (8016038 <main+0x240>)
 8015e94:	689b      	ldr	r3, [r3, #8]
 8015e96:	b2db      	uxtb	r3, r3
 8015e98:	3301      	adds	r3, #1
 8015e9a:	b2da      	uxtb	r2, r3
 8015e9c:	4b66      	ldr	r3, [pc, #408]	; (8016038 <main+0x240>)
 8015e9e:	f893 3020 	ldrb.w	r3, [r3, #32]
 8015ea2:	b2db      	uxtb	r3, r3
 8015ea4:	4619      	mov	r1, r3
 8015ea6:	4610      	mov	r0, r2
 8015ea8:	f7fc feda 	bl	8012c60 <popUP_powerBank>
				sys_tc(F4G_Params.port, F4G_Params.cmd);
 8015eac:	4b62      	ldr	r3, [pc, #392]	; (8016038 <main+0x240>)
 8015eae:	689b      	ldr	r3, [r3, #8]
 8015eb0:	b2db      	uxtb	r3, r3
 8015eb2:	4963      	ldr	r1, [pc, #396]	; (8016040 <main+0x248>)
 8015eb4:	4618      	mov	r0, r3
 8015eb6:	f7fc fd43 	bl	8012940 <sys_tc>
				//curPort = 0xFF;
				allowTCSamePort = 1;
 8015eba:	4b62      	ldr	r3, [pc, #392]	; (8016044 <main+0x24c>)
 8015ebc:	2201      	movs	r2, #1
 8015ebe:	701a      	strb	r2, [r3, #0]
 8015ec0:	e095      	b.n	8015fee <main+0x1f6>
				//printf("bool=%d\r\n", allowTCSamePort);
			}
		}
		//订单弹出
		else if (F4G_Params.ddTC)
 8015ec2:	4b5d      	ldr	r3, [pc, #372]	; (8016038 <main+0x240>)
 8015ec4:	78db      	ldrb	r3, [r3, #3]
 8015ec6:	b2db      	uxtb	r3, r3
 8015ec8:	2b00      	cmp	r3, #0
 8015eca:	d024      	beq.n	8015f16 <main+0x11e>
		{
			F4G_Params.ddTC = 0;
 8015ecc:	4b5a      	ldr	r3, [pc, #360]	; (8016038 <main+0x240>)
 8015ece:	2200      	movs	r2, #0
 8015ed0:	70da      	strb	r2, [r3, #3]
			if (curPort != F4G_Params.port)
 8015ed2:	4b5a      	ldr	r3, [pc, #360]	; (801603c <main+0x244>)
 8015ed4:	781b      	ldrb	r3, [r3, #0]
 8015ed6:	b2db      	uxtb	r3, r3
 8015ed8:	461a      	mov	r2, r3
 8015eda:	4b57      	ldr	r3, [pc, #348]	; (8016038 <main+0x240>)
 8015edc:	689b      	ldr	r3, [r3, #8]
 8015ede:	429a      	cmp	r2, r3
 8015ee0:	f000 8085 	beq.w	8015fee <main+0x1f6>
			{
				curPort = F4G_Params.port;
 8015ee4:	4b54      	ldr	r3, [pc, #336]	; (8016038 <main+0x240>)
 8015ee6:	689b      	ldr	r3, [r3, #8]
 8015ee8:	b2da      	uxtb	r2, r3
 8015eea:	4b54      	ldr	r3, [pc, #336]	; (801603c <main+0x244>)
 8015eec:	701a      	strb	r2, [r3, #0]
				popUP_powerBank(F4G_Params.port + 1, 1);
 8015eee:	4b52      	ldr	r3, [pc, #328]	; (8016038 <main+0x240>)
 8015ef0:	689b      	ldr	r3, [r3, #8]
 8015ef2:	b2db      	uxtb	r3, r3
 8015ef4:	3301      	adds	r3, #1
 8015ef6:	b2db      	uxtb	r3, r3
 8015ef8:	2101      	movs	r1, #1
 8015efa:	4618      	mov	r0, r3
 8015efc:	f7fc feb0 	bl	8012c60 <popUP_powerBank>
				dd_tc(F4G_Params.port, "41");
 8015f00:	4b4d      	ldr	r3, [pc, #308]	; (8016038 <main+0x240>)
 8015f02:	689b      	ldr	r3, [r3, #8]
 8015f04:	b2db      	uxtb	r3, r3
 8015f06:	4950      	ldr	r1, [pc, #320]	; (8016048 <main+0x250>)
 8015f08:	4618      	mov	r0, r3
 8015f0a:	f7fc fcbd 	bl	8012888 <dd_tc>
				//curPort = 0xFF;
				allowTCSamePort = 1;
 8015f0e:	4b4d      	ldr	r3, [pc, #308]	; (8016044 <main+0x24c>)
 8015f10:	2201      	movs	r2, #1
 8015f12:	701a      	strb	r2, [r3, #0]
 8015f14:	e06b      	b.n	8015fee <main+0x1f6>
			}
		}
		//状态心跳
		else if (F4G_Params.STHeart)
 8015f16:	4b48      	ldr	r3, [pc, #288]	; (8016038 <main+0x240>)
 8015f18:	781b      	ldrb	r3, [r3, #0]
 8015f1a:	b2db      	uxtb	r3, r3
 8015f1c:	2b00      	cmp	r3, #0
 8015f1e:	d008      	beq.n	8015f32 <main+0x13a>
		{
			//curPort = 0xFF; //状态心跳时取消弹出禁止
			F4G_Params.STHeart = 0;
 8015f20:	4b45      	ldr	r3, [pc, #276]	; (8016038 <main+0x240>)
 8015f22:	2200      	movs	r2, #0
 8015f24:	701a      	strb	r2, [r3, #0]
			scanPowerBank();
 8015f26:	f7fd fad1 	bl	80134cc <scanPowerBank>
			statu_heart(F4G_Params.htCMD);
 8015f2a:	4848      	ldr	r0, [pc, #288]	; (801604c <main+0x254>)
 8015f2c:	f7fc fc5c 	bl	80127e8 <statu_heart>
 8015f30:	e05d      	b.n	8015fee <main+0x1f6>
		}
		//强制心跳
		else if (F4G_Params.reqSTheart)
 8015f32:	4b41      	ldr	r3, [pc, #260]	; (8016038 <main+0x240>)
 8015f34:	785b      	ldrb	r3, [r3, #1]
 8015f36:	b2db      	uxtb	r3, r3
 8015f38:	2b00      	cmp	r3, #0
 8015f3a:	d008      	beq.n	8015f4e <main+0x156>
		{
			F4G_Params.reqSTheart = 0;
 8015f3c:	4b3e      	ldr	r3, [pc, #248]	; (8016038 <main+0x240>)
 8015f3e:	2200      	movs	r2, #0
 8015f40:	705a      	strb	r2, [r3, #1]
			scanPowerBank();
 8015f42:	f7fd fac3 	bl	80134cc <scanPowerBank>
			statu_heart(F4G_Params.htCMD);
 8015f46:	4841      	ldr	r0, [pc, #260]	; (801604c <main+0x254>)
 8015f48:	f7fc fc4e 	bl	80127e8 <statu_heart>
 8015f4c:	e04f      	b.n	8015fee <main+0x1f6>
		}
		else if (F4G_Params.checkPBst)
 8015f4e:	4b3a      	ldr	r3, [pc, #232]	; (8016038 <main+0x240>)
 8015f50:	f893 3031 	ldrb.w	r3, [r3, #49]	; 0x31
 8015f54:	b2db      	uxtb	r3, r3
 8015f56:	2b00      	cmp	r3, #0
 8015f58:	d049      	beq.n	8015fee <main+0x1f6>
//		else
		{
			F4G_Params.checkPBst = 0;
 8015f5a:	4b37      	ldr	r3, [pc, #220]	; (8016038 <main+0x240>)
 8015f5c:	2200      	movs	r2, #0
 8015f5e:	f883 2031 	strb.w	r2, [r3, #49]	; 0x31
			for (i = 0; i < 6; i++)
 8015f62:	2300      	movs	r3, #0
 8015f64:	607b      	str	r3, [r7, #4]
 8015f66:	e03f      	b.n	8015fe8 <main+0x1f0>
			{
				F4G_Params.currentStatuCode[i] = checkPowerbankStatus(i,
 8015f68:	687b      	ldr	r3, [r7, #4]
 8015f6a:	b2d8      	uxtb	r0, r3
						powerbankStatu.powerBankBuf[i]);
 8015f6c:	687a      	ldr	r2, [r7, #4]
 8015f6e:	4613      	mov	r3, r2
 8015f70:	00db      	lsls	r3, r3, #3
 8015f72:	4413      	add	r3, r2
 8015f74:	005b      	lsls	r3, r3, #1
 8015f76:	3310      	adds	r3, #16
 8015f78:	4a35      	ldr	r2, [pc, #212]	; (8016050 <main+0x258>)
 8015f7a:	4413      	add	r3, r2
 8015f7c:	3305      	adds	r3, #5
				F4G_Params.currentStatuCode[i] = checkPowerbankStatus(i,
 8015f7e:	4619      	mov	r1, r3
 8015f80:	f7fd f9ae 	bl	80132e0 <checkPowerbankStatus>
 8015f84:	4603      	mov	r3, r0
 8015f86:	4619      	mov	r1, r3
 8015f88:	4a2b      	ldr	r2, [pc, #172]	; (8016038 <main+0x240>)
 8015f8a:	687b      	ldr	r3, [r7, #4]
 8015f8c:	4413      	add	r3, r2
 8015f8e:	3327      	adds	r3, #39	; 0x27
 8015f90:	460a      	mov	r2, r1
 8015f92:	701a      	strb	r2, [r3, #0]

//				if ((F4G_Params.currentStatuCode[i] != F4G_Params.statuCode[i])
//						&& F4G_Params.allowCheckChange)
				if ((F4G_Params.currentStatuCode[i] != F4G_Params.statuCode[i]))
 8015f94:	4a28      	ldr	r2, [pc, #160]	; (8016038 <main+0x240>)
 8015f96:	687b      	ldr	r3, [r7, #4]
 8015f98:	4413      	add	r3, r2
 8015f9a:	3327      	adds	r3, #39	; 0x27
 8015f9c:	781a      	ldrb	r2, [r3, #0]
 8015f9e:	4926      	ldr	r1, [pc, #152]	; (8016038 <main+0x240>)
 8015fa0:	687b      	ldr	r3, [r7, #4]
 8015fa2:	440b      	add	r3, r1
 8015fa4:	3321      	adds	r3, #33	; 0x21
 8015fa6:	781b      	ldrb	r3, [r3, #0]
 8015fa8:	429a      	cmp	r2, r3
 8015faa:	d01a      	beq.n	8015fe2 <main+0x1ea>
				{
					if (curPort == i)
 8015fac:	4b23      	ldr	r3, [pc, #140]	; (801603c <main+0x244>)
 8015fae:	781b      	ldrb	r3, [r3, #0]
 8015fb0:	b2db      	uxtb	r3, r3
 8015fb2:	461a      	mov	r2, r3
 8015fb4:	687b      	ldr	r3, [r7, #4]
 8015fb6:	429a      	cmp	r2, r3
 8015fb8:	d102      	bne.n	8015fc0 <main+0x1c8>
					{
						curPort = 0xFF;
 8015fba:	4b20      	ldr	r3, [pc, #128]	; (801603c <main+0x244>)
 8015fbc:	22ff      	movs	r2, #255	; 0xff
 8015fbe:	701a      	strb	r2, [r3, #0]
					}
					F4G_Params.statuCode[i] = F4G_Params.currentStatuCode[i]; //记取当前状态
 8015fc0:	4a1d      	ldr	r2, [pc, #116]	; (8016038 <main+0x240>)
 8015fc2:	687b      	ldr	r3, [r7, #4]
 8015fc4:	4413      	add	r3, r2
 8015fc6:	3327      	adds	r3, #39	; 0x27
 8015fc8:	7819      	ldrb	r1, [r3, #0]
 8015fca:	4a1b      	ldr	r2, [pc, #108]	; (8016038 <main+0x240>)
 8015fcc:	687b      	ldr	r3, [r7, #4]
 8015fce:	4413      	add	r3, r2
 8015fd0:	3321      	adds	r3, #33	; 0x21
 8015fd2:	460a      	mov	r2, r1
 8015fd4:	701a      	strb	r2, [r3, #0]
					currentPortStatuChanged(i);
 8015fd6:	687b      	ldr	r3, [r7, #4]
 8015fd8:	b2db      	uxtb	r3, r3
 8015fda:	4618      	mov	r0, r3
 8015fdc:	f7fc fd08 	bl	80129f0 <currentPortStatuChanged>
					break;
 8015fe0:	e005      	b.n	8015fee <main+0x1f6>
			for (i = 0; i < 6; i++)
 8015fe2:	687b      	ldr	r3, [r7, #4]
 8015fe4:	3301      	adds	r3, #1
 8015fe6:	607b      	str	r3, [r7, #4]
 8015fe8:	687b      	ldr	r3, [r7, #4]
 8015fea:	2b05      	cmp	r3, #5
 8015fec:	ddbc      	ble.n	8015f68 <main+0x170>
				}
			}
		}
		if (F4G_Params.popAll)
 8015fee:	4b12      	ldr	r3, [pc, #72]	; (8016038 <main+0x240>)
 8015ff0:	f893 3033 	ldrb.w	r3, [r3, #51]	; 0x33
 8015ff4:	b2db      	uxtb	r3, r3
 8015ff6:	2b00      	cmp	r3, #0
 8015ff8:	d005      	beq.n	8016006 <main+0x20e>
		{
			F4G_Params.popAll = 0;
 8015ffa:	4b0f      	ldr	r3, [pc, #60]	; (8016038 <main+0x240>)
 8015ffc:	2200      	movs	r2, #0
 8015ffe:	f883 2033 	strb.w	r2, [r3, #51]	; 0x33
			popUP_All();
 8016002:	f7fc ff7b 	bl	8012efc <popUP_All>
		}
//		检查连接是否丢失
		if (F4G_Params.serverStatuCnt >= 2 && allowModuleUpdate == 0)
 8016006:	4b0c      	ldr	r3, [pc, #48]	; (8016038 <main+0x240>)
 8016008:	f893 3030 	ldrb.w	r3, [r3, #48]	; 0x30
 801600c:	b2db      	uxtb	r3, r3
 801600e:	2b01      	cmp	r3, #1
 8016010:	f67f af29 	bls.w	8015e66 <main+0x6e>
 8016014:	4b0f      	ldr	r3, [pc, #60]	; (8016054 <main+0x25c>)
 8016016:	781b      	ldrb	r3, [r3, #0]
 8016018:	b2db      	uxtb	r3, r3
 801601a:	2b00      	cmp	r3, #0
 801601c:	f47f af23 	bne.w	8015e66 <main+0x6e>
		{
			printf("Data accept Fail twice!\r\n");
 8016020:	480d      	ldr	r0, [pc, #52]	; (8016058 <main+0x260>)
 8016022:	f000 faaf 	bl	8016584 <puts>
			//NVIC_SystemReset();
			//F4G_Init(115200);
			RunApp(); //跳转到程序起始位置
 8016026:	f7ff fe59 	bl	8015cdc <RunApp>
			F4G_Params.serverStatuCnt = 0;
 801602a:	4b03      	ldr	r3, [pc, #12]	; (8016038 <main+0x240>)
 801602c:	2200      	movs	r2, #0
 801602e:	f883 2030 	strb.w	r2, [r3, #48]	; 0x30
		if (F4G_Params.sysTC)
 8016032:	e718      	b.n	8015e66 <main+0x6e>
 8016034:	0801bacc 	.word	0x0801bacc
 8016038:	20001128 	.word	0x20001128
 801603c:	20000004 	.word	0x20000004
 8016040:	2000112c 	.word	0x2000112c
 8016044:	200006c6 	.word	0x200006c6
 8016048:	0801bad8 	.word	0x0801bad8
 801604c:	20001155 	.word	0x20001155
 8016050:	20001190 	.word	0x20001190
 8016054:	200006c7 	.word	0x200006c7
 8016058:	0801badc 	.word	0x0801badc

0801605c <Reset_Handler>:

    .section	.text.Reset_Handler
	.weak	Reset_Handler
	.type	Reset_Handler, %function
Reset_Handler:
  ldr   sp, =_estack    /* Atollic update: set stack pointer */
 801605c:	f8df d034 	ldr.w	sp, [pc, #52]	; 8016094 <LoopFillZerobss+0x14>

/* Copy the data segment initializers from flash to SRAM */
  movs	r1, #0
 8016060:	2100      	movs	r1, #0
  b	LoopCopyDataInit
 8016062:	e003      	b.n	801606c <LoopCopyDataInit>

08016064 <CopyDataInit>:

CopyDataInit:
	ldr	r3, =_sidata
 8016064:	4b0c      	ldr	r3, [pc, #48]	; (8016098 <LoopFillZerobss+0x18>)
	ldr	r3, [r3, r1]
 8016066:	585b      	ldr	r3, [r3, r1]
	str	r3, [r0, r1]
 8016068:	5043      	str	r3, [r0, r1]
	adds	r1, r1, #4
 801606a:	3104      	adds	r1, #4

0801606c <LoopCopyDataInit>:

LoopCopyDataInit:
	ldr	r0, =_sdata
 801606c:	480b      	ldr	r0, [pc, #44]	; (801609c <LoopFillZerobss+0x1c>)
	ldr	r3, =_edata
 801606e:	4b0c      	ldr	r3, [pc, #48]	; (80160a0 <LoopFillZerobss+0x20>)
	adds	r2, r0, r1
 8016070:	1842      	adds	r2, r0, r1
	cmp	r2, r3
 8016072:	429a      	cmp	r2, r3
	bcc	CopyDataInit
 8016074:	d3f6      	bcc.n	8016064 <CopyDataInit>
	ldr	r2, =_sbss
 8016076:	4a0b      	ldr	r2, [pc, #44]	; (80160a4 <LoopFillZerobss+0x24>)
	b	LoopFillZerobss
 8016078:	e002      	b.n	8016080 <LoopFillZerobss>

0801607a <FillZerobss>:
/* Zero fill the bss segment. */
FillZerobss:
	movs	r3, #0
 801607a:	2300      	movs	r3, #0
	str	r3, [r2], #4
 801607c:	f842 3b04 	str.w	r3, [r2], #4

08016080 <LoopFillZerobss>:

LoopFillZerobss:
	ldr	r3, = _ebss
 8016080:	4b09      	ldr	r3, [pc, #36]	; (80160a8 <LoopFillZerobss+0x28>)
	cmp	r2, r3
 8016082:	429a      	cmp	r2, r3
	bcc	FillZerobss
 8016084:	d3f9      	bcc.n	801607a <FillZerobss>

/* Call the clock system intitialization function.*/
    bl  SystemInit
 8016086:	f000 f8e7 	bl	8016258 <SystemInit>
/* Call static constructors */
    bl __libc_init_array
 801608a:	f000 f9a3 	bl	80163d4 <__libc_init_array>
/* Call the application's entry point.*/
	bl	main
 801608e:	f7ff feb3 	bl	8015df8 <main>
	bx	lr
 8016092:	4770      	bx	lr
  ldr   sp, =_estack    /* Atollic update: set stack pointer */
 8016094:	2000c000 	.word	0x2000c000
	ldr	r3, =_sidata
 8016098:	0801be30 	.word	0x0801be30
	ldr	r0, =_sdata
 801609c:	20000000 	.word	0x20000000
	ldr	r3, =_edata
 80160a0:	20000690 	.word	0x20000690
	ldr	r2, =_sbss
 80160a4:	20000690 	.word	0x20000690
	ldr	r3, = _ebss
 80160a8:	20002344 	.word	0x20002344

080160ac <ADC1_2_IRQHandler>:
 * @retval : None
*/
    .section	.text.Default_Handler,"ax",%progbits
Default_Handler:
Infinite_Loop:
	b	Infinite_Loop
 80160ac:	e7fe      	b.n	80160ac <ADC1_2_IRQHandler>

080160ae <NMI_Handler>:
  * @brief  This function handles NMI exception.
  * @param  None
  * @retval None
  */
void NMI_Handler(void)
{
 80160ae:	b480      	push	{r7}
 80160b0:	af00      	add	r7, sp, #0
}
 80160b2:	bf00      	nop
 80160b4:	46bd      	mov	sp, r7
 80160b6:	bc80      	pop	{r7}
 80160b8:	4770      	bx	lr

080160ba <HardFault_Handler>:
  * @brief  This function handles Hard Fault exception.
  * @param  None
  * @retval None
  */
void HardFault_Handler(void)
{
 80160ba:	b480      	push	{r7}
 80160bc:	af00      	add	r7, sp, #0
  /* Go to infinite loop when Hard Fault exception occurs */
  while (1)
 80160be:	e7fe      	b.n	80160be <HardFault_Handler+0x4>

080160c0 <MemManage_Handler>:
  * @brief  This function handles Memory Manage exception.
  * @param  None
  * @retval None
  */
void MemManage_Handler(void)
{
 80160c0:	b480      	push	{r7}
 80160c2:	af00      	add	r7, sp, #0
  /* Go to infinite loop when Memory Manage exception occurs */
  while (1)
 80160c4:	e7fe      	b.n	80160c4 <MemManage_Handler+0x4>

080160c6 <BusFault_Handler>:
  * @brief  This function handles Bus Fault exception.
  * @param  None
  * @retval None
  */
void BusFault_Handler(void)
{
 80160c6:	b480      	push	{r7}
 80160c8:	af00      	add	r7, sp, #0
  /* Go to infinite loop when Bus Fault exception occurs */
  while (1)
 80160ca:	e7fe      	b.n	80160ca <BusFault_Handler+0x4>

080160cc <UsageFault_Handler>:
  * @brief  This function handles Usage Fault exception.
  * @param  None
  * @retval None
  */
void UsageFault_Handler(void)
{
 80160cc:	b480      	push	{r7}
 80160ce:	af00      	add	r7, sp, #0
  /* Go to infinite loop when Usage Fault exception occurs */
  while (1)
 80160d0:	e7fe      	b.n	80160d0 <UsageFault_Handler+0x4>

080160d2 <SVC_Handler>:
  * @brief  This function handles SVCall exception.
  * @param  None
  * @retval None
  */
void SVC_Handler(void)
{
 80160d2:	b480      	push	{r7}
 80160d4:	af00      	add	r7, sp, #0
}
 80160d6:	bf00      	nop
 80160d8:	46bd      	mov	sp, r7
 80160da:	bc80      	pop	{r7}
 80160dc:	4770      	bx	lr

080160de <DebugMon_Handler>:
  * @brief  This function handles Debug Monitor exception.
  * @param  None
  * @retval None
  */
void DebugMon_Handler(void)
{
 80160de:	b480      	push	{r7}
 80160e0:	af00      	add	r7, sp, #0
}
 80160e2:	bf00      	nop
 80160e4:	46bd      	mov	sp, r7
 80160e6:	bc80      	pop	{r7}
 80160e8:	4770      	bx	lr

080160ea <PendSV_Handler>:
  * @brief  This function handles PendSVC exception.
  * @param  None
  * @retval None
  */
void PendSV_Handler(void)
{
 80160ea:	b480      	push	{r7}
 80160ec:	af00      	add	r7, sp, #0
}
 80160ee:	bf00      	nop
 80160f0:	46bd      	mov	sp, r7
 80160f2:	bc80      	pop	{r7}
 80160f4:	4770      	bx	lr

080160f6 <SysTick_Handler>:
  * @brief  This function handles SysTick Handler.
  * @param  None
  * @retval None
  */
void SysTick_Handler(void)
{
 80160f6:	b480      	push	{r7}
 80160f8:	af00      	add	r7, sp, #0
}
 80160fa:	bf00      	nop
 80160fc:	46bd      	mov	sp, r7
 80160fe:	bc80      	pop	{r7}
 8016100:	4770      	bx	lr
	...

08016104 <__io_putchar>:
 * @brief  Retargets the C library printf function to the USART.
 * @param  None
 * @retval None
 */
PUTCHAR_PROTOTYPE
{
 8016104:	b580      	push	{r7, lr}
 8016106:	b082      	sub	sp, #8
 8016108:	af00      	add	r7, sp, #0
 801610a:	6078      	str	r0, [r7, #4]
	/* Place your implementation of fputc here */
	/* e.g. write a character to the USART1 and Loop until the end of transmission */
	USART_SendData(USART1, ch);
 801610c:	687b      	ldr	r3, [r7, #4]
 801610e:	b29b      	uxth	r3, r3
 8016110:	4619      	mov	r1, r3
 8016112:	4808      	ldr	r0, [pc, #32]	; (8016134 <__io_putchar+0x30>)
 8016114:	f7ff f91e 	bl	8015354 <USART_SendData>
	while (USART_GetFlagStatus(USART1, USART_FLAG_TXE) == RESET)
 8016118:	bf00      	nop
 801611a:	2180      	movs	r1, #128	; 0x80
 801611c:	4805      	ldr	r0, [pc, #20]	; (8016134 <__io_putchar+0x30>)
 801611e:	f7ff f939 	bl	8015394 <USART_GetFlagStatus>
 8016122:	4603      	mov	r3, r0
 8016124:	2b00      	cmp	r3, #0
 8016126:	d0f8      	beq.n	801611a <__io_putchar+0x16>
		;
	return ch;
 8016128:	687b      	ldr	r3, [r7, #4]
}
 801612a:	4618      	mov	r0, r3
 801612c:	3708      	adds	r7, #8
 801612e:	46bd      	mov	sp, r7
 8016130:	bd80      	pop	{r7, pc}
 8016132:	bf00      	nop
 8016134:	40013800 	.word	0x40013800

08016138 <_write>:

int _write(int32_t file, uint8_t *ptr, int32_t len)
{
 8016138:	b580      	push	{r7, lr}
 801613a:	b086      	sub	sp, #24
 801613c:	af00      	add	r7, sp, #0
 801613e:	60f8      	str	r0, [r7, #12]
 8016140:	60b9      	str	r1, [r7, #8]
 8016142:	607a      	str	r2, [r7, #4]
	/* Implement your write code here, this is used by puts and printf for example */
	/* return len; */
	int DataIdx;
	for (DataIdx = 0; DataIdx < len; DataIdx++)
 8016144:	2300      	movs	r3, #0
 8016146:	617b      	str	r3, [r7, #20]
 8016148:	e009      	b.n	801615e <_write+0x26>
	{
		__io_putchar(*ptr++);
 801614a:	68bb      	ldr	r3, [r7, #8]
 801614c:	1c5a      	adds	r2, r3, #1
 801614e:	60ba      	str	r2, [r7, #8]
 8016150:	781b      	ldrb	r3, [r3, #0]
 8016152:	4618      	mov	r0, r3
 8016154:	f7ff ffd6 	bl	8016104 <__io_putchar>
	for (DataIdx = 0; DataIdx < len; DataIdx++)
 8016158:	697b      	ldr	r3, [r7, #20]
 801615a:	3301      	adds	r3, #1
 801615c:	617b      	str	r3, [r7, #20]
 801615e:	697a      	ldr	r2, [r7, #20]
 8016160:	687b      	ldr	r3, [r7, #4]
 8016162:	429a      	cmp	r2, r3
 8016164:	dbf1      	blt.n	801614a <_write+0x12>
	}
	return len;
 8016166:	687b      	ldr	r3, [r7, #4]
	//errno = ENOSYS;
	//return -1;
}
 8016168:	4618      	mov	r0, r3
 801616a:	3718      	adds	r7, #24
 801616c:	46bd      	mov	sp, r7
 801616e:	bd80      	pop	{r7, pc}

08016170 <_sbrk>:
//===============自定义修改==================================
void * _sbrk(int32_t incr)
{
 8016170:	b480      	push	{r7}
 8016172:	b085      	sub	sp, #20
 8016174:	af00      	add	r7, sp, #0
 8016176:	6078      	str	r0, [r7, #4]
	extern char end; /* Set by linker.  */
	static char * heap_end;
	char * prev_heap_end;

	if (heap_end == 0)
 8016178:	4b0a      	ldr	r3, [pc, #40]	; (80161a4 <_sbrk+0x34>)
 801617a:	681b      	ldr	r3, [r3, #0]
 801617c:	2b00      	cmp	r3, #0
 801617e:	d102      	bne.n	8016186 <_sbrk+0x16>
	{
		heap_end = &end;
 8016180:	4b08      	ldr	r3, [pc, #32]	; (80161a4 <_sbrk+0x34>)
 8016182:	4a09      	ldr	r2, [pc, #36]	; (80161a8 <_sbrk+0x38>)
 8016184:	601a      	str	r2, [r3, #0]
	}

	prev_heap_end = heap_end;
 8016186:	4b07      	ldr	r3, [pc, #28]	; (80161a4 <_sbrk+0x34>)
 8016188:	681b      	ldr	r3, [r3, #0]
 801618a:	60fb      	str	r3, [r7, #12]
	heap_end += incr;
 801618c:	4b05      	ldr	r3, [pc, #20]	; (80161a4 <_sbrk+0x34>)
 801618e:	681a      	ldr	r2, [r3, #0]
 8016190:	687b      	ldr	r3, [r7, #4]
 8016192:	4413      	add	r3, r2
 8016194:	4a03      	ldr	r2, [pc, #12]	; (80161a4 <_sbrk+0x34>)
 8016196:	6013      	str	r3, [r2, #0]

	return (void *) prev_heap_end;
 8016198:	68fb      	ldr	r3, [r7, #12]
}
 801619a:	4618      	mov	r0, r3
 801619c:	3714      	adds	r7, #20
 801619e:	46bd      	mov	sp, r7
 80161a0:	bc80      	pop	{r7}
 80161a2:	4770      	bx	lr
 80161a4:	20001a70 	.word	0x20001a70
 80161a8:	20002344 	.word	0x20002344

080161ac <_close>:

int _close(int32_t file)
{
 80161ac:	b480      	push	{r7}
 80161ae:	b083      	sub	sp, #12
 80161b0:	af00      	add	r7, sp, #0
 80161b2:	6078      	str	r0, [r7, #4]
	errno = ENOSYS;
 80161b4:	4b04      	ldr	r3, [pc, #16]	; (80161c8 <_close+0x1c>)
 80161b6:	2258      	movs	r2, #88	; 0x58
 80161b8:	601a      	str	r2, [r3, #0]
	return -1;
 80161ba:	f04f 33ff 	mov.w	r3, #4294967295
}
 80161be:	4618      	mov	r0, r3
 80161c0:	370c      	adds	r7, #12
 80161c2:	46bd      	mov	sp, r7
 80161c4:	bc80      	pop	{r7}
 80161c6:	4770      	bx	lr
 80161c8:	20002334 	.word	0x20002334

080161cc <_fstat>:

int _fstat(int32_t file, struct stat *st)
{
 80161cc:	b480      	push	{r7}
 80161ce:	b083      	sub	sp, #12
 80161d0:	af00      	add	r7, sp, #0
 80161d2:	6078      	str	r0, [r7, #4]
 80161d4:	6039      	str	r1, [r7, #0]
	errno = ENOSYS;
 80161d6:	4b05      	ldr	r3, [pc, #20]	; (80161ec <_fstat+0x20>)
 80161d8:	2258      	movs	r2, #88	; 0x58
 80161da:	601a      	str	r2, [r3, #0]
	return -1;
 80161dc:	f04f 33ff 	mov.w	r3, #4294967295
}
 80161e0:	4618      	mov	r0, r3
 80161e2:	370c      	adds	r7, #12
 80161e4:	46bd      	mov	sp, r7
 80161e6:	bc80      	pop	{r7}
 80161e8:	4770      	bx	lr
 80161ea:	bf00      	nop
 80161ec:	20002334 	.word	0x20002334

080161f0 <_isatty>:

int _isatty(int32_t file)
{
 80161f0:	b480      	push	{r7}
 80161f2:	b083      	sub	sp, #12
 80161f4:	af00      	add	r7, sp, #0
 80161f6:	6078      	str	r0, [r7, #4]
	errno = ENOSYS;
 80161f8:	4b04      	ldr	r3, [pc, #16]	; (801620c <_isatty+0x1c>)
 80161fa:	2258      	movs	r2, #88	; 0x58
 80161fc:	601a      	str	r2, [r3, #0]
	return 0;
 80161fe:	2300      	movs	r3, #0
}
 8016200:	4618      	mov	r0, r3
 8016202:	370c      	adds	r7, #12
 8016204:	46bd      	mov	sp, r7
 8016206:	bc80      	pop	{r7}
 8016208:	4770      	bx	lr
 801620a:	bf00      	nop
 801620c:	20002334 	.word	0x20002334

08016210 <_lseek>:

int _lseek(int32_t file, int32_t ptr, int32_t dir)
{
 8016210:	b480      	push	{r7}
 8016212:	b085      	sub	sp, #20
 8016214:	af00      	add	r7, sp, #0
 8016216:	60f8      	str	r0, [r7, #12]
 8016218:	60b9      	str	r1, [r7, #8]
 801621a:	607a      	str	r2, [r7, #4]
	errno = ENOSYS;
 801621c:	4b04      	ldr	r3, [pc, #16]	; (8016230 <_lseek+0x20>)
 801621e:	2258      	movs	r2, #88	; 0x58
 8016220:	601a      	str	r2, [r3, #0]
	return -1;
 8016222:	f04f 33ff 	mov.w	r3, #4294967295
}
 8016226:	4618      	mov	r0, r3
 8016228:	3714      	adds	r7, #20
 801622a:	46bd      	mov	sp, r7
 801622c:	bc80      	pop	{r7}
 801622e:	4770      	bx	lr
 8016230:	20002334 	.word	0x20002334

08016234 <_read>:

int _read(int32_t file, uint8_t *ptr, int32_t len)
{
 8016234:	b480      	push	{r7}
 8016236:	b085      	sub	sp, #20
 8016238:	af00      	add	r7, sp, #0
 801623a:	60f8      	str	r0, [r7, #12]
 801623c:	60b9      	str	r1, [r7, #8]
 801623e:	607a      	str	r2, [r7, #4]
	errno = ENOSYS;
 8016240:	4b04      	ldr	r3, [pc, #16]	; (8016254 <_read+0x20>)
 8016242:	2258      	movs	r2, #88	; 0x58
 8016244:	601a      	str	r2, [r3, #0]
	return -1;
 8016246:	f04f 33ff 	mov.w	r3, #4294967295
}
 801624a:	4618      	mov	r0, r3
 801624c:	3714      	adds	r7, #20
 801624e:	46bd      	mov	sp, r7
 8016250:	bc80      	pop	{r7}
 8016252:	4770      	bx	lr
 8016254:	20002334 	.word	0x20002334

08016258 <SystemInit>:
  * @note   This function should be used only after reset.
  * @param  None
  * @retval None
  */
void SystemInit (void)
{
 8016258:	b580      	push	{r7, lr}
 801625a:	af00      	add	r7, sp, #0
  /* Reset the RCC clock configuration to the default reset state(for debug purpose) */
  /* Set HSION bit */
  RCC->CR |= (uint32_t)0x00000001;
 801625c:	4a15      	ldr	r2, [pc, #84]	; (80162b4 <SystemInit+0x5c>)
 801625e:	4b15      	ldr	r3, [pc, #84]	; (80162b4 <SystemInit+0x5c>)
 8016260:	681b      	ldr	r3, [r3, #0]
 8016262:	f043 0301 	orr.w	r3, r3, #1
 8016266:	6013      	str	r3, [r2, #0]

  /* Reset SW, HPRE, PPRE1, PPRE2, ADCPRE and MCO bits */
#ifndef STM32F10X_CL
  RCC->CFGR &= (uint32_t)0xF8FF0000;
 8016268:	4912      	ldr	r1, [pc, #72]	; (80162b4 <SystemInit+0x5c>)
 801626a:	4b12      	ldr	r3, [pc, #72]	; (80162b4 <SystemInit+0x5c>)
 801626c:	685a      	ldr	r2, [r3, #4]
 801626e:	4b12      	ldr	r3, [pc, #72]	; (80162b8 <SystemInit+0x60>)
 8016270:	4013      	ands	r3, r2
 8016272:	604b      	str	r3, [r1, #4]
#else
  RCC->CFGR &= (uint32_t)0xF0FF0000;
#endif /* STM32F10X_CL */   
  
  /* Reset HSEON, CSSON and PLLON bits */
  RCC->CR &= (uint32_t)0xFEF6FFFF;
 8016274:	4a0f      	ldr	r2, [pc, #60]	; (80162b4 <SystemInit+0x5c>)
 8016276:	4b0f      	ldr	r3, [pc, #60]	; (80162b4 <SystemInit+0x5c>)
 8016278:	681b      	ldr	r3, [r3, #0]
 801627a:	f023 7384 	bic.w	r3, r3, #17301504	; 0x1080000
 801627e:	f423 3380 	bic.w	r3, r3, #65536	; 0x10000
 8016282:	6013      	str	r3, [r2, #0]

  /* Reset HSEBYP bit */
  RCC->CR &= (uint32_t)0xFFFBFFFF;
 8016284:	4a0b      	ldr	r2, [pc, #44]	; (80162b4 <SystemInit+0x5c>)
 8016286:	4b0b      	ldr	r3, [pc, #44]	; (80162b4 <SystemInit+0x5c>)
 8016288:	681b      	ldr	r3, [r3, #0]
 801628a:	f423 2380 	bic.w	r3, r3, #262144	; 0x40000
 801628e:	6013      	str	r3, [r2, #0]

  /* Reset PLLSRC, PLLXTPRE, PLLMUL and USBPRE/OTGFSPRE bits */
  RCC->CFGR &= (uint32_t)0xFF80FFFF;
 8016290:	4a08      	ldr	r2, [pc, #32]	; (80162b4 <SystemInit+0x5c>)
 8016292:	4b08      	ldr	r3, [pc, #32]	; (80162b4 <SystemInit+0x5c>)
 8016294:	685b      	ldr	r3, [r3, #4]
 8016296:	f423 03fe 	bic.w	r3, r3, #8323072	; 0x7f0000
 801629a:	6053      	str	r3, [r2, #4]

  /* Reset CFGR2 register */
  RCC->CFGR2 = 0x00000000;      
#else
  /* Disable all interrupts and clear pending bits  */
  RCC->CIR = 0x009F0000;
 801629c:	4b05      	ldr	r3, [pc, #20]	; (80162b4 <SystemInit+0x5c>)
 801629e:	f44f 021f 	mov.w	r2, #10420224	; 0x9f0000
 80162a2:	609a      	str	r2, [r3, #8]
  #endif /* DATA_IN_ExtSRAM */
#endif 

  /* Configure the System clock frequency, HCLK, PCLK2 and PCLK1 prescalers */
  /* Configure the Flash Latency cycles and enable prefetch buffer */
  SetSysClock();
 80162a4:	f000 f80c 	bl	80162c0 <SetSysClock>

#ifdef VECT_TAB_SRAM
  SCB->VTOR = SRAM_BASE | VECT_TAB_OFFSET; /* Vector Table Relocation in Internal SRAM. */
#else
  SCB->VTOR = FLASH_BASE | VECT_TAB_OFFSET; /* Vector Table Relocation in Internal FLASH. */
 80162a8:	4b04      	ldr	r3, [pc, #16]	; (80162bc <SystemInit+0x64>)
 80162aa:	f04f 6200 	mov.w	r2, #134217728	; 0x8000000
 80162ae:	609a      	str	r2, [r3, #8]
#endif 
}
 80162b0:	bf00      	nop
 80162b2:	bd80      	pop	{r7, pc}
 80162b4:	40021000 	.word	0x40021000
 80162b8:	f8ff0000 	.word	0xf8ff0000
 80162bc:	e000ed00 	.word	0xe000ed00

080162c0 <SetSysClock>:
  * @brief  Configures the System clock frequency, HCLK, PCLK2 and PCLK1 prescalers.
  * @param  None
  * @retval None
  */
static void SetSysClock(void)
{
 80162c0:	b580      	push	{r7, lr}
 80162c2:	af00      	add	r7, sp, #0
#elif defined SYSCLK_FREQ_48MHz
  SetSysClockTo48();
#elif defined SYSCLK_FREQ_56MHz
  SetSysClockTo56();  
#elif defined SYSCLK_FREQ_72MHz
  SetSysClockTo72();
 80162c4:	f000 f802 	bl	80162cc <SetSysClockTo72>
#endif
 
 /* If none of the define above is enabled, the HSI is used as System clock
    source (default after reset) */ 
}
 80162c8:	bf00      	nop
 80162ca:	bd80      	pop	{r7, pc}

080162cc <SetSysClockTo72>:
  * @note   This function should be used only after reset.
  * @param  None
  * @retval None
  */
static void SetSysClockTo72(void)
{
 80162cc:	b480      	push	{r7}
 80162ce:	b083      	sub	sp, #12
 80162d0:	af00      	add	r7, sp, #0
  __IO uint32_t StartUpCounter = 0, HSEStatus = 0;
 80162d2:	2300      	movs	r3, #0
 80162d4:	607b      	str	r3, [r7, #4]
 80162d6:	2300      	movs	r3, #0
 80162d8:	603b      	str	r3, [r7, #0]
  
  /* SYSCLK, HCLK, PCLK2 and PCLK1 configuration ---------------------------*/    
  /* Enable HSE */    
  RCC->CR |= ((uint32_t)RCC_CR_HSEON);
 80162da:	4a3a      	ldr	r2, [pc, #232]	; (80163c4 <SetSysClockTo72+0xf8>)
 80162dc:	4b39      	ldr	r3, [pc, #228]	; (80163c4 <SetSysClockTo72+0xf8>)
 80162de:	681b      	ldr	r3, [r3, #0]
 80162e0:	f443 3380 	orr.w	r3, r3, #65536	; 0x10000
 80162e4:	6013      	str	r3, [r2, #0]
 
  /* Wait till HSE is ready and if Time out is reached exit */
  do
  {
    HSEStatus = RCC->CR & RCC_CR_HSERDY;
 80162e6:	4b37      	ldr	r3, [pc, #220]	; (80163c4 <SetSysClockTo72+0xf8>)
 80162e8:	681b      	ldr	r3, [r3, #0]
 80162ea:	f403 3300 	and.w	r3, r3, #131072	; 0x20000
 80162ee:	603b      	str	r3, [r7, #0]
    StartUpCounter++;  
 80162f0:	687b      	ldr	r3, [r7, #4]
 80162f2:	3301      	adds	r3, #1
 80162f4:	607b      	str	r3, [r7, #4]
  } while((HSEStatus == 0) && (StartUpCounter != HSE_STARTUP_TIMEOUT));
 80162f6:	683b      	ldr	r3, [r7, #0]
 80162f8:	2b00      	cmp	r3, #0
 80162fa:	d103      	bne.n	8016304 <SetSysClockTo72+0x38>
 80162fc:	687b      	ldr	r3, [r7, #4]
 80162fe:	f5b3 6fa0 	cmp.w	r3, #1280	; 0x500
 8016302:	d1f0      	bne.n	80162e6 <SetSysClockTo72+0x1a>

  if ((RCC->CR & RCC_CR_HSERDY) != RESET)
 8016304:	4b2f      	ldr	r3, [pc, #188]	; (80163c4 <SetSysClockTo72+0xf8>)
 8016306:	681b      	ldr	r3, [r3, #0]
 8016308:	f403 3300 	and.w	r3, r3, #131072	; 0x20000
 801630c:	2b00      	cmp	r3, #0
 801630e:	d002      	beq.n	8016316 <SetSysClockTo72+0x4a>
  {
    HSEStatus = (uint32_t)0x01;
 8016310:	2301      	movs	r3, #1
 8016312:	603b      	str	r3, [r7, #0]
 8016314:	e001      	b.n	801631a <SetSysClockTo72+0x4e>
  }
  else
  {
    HSEStatus = (uint32_t)0x00;
 8016316:	2300      	movs	r3, #0
 8016318:	603b      	str	r3, [r7, #0]
  }  

  if (HSEStatus == (uint32_t)0x01)
 801631a:	683b      	ldr	r3, [r7, #0]
 801631c:	2b01      	cmp	r3, #1
 801631e:	d14b      	bne.n	80163b8 <SetSysClockTo72+0xec>
  {
    /* Enable Prefetch Buffer */
    FLASH->ACR |= FLASH_ACR_PRFTBE;
 8016320:	4a29      	ldr	r2, [pc, #164]	; (80163c8 <SetSysClockTo72+0xfc>)
 8016322:	4b29      	ldr	r3, [pc, #164]	; (80163c8 <SetSysClockTo72+0xfc>)
 8016324:	681b      	ldr	r3, [r3, #0]
 8016326:	f043 0310 	orr.w	r3, r3, #16
 801632a:	6013      	str	r3, [r2, #0]

    /* Flash 2 wait state */
    FLASH->ACR &= (uint32_t)((uint32_t)~FLASH_ACR_LATENCY);
 801632c:	4a26      	ldr	r2, [pc, #152]	; (80163c8 <SetSysClockTo72+0xfc>)
 801632e:	4b26      	ldr	r3, [pc, #152]	; (80163c8 <SetSysClockTo72+0xfc>)
 8016330:	681b      	ldr	r3, [r3, #0]
 8016332:	f023 0303 	bic.w	r3, r3, #3
 8016336:	6013      	str	r3, [r2, #0]
    FLASH->ACR |= (uint32_t)FLASH_ACR_LATENCY_2;    
 8016338:	4a23      	ldr	r2, [pc, #140]	; (80163c8 <SetSysClockTo72+0xfc>)
 801633a:	4b23      	ldr	r3, [pc, #140]	; (80163c8 <SetSysClockTo72+0xfc>)
 801633c:	681b      	ldr	r3, [r3, #0]
 801633e:	f043 0302 	orr.w	r3, r3, #2
 8016342:	6013      	str	r3, [r2, #0]

 
    /* HCLK = SYSCLK */
    RCC->CFGR |= (uint32_t)RCC_CFGR_HPRE_DIV1;
 8016344:	4a1f      	ldr	r2, [pc, #124]	; (80163c4 <SetSysClockTo72+0xf8>)
 8016346:	4b1f      	ldr	r3, [pc, #124]	; (80163c4 <SetSysClockTo72+0xf8>)
 8016348:	685b      	ldr	r3, [r3, #4]
 801634a:	6053      	str	r3, [r2, #4]
      
    /* PCLK2 = HCLK */
    RCC->CFGR |= (uint32_t)RCC_CFGR_PPRE2_DIV1;
 801634c:	4a1d      	ldr	r2, [pc, #116]	; (80163c4 <SetSysClockTo72+0xf8>)
 801634e:	4b1d      	ldr	r3, [pc, #116]	; (80163c4 <SetSysClockTo72+0xf8>)
 8016350:	685b      	ldr	r3, [r3, #4]
 8016352:	6053      	str	r3, [r2, #4]
    
    /* PCLK1 = HCLK */
    RCC->CFGR |= (uint32_t)RCC_CFGR_PPRE1_DIV2;
 8016354:	4a1b      	ldr	r2, [pc, #108]	; (80163c4 <SetSysClockTo72+0xf8>)
 8016356:	4b1b      	ldr	r3, [pc, #108]	; (80163c4 <SetSysClockTo72+0xf8>)
 8016358:	685b      	ldr	r3, [r3, #4]
 801635a:	f443 6380 	orr.w	r3, r3, #1024	; 0x400
 801635e:	6053      	str	r3, [r2, #4]
    RCC->CFGR &= (uint32_t)~(RCC_CFGR_PLLXTPRE | RCC_CFGR_PLLSRC | RCC_CFGR_PLLMULL);
    RCC->CFGR |= (uint32_t)(RCC_CFGR_PLLXTPRE_PREDIV1 | RCC_CFGR_PLLSRC_PREDIV1 | 
                            RCC_CFGR_PLLMULL9); 
#else    
    /*  PLL configuration: PLLCLK = HSE * 9 = 72 MHz */
    RCC->CFGR &= (uint32_t)((uint32_t)~(RCC_CFGR_PLLSRC | RCC_CFGR_PLLXTPRE |
 8016360:	4a18      	ldr	r2, [pc, #96]	; (80163c4 <SetSysClockTo72+0xf8>)
 8016362:	4b18      	ldr	r3, [pc, #96]	; (80163c4 <SetSysClockTo72+0xf8>)
 8016364:	685b      	ldr	r3, [r3, #4]
 8016366:	f423 137c 	bic.w	r3, r3, #4128768	; 0x3f0000
 801636a:	6053      	str	r3, [r2, #4]
                                        RCC_CFGR_PLLMULL));
    RCC->CFGR |= (uint32_t)(RCC_CFGR_PLLSRC_HSE | RCC_CFGR_PLLMULL9);
 801636c:	4a15      	ldr	r2, [pc, #84]	; (80163c4 <SetSysClockTo72+0xf8>)
 801636e:	4b15      	ldr	r3, [pc, #84]	; (80163c4 <SetSysClockTo72+0xf8>)
 8016370:	685b      	ldr	r3, [r3, #4]
 8016372:	f443 13e8 	orr.w	r3, r3, #1900544	; 0x1d0000
 8016376:	6053      	str	r3, [r2, #4]
#endif /* STM32F10X_CL */

    /* Enable PLL */
    RCC->CR |= RCC_CR_PLLON;
 8016378:	4a12      	ldr	r2, [pc, #72]	; (80163c4 <SetSysClockTo72+0xf8>)
 801637a:	4b12      	ldr	r3, [pc, #72]	; (80163c4 <SetSysClockTo72+0xf8>)
 801637c:	681b      	ldr	r3, [r3, #0]
 801637e:	f043 7380 	orr.w	r3, r3, #16777216	; 0x1000000
 8016382:	6013      	str	r3, [r2, #0]

    /* Wait till PLL is ready */
    while((RCC->CR & RCC_CR_PLLRDY) == 0)
 8016384:	bf00      	nop
 8016386:	4b0f      	ldr	r3, [pc, #60]	; (80163c4 <SetSysClockTo72+0xf8>)
 8016388:	681b      	ldr	r3, [r3, #0]
 801638a:	f003 7300 	and.w	r3, r3, #33554432	; 0x2000000
 801638e:	2b00      	cmp	r3, #0
 8016390:	d0f9      	beq.n	8016386 <SetSysClockTo72+0xba>
    {
    }
    
    /* Select PLL as system clock source */
    RCC->CFGR &= (uint32_t)((uint32_t)~(RCC_CFGR_SW));
 8016392:	4a0c      	ldr	r2, [pc, #48]	; (80163c4 <SetSysClockTo72+0xf8>)
 8016394:	4b0b      	ldr	r3, [pc, #44]	; (80163c4 <SetSysClockTo72+0xf8>)
 8016396:	685b      	ldr	r3, [r3, #4]
 8016398:	f023 0303 	bic.w	r3, r3, #3
 801639c:	6053      	str	r3, [r2, #4]
    RCC->CFGR |= (uint32_t)RCC_CFGR_SW_PLL;    
 801639e:	4a09      	ldr	r2, [pc, #36]	; (80163c4 <SetSysClockTo72+0xf8>)
 80163a0:	4b08      	ldr	r3, [pc, #32]	; (80163c4 <SetSysClockTo72+0xf8>)
 80163a2:	685b      	ldr	r3, [r3, #4]
 80163a4:	f043 0302 	orr.w	r3, r3, #2
 80163a8:	6053      	str	r3, [r2, #4]

    /* Wait till PLL is used as system clock source */
    while ((RCC->CFGR & (uint32_t)RCC_CFGR_SWS) != (uint32_t)0x08)
 80163aa:	bf00      	nop
 80163ac:	4b05      	ldr	r3, [pc, #20]	; (80163c4 <SetSysClockTo72+0xf8>)
 80163ae:	685b      	ldr	r3, [r3, #4]
 80163b0:	f003 030c 	and.w	r3, r3, #12
 80163b4:	2b08      	cmp	r3, #8
 80163b6:	d1f9      	bne.n	80163ac <SetSysClockTo72+0xe0>
  }
  else
  { /* If HSE fails to start-up, the application will have wrong clock 
         configuration. User can add here some code to deal with this error */
  }
}
 80163b8:	bf00      	nop
 80163ba:	370c      	adds	r7, #12
 80163bc:	46bd      	mov	sp, r7
 80163be:	bc80      	pop	{r7}
 80163c0:	4770      	bx	lr
 80163c2:	bf00      	nop
 80163c4:	40021000 	.word	0x40021000
 80163c8:	40022000 	.word	0x40022000

080163cc <atoi>:
 80163cc:	220a      	movs	r2, #10
 80163ce:	2100      	movs	r1, #0
 80163d0:	f000 ba8a 	b.w	80168e8 <strtol>

080163d4 <__libc_init_array>:
 80163d4:	b570      	push	{r4, r5, r6, lr}
 80163d6:	2500      	movs	r5, #0
 80163d8:	4e0c      	ldr	r6, [pc, #48]	; (801640c <__libc_init_array+0x38>)
 80163da:	4c0d      	ldr	r4, [pc, #52]	; (8016410 <__libc_init_array+0x3c>)
 80163dc:	1ba4      	subs	r4, r4, r6
 80163de:	10a4      	asrs	r4, r4, #2
 80163e0:	42a5      	cmp	r5, r4
 80163e2:	d109      	bne.n	80163f8 <__libc_init_array+0x24>
 80163e4:	f005 f852 	bl	801b48c <_init>
 80163e8:	2500      	movs	r5, #0
 80163ea:	4e0a      	ldr	r6, [pc, #40]	; (8016414 <__libc_init_array+0x40>)
 80163ec:	4c0a      	ldr	r4, [pc, #40]	; (8016418 <__libc_init_array+0x44>)
 80163ee:	1ba4      	subs	r4, r4, r6
 80163f0:	10a4      	asrs	r4, r4, #2
 80163f2:	42a5      	cmp	r5, r4
 80163f4:	d105      	bne.n	8016402 <__libc_init_array+0x2e>
 80163f6:	bd70      	pop	{r4, r5, r6, pc}
 80163f8:	f856 3025 	ldr.w	r3, [r6, r5, lsl #2]
 80163fc:	4798      	blx	r3
 80163fe:	3501      	adds	r5, #1
 8016400:	e7ee      	b.n	80163e0 <__libc_init_array+0xc>
 8016402:	f856 3025 	ldr.w	r3, [r6, r5, lsl #2]
 8016406:	4798      	blx	r3
 8016408:	3501      	adds	r5, #1
 801640a:	e7f2      	b.n	80163f2 <__libc_init_array+0x1e>
 801640c:	0801be28 	.word	0x0801be28
 8016410:	0801be28 	.word	0x0801be28
 8016414:	0801be28 	.word	0x0801be28
 8016418:	0801be2c 	.word	0x0801be2c

0801641c <__itoa>:
 801641c:	1e93      	subs	r3, r2, #2
 801641e:	2b22      	cmp	r3, #34	; 0x22
 8016420:	b510      	push	{r4, lr}
 8016422:	460c      	mov	r4, r1
 8016424:	d904      	bls.n	8016430 <__itoa+0x14>
 8016426:	2300      	movs	r3, #0
 8016428:	461c      	mov	r4, r3
 801642a:	700b      	strb	r3, [r1, #0]
 801642c:	4620      	mov	r0, r4
 801642e:	bd10      	pop	{r4, pc}
 8016430:	2a0a      	cmp	r2, #10
 8016432:	d109      	bne.n	8016448 <__itoa+0x2c>
 8016434:	2800      	cmp	r0, #0
 8016436:	da07      	bge.n	8016448 <__itoa+0x2c>
 8016438:	232d      	movs	r3, #45	; 0x2d
 801643a:	700b      	strb	r3, [r1, #0]
 801643c:	2101      	movs	r1, #1
 801643e:	4240      	negs	r0, r0
 8016440:	4421      	add	r1, r4
 8016442:	f001 fa37 	bl	80178b4 <__utoa>
 8016446:	e7f1      	b.n	801642c <__itoa+0x10>
 8016448:	2100      	movs	r1, #0
 801644a:	e7f9      	b.n	8016440 <__itoa+0x24>

0801644c <itoa>:
 801644c:	f7ff bfe6 	b.w	801641c <__itoa>

08016450 <memcmp>:
 8016450:	b510      	push	{r4, lr}
 8016452:	3901      	subs	r1, #1
 8016454:	4402      	add	r2, r0
 8016456:	4290      	cmp	r0, r2
 8016458:	d101      	bne.n	801645e <memcmp+0xe>
 801645a:	2000      	movs	r0, #0
 801645c:	bd10      	pop	{r4, pc}
 801645e:	f810 3b01 	ldrb.w	r3, [r0], #1
 8016462:	f811 4f01 	ldrb.w	r4, [r1, #1]!
 8016466:	42a3      	cmp	r3, r4
 8016468:	d0f5      	beq.n	8016456 <memcmp+0x6>
 801646a:	1b18      	subs	r0, r3, r4
 801646c:	bd10      	pop	{r4, pc}

0801646e <memcpy>:
 801646e:	b510      	push	{r4, lr}
 8016470:	1e43      	subs	r3, r0, #1
 8016472:	440a      	add	r2, r1
 8016474:	4291      	cmp	r1, r2
 8016476:	d100      	bne.n	801647a <memcpy+0xc>
 8016478:	bd10      	pop	{r4, pc}
 801647a:	f811 4b01 	ldrb.w	r4, [r1], #1
 801647e:	f803 4f01 	strb.w	r4, [r3, #1]!
 8016482:	e7f7      	b.n	8016474 <memcpy+0x6>

08016484 <memset>:
 8016484:	4603      	mov	r3, r0
 8016486:	4402      	add	r2, r0
 8016488:	4293      	cmp	r3, r2
 801648a:	d100      	bne.n	801648e <memset+0xa>
 801648c:	4770      	bx	lr
 801648e:	f803 1b01 	strb.w	r1, [r3], #1
 8016492:	e7f9      	b.n	8016488 <memset+0x4>

08016494 <printf>:
 8016494:	b40f      	push	{r0, r1, r2, r3}
 8016496:	4b0a      	ldr	r3, [pc, #40]	; (80164c0 <printf+0x2c>)
 8016498:	b513      	push	{r0, r1, r4, lr}
 801649a:	681c      	ldr	r4, [r3, #0]
 801649c:	b124      	cbz	r4, 80164a8 <printf+0x14>
 801649e:	69a3      	ldr	r3, [r4, #24]
 80164a0:	b913      	cbnz	r3, 80164a8 <printf+0x14>
 80164a2:	4620      	mov	r0, r4
 80164a4:	f003 fab2 	bl	8019a0c <__sinit>
 80164a8:	ab05      	add	r3, sp, #20
 80164aa:	9a04      	ldr	r2, [sp, #16]
 80164ac:	68a1      	ldr	r1, [r4, #8]
 80164ae:	4620      	mov	r0, r4
 80164b0:	9301      	str	r3, [sp, #4]
 80164b2:	f001 fa3f 	bl	8017934 <_vfprintf_r>
 80164b6:	b002      	add	sp, #8
 80164b8:	e8bd 4010 	ldmia.w	sp!, {r4, lr}
 80164bc:	b004      	add	sp, #16
 80164be:	4770      	bx	lr
 80164c0:	20000020 	.word	0x20000020

080164c4 <_puts_r>:
 80164c4:	b530      	push	{r4, r5, lr}
 80164c6:	4605      	mov	r5, r0
 80164c8:	b089      	sub	sp, #36	; 0x24
 80164ca:	4608      	mov	r0, r1
 80164cc:	460c      	mov	r4, r1
 80164ce:	f7f9 feb5 	bl	801023c <strlen>
 80164d2:	4b28      	ldr	r3, [pc, #160]	; (8016574 <_puts_r+0xb0>)
 80164d4:	9005      	str	r0, [sp, #20]
 80164d6:	9306      	str	r3, [sp, #24]
 80164d8:	2301      	movs	r3, #1
 80164da:	4418      	add	r0, r3
 80164dc:	9307      	str	r3, [sp, #28]
 80164de:	ab04      	add	r3, sp, #16
 80164e0:	9301      	str	r3, [sp, #4]
 80164e2:	2302      	movs	r3, #2
 80164e4:	9404      	str	r4, [sp, #16]
 80164e6:	9003      	str	r0, [sp, #12]
 80164e8:	9302      	str	r3, [sp, #8]
 80164ea:	b125      	cbz	r5, 80164f6 <_puts_r+0x32>
 80164ec:	69ab      	ldr	r3, [r5, #24]
 80164ee:	b913      	cbnz	r3, 80164f6 <_puts_r+0x32>
 80164f0:	4628      	mov	r0, r5
 80164f2:	f003 fa8b 	bl	8019a0c <__sinit>
 80164f6:	69ab      	ldr	r3, [r5, #24]
 80164f8:	68ac      	ldr	r4, [r5, #8]
 80164fa:	b913      	cbnz	r3, 8016502 <_puts_r+0x3e>
 80164fc:	4628      	mov	r0, r5
 80164fe:	f003 fa85 	bl	8019a0c <__sinit>
 8016502:	4b1d      	ldr	r3, [pc, #116]	; (8016578 <_puts_r+0xb4>)
 8016504:	429c      	cmp	r4, r3
 8016506:	d12a      	bne.n	801655e <_puts_r+0x9a>
 8016508:	686c      	ldr	r4, [r5, #4]
 801650a:	6e63      	ldr	r3, [r4, #100]	; 0x64
 801650c:	07db      	lsls	r3, r3, #31
 801650e:	d405      	bmi.n	801651c <_puts_r+0x58>
 8016510:	89a3      	ldrh	r3, [r4, #12]
 8016512:	0598      	lsls	r0, r3, #22
 8016514:	d402      	bmi.n	801651c <_puts_r+0x58>
 8016516:	6da0      	ldr	r0, [r4, #88]	; 0x58
 8016518:	f003 fd9a 	bl	801a050 <__retarget_lock_acquire_recursive>
 801651c:	f9b4 300c 	ldrsh.w	r3, [r4, #12]
 8016520:	0499      	lsls	r1, r3, #18
 8016522:	d406      	bmi.n	8016532 <_puts_r+0x6e>
 8016524:	f443 5300 	orr.w	r3, r3, #8192	; 0x2000
 8016528:	81a3      	strh	r3, [r4, #12]
 801652a:	6e63      	ldr	r3, [r4, #100]	; 0x64
 801652c:	f423 5300 	bic.w	r3, r3, #8192	; 0x2000
 8016530:	6663      	str	r3, [r4, #100]	; 0x64
 8016532:	4628      	mov	r0, r5
 8016534:	aa01      	add	r2, sp, #4
 8016536:	4621      	mov	r1, r4
 8016538:	f003 fbfc 	bl	8019d34 <__sfvwrite_r>
 801653c:	6e63      	ldr	r3, [r4, #100]	; 0x64
 801653e:	2800      	cmp	r0, #0
 8016540:	bf14      	ite	ne
 8016542:	f04f 35ff 	movne.w	r5, #4294967295
 8016546:	250a      	moveq	r5, #10
 8016548:	07da      	lsls	r2, r3, #31
 801654a:	d405      	bmi.n	8016558 <_puts_r+0x94>
 801654c:	89a3      	ldrh	r3, [r4, #12]
 801654e:	059b      	lsls	r3, r3, #22
 8016550:	d402      	bmi.n	8016558 <_puts_r+0x94>
 8016552:	6da0      	ldr	r0, [r4, #88]	; 0x58
 8016554:	f003 fd7d 	bl	801a052 <__retarget_lock_release_recursive>
 8016558:	4628      	mov	r0, r5
 801655a:	b009      	add	sp, #36	; 0x24
 801655c:	bd30      	pop	{r4, r5, pc}
 801655e:	4b07      	ldr	r3, [pc, #28]	; (801657c <_puts_r+0xb8>)
 8016560:	429c      	cmp	r4, r3
 8016562:	d101      	bne.n	8016568 <_puts_r+0xa4>
 8016564:	68ac      	ldr	r4, [r5, #8]
 8016566:	e7d0      	b.n	801650a <_puts_r+0x46>
 8016568:	4b05      	ldr	r3, [pc, #20]	; (8016580 <_puts_r+0xbc>)
 801656a:	429c      	cmp	r4, r3
 801656c:	bf08      	it	eq
 801656e:	68ec      	ldreq	r4, [r5, #12]
 8016570:	e7cb      	b.n	801650a <_puts_r+0x46>
 8016572:	bf00      	nop
 8016574:	0801bb08 	.word	0x0801bb08
 8016578:	0801bbd0 	.word	0x0801bbd0
 801657c:	0801bbf0 	.word	0x0801bbf0
 8016580:	0801bbb0 	.word	0x0801bbb0

08016584 <puts>:
 8016584:	4b02      	ldr	r3, [pc, #8]	; (8016590 <puts+0xc>)
 8016586:	4601      	mov	r1, r0
 8016588:	6818      	ldr	r0, [r3, #0]
 801658a:	f7ff bf9b 	b.w	80164c4 <_puts_r>
 801658e:	bf00      	nop
 8016590:	20000020 	.word	0x20000020

08016594 <snprintf>:
 8016594:	b40c      	push	{r2, r3}
 8016596:	b530      	push	{r4, r5, lr}
 8016598:	4b17      	ldr	r3, [pc, #92]	; (80165f8 <snprintf+0x64>)
 801659a:	1e0c      	subs	r4, r1, #0
 801659c:	b09d      	sub	sp, #116	; 0x74
 801659e:	681d      	ldr	r5, [r3, #0]
 80165a0:	da08      	bge.n	80165b4 <snprintf+0x20>
 80165a2:	238b      	movs	r3, #139	; 0x8b
 80165a4:	f04f 30ff 	mov.w	r0, #4294967295
 80165a8:	602b      	str	r3, [r5, #0]
 80165aa:	b01d      	add	sp, #116	; 0x74
 80165ac:	e8bd 4030 	ldmia.w	sp!, {r4, r5, lr}
 80165b0:	b002      	add	sp, #8
 80165b2:	4770      	bx	lr
 80165b4:	f44f 7302 	mov.w	r3, #520	; 0x208
 80165b8:	f8ad 3014 	strh.w	r3, [sp, #20]
 80165bc:	bf0c      	ite	eq
 80165be:	4623      	moveq	r3, r4
 80165c0:	f104 33ff 	addne.w	r3, r4, #4294967295
 80165c4:	9304      	str	r3, [sp, #16]
 80165c6:	9307      	str	r3, [sp, #28]
 80165c8:	f64f 73ff 	movw	r3, #65535	; 0xffff
 80165cc:	9002      	str	r0, [sp, #8]
 80165ce:	9006      	str	r0, [sp, #24]
 80165d0:	f8ad 3016 	strh.w	r3, [sp, #22]
 80165d4:	9a20      	ldr	r2, [sp, #128]	; 0x80
 80165d6:	ab21      	add	r3, sp, #132	; 0x84
 80165d8:	a902      	add	r1, sp, #8
 80165da:	4628      	mov	r0, r5
 80165dc:	9301      	str	r3, [sp, #4]
 80165de:	f000 f999 	bl	8016914 <_svfprintf_r>
 80165e2:	1c43      	adds	r3, r0, #1
 80165e4:	bfbc      	itt	lt
 80165e6:	238b      	movlt	r3, #139	; 0x8b
 80165e8:	602b      	strlt	r3, [r5, #0]
 80165ea:	2c00      	cmp	r4, #0
 80165ec:	d0dd      	beq.n	80165aa <snprintf+0x16>
 80165ee:	2200      	movs	r2, #0
 80165f0:	9b02      	ldr	r3, [sp, #8]
 80165f2:	701a      	strb	r2, [r3, #0]
 80165f4:	e7d9      	b.n	80165aa <snprintf+0x16>
 80165f6:	bf00      	nop
 80165f8:	20000020 	.word	0x20000020

080165fc <sprintf>:
 80165fc:	b40e      	push	{r1, r2, r3}
 80165fe:	f44f 7102 	mov.w	r1, #520	; 0x208
 8016602:	b500      	push	{lr}
 8016604:	b09c      	sub	sp, #112	; 0x70
 8016606:	f8ad 1014 	strh.w	r1, [sp, #20]
 801660a:	f06f 4100 	mvn.w	r1, #2147483648	; 0x80000000
 801660e:	9104      	str	r1, [sp, #16]
 8016610:	9107      	str	r1, [sp, #28]
 8016612:	f64f 71ff 	movw	r1, #65535	; 0xffff
 8016616:	ab1d      	add	r3, sp, #116	; 0x74
 8016618:	9002      	str	r0, [sp, #8]
 801661a:	9006      	str	r0, [sp, #24]
 801661c:	4808      	ldr	r0, [pc, #32]	; (8016640 <sprintf+0x44>)
 801661e:	f853 2b04 	ldr.w	r2, [r3], #4
 8016622:	f8ad 1016 	strh.w	r1, [sp, #22]
 8016626:	6800      	ldr	r0, [r0, #0]
 8016628:	a902      	add	r1, sp, #8
 801662a:	9301      	str	r3, [sp, #4]
 801662c:	f000 f972 	bl	8016914 <_svfprintf_r>
 8016630:	2200      	movs	r2, #0
 8016632:	9b02      	ldr	r3, [sp, #8]
 8016634:	701a      	strb	r2, [r3, #0]
 8016636:	b01c      	add	sp, #112	; 0x70
 8016638:	f85d eb04 	ldr.w	lr, [sp], #4
 801663c:	b003      	add	sp, #12
 801663e:	4770      	bx	lr
 8016640:	20000020 	.word	0x20000020

08016644 <strcat>:
 8016644:	4602      	mov	r2, r0
 8016646:	b510      	push	{r4, lr}
 8016648:	4613      	mov	r3, r2
 801664a:	781c      	ldrb	r4, [r3, #0]
 801664c:	3201      	adds	r2, #1
 801664e:	2c00      	cmp	r4, #0
 8016650:	d1fa      	bne.n	8016648 <strcat+0x4>
 8016652:	3b01      	subs	r3, #1
 8016654:	f811 2b01 	ldrb.w	r2, [r1], #1
 8016658:	f803 2f01 	strb.w	r2, [r3, #1]!
 801665c:	2a00      	cmp	r2, #0
 801665e:	d1f9      	bne.n	8016654 <strcat+0x10>
 8016660:	bd10      	pop	{r4, pc}

08016662 <strchr>:
 8016662:	b2c9      	uxtb	r1, r1
 8016664:	4603      	mov	r3, r0
 8016666:	f810 2b01 	ldrb.w	r2, [r0], #1
 801666a:	b11a      	cbz	r2, 8016674 <strchr+0x12>
 801666c:	4291      	cmp	r1, r2
 801666e:	d1f9      	bne.n	8016664 <strchr+0x2>
 8016670:	4618      	mov	r0, r3
 8016672:	4770      	bx	lr
 8016674:	2900      	cmp	r1, #0
 8016676:	bf0c      	ite	eq
 8016678:	4618      	moveq	r0, r3
 801667a:	2000      	movne	r0, #0
 801667c:	4770      	bx	lr

0801667e <strcpy>:
 801667e:	4603      	mov	r3, r0
 8016680:	f811 2b01 	ldrb.w	r2, [r1], #1
 8016684:	f803 2b01 	strb.w	r2, [r3], #1
 8016688:	2a00      	cmp	r2, #0
 801668a:	d1f9      	bne.n	8016680 <strcpy+0x2>
 801668c:	4770      	bx	lr

0801668e <strncat>:
 801668e:	4603      	mov	r3, r0
 8016690:	b530      	push	{r4, r5, lr}
 8016692:	781c      	ldrb	r4, [r3, #0]
 8016694:	1c5d      	adds	r5, r3, #1
 8016696:	b944      	cbnz	r4, 80166aa <strncat+0x1c>
 8016698:	f112 32ff 	adds.w	r2, r2, #4294967295
 801669c:	d304      	bcc.n	80166a8 <strncat+0x1a>
 801669e:	f811 4b01 	ldrb.w	r4, [r1], #1
 80166a2:	f803 4b01 	strb.w	r4, [r3], #1
 80166a6:	b914      	cbnz	r4, 80166ae <strncat+0x20>
 80166a8:	bd30      	pop	{r4, r5, pc}
 80166aa:	462b      	mov	r3, r5
 80166ac:	e7f1      	b.n	8016692 <strncat+0x4>
 80166ae:	2a00      	cmp	r2, #0
 80166b0:	d1f2      	bne.n	8016698 <strncat+0xa>
 80166b2:	701a      	strb	r2, [r3, #0]
 80166b4:	e7f0      	b.n	8016698 <strncat+0xa>

080166b6 <strncmp>:
 80166b6:	b510      	push	{r4, lr}
 80166b8:	b16a      	cbz	r2, 80166d6 <strncmp+0x20>
 80166ba:	3901      	subs	r1, #1
 80166bc:	1884      	adds	r4, r0, r2
 80166be:	f810 3b01 	ldrb.w	r3, [r0], #1
 80166c2:	f811 2f01 	ldrb.w	r2, [r1, #1]!
 80166c6:	4293      	cmp	r3, r2
 80166c8:	d103      	bne.n	80166d2 <strncmp+0x1c>
 80166ca:	42a0      	cmp	r0, r4
 80166cc:	d001      	beq.n	80166d2 <strncmp+0x1c>
 80166ce:	2b00      	cmp	r3, #0
 80166d0:	d1f5      	bne.n	80166be <strncmp+0x8>
 80166d2:	1a98      	subs	r0, r3, r2
 80166d4:	bd10      	pop	{r4, pc}
 80166d6:	4610      	mov	r0, r2
 80166d8:	bd10      	pop	{r4, pc}

080166da <strncpy>:
 80166da:	b570      	push	{r4, r5, r6, lr}
 80166dc:	4604      	mov	r4, r0
 80166de:	b902      	cbnz	r2, 80166e2 <strncpy+0x8>
 80166e0:	bd70      	pop	{r4, r5, r6, pc}
 80166e2:	4623      	mov	r3, r4
 80166e4:	f811 5b01 	ldrb.w	r5, [r1], #1
 80166e8:	1e56      	subs	r6, r2, #1
 80166ea:	f803 5b01 	strb.w	r5, [r3], #1
 80166ee:	b91d      	cbnz	r5, 80166f8 <strncpy+0x1e>
 80166f0:	4414      	add	r4, r2
 80166f2:	42a3      	cmp	r3, r4
 80166f4:	d103      	bne.n	80166fe <strncpy+0x24>
 80166f6:	bd70      	pop	{r4, r5, r6, pc}
 80166f8:	461c      	mov	r4, r3
 80166fa:	4632      	mov	r2, r6
 80166fc:	e7ef      	b.n	80166de <strncpy+0x4>
 80166fe:	f803 5b01 	strb.w	r5, [r3], #1
 8016702:	e7f6      	b.n	80166f2 <strncpy+0x18>

08016704 <strstr>:
 8016704:	b5f0      	push	{r4, r5, r6, r7, lr}
 8016706:	7803      	ldrb	r3, [r0, #0]
 8016708:	b133      	cbz	r3, 8016718 <strstr+0x14>
 801670a:	4603      	mov	r3, r0
 801670c:	4618      	mov	r0, r3
 801670e:	1c5e      	adds	r6, r3, #1
 8016710:	781b      	ldrb	r3, [r3, #0]
 8016712:	b933      	cbnz	r3, 8016722 <strstr+0x1e>
 8016714:	4618      	mov	r0, r3
 8016716:	bdf0      	pop	{r4, r5, r6, r7, pc}
 8016718:	780b      	ldrb	r3, [r1, #0]
 801671a:	2b00      	cmp	r3, #0
 801671c:	bf18      	it	ne
 801671e:	2000      	movne	r0, #0
 8016720:	bdf0      	pop	{r4, r5, r6, r7, pc}
 8016722:	1e4d      	subs	r5, r1, #1
 8016724:	1e44      	subs	r4, r0, #1
 8016726:	f815 2f01 	ldrb.w	r2, [r5, #1]!
 801672a:	2a00      	cmp	r2, #0
 801672c:	d0f3      	beq.n	8016716 <strstr+0x12>
 801672e:	f814 7f01 	ldrb.w	r7, [r4, #1]!
 8016732:	4633      	mov	r3, r6
 8016734:	4297      	cmp	r7, r2
 8016736:	d0f6      	beq.n	8016726 <strstr+0x22>
 8016738:	e7e8      	b.n	801670c <strstr+0x8>
	...

0801673c <strtok>:
 801673c:	4b14      	ldr	r3, [pc, #80]	; (8016790 <strtok+0x54>)
 801673e:	e92d 41f0 	stmdb	sp!, {r4, r5, r6, r7, r8, lr}
 8016742:	681d      	ldr	r5, [r3, #0]
 8016744:	4606      	mov	r6, r0
 8016746:	f8d5 40e8 	ldr.w	r4, [r5, #232]	; 0xe8
 801674a:	460f      	mov	r7, r1
 801674c:	b9bc      	cbnz	r4, 801677e <strtok+0x42>
 801674e:	2050      	movs	r0, #80	; 0x50
 8016750:	f003 fcec 	bl	801a12c <malloc>
 8016754:	f8c5 00e8 	str.w	r0, [r5, #232]	; 0xe8
 8016758:	6004      	str	r4, [r0, #0]
 801675a:	6044      	str	r4, [r0, #4]
 801675c:	6084      	str	r4, [r0, #8]
 801675e:	60c4      	str	r4, [r0, #12]
 8016760:	6104      	str	r4, [r0, #16]
 8016762:	6144      	str	r4, [r0, #20]
 8016764:	6184      	str	r4, [r0, #24]
 8016766:	6284      	str	r4, [r0, #40]	; 0x28
 8016768:	62c4      	str	r4, [r0, #44]	; 0x2c
 801676a:	6304      	str	r4, [r0, #48]	; 0x30
 801676c:	6344      	str	r4, [r0, #52]	; 0x34
 801676e:	6384      	str	r4, [r0, #56]	; 0x38
 8016770:	63c4      	str	r4, [r0, #60]	; 0x3c
 8016772:	6404      	str	r4, [r0, #64]	; 0x40
 8016774:	6444      	str	r4, [r0, #68]	; 0x44
 8016776:	6484      	str	r4, [r0, #72]	; 0x48
 8016778:	64c4      	str	r4, [r0, #76]	; 0x4c
 801677a:	7704      	strb	r4, [r0, #28]
 801677c:	6244      	str	r4, [r0, #36]	; 0x24
 801677e:	f8d5 20e8 	ldr.w	r2, [r5, #232]	; 0xe8
 8016782:	4639      	mov	r1, r7
 8016784:	4630      	mov	r0, r6
 8016786:	e8bd 41f0 	ldmia.w	sp!, {r4, r5, r6, r7, r8, lr}
 801678a:	2301      	movs	r3, #1
 801678c:	f000 b802 	b.w	8016794 <__strtok_r>
 8016790:	20000020 	.word	0x20000020

08016794 <__strtok_r>:
 8016794:	b5f0      	push	{r4, r5, r6, r7, lr}
 8016796:	b918      	cbnz	r0, 80167a0 <__strtok_r+0xc>
 8016798:	6810      	ldr	r0, [r2, #0]
 801679a:	b908      	cbnz	r0, 80167a0 <__strtok_r+0xc>
 801679c:	bdf0      	pop	{r4, r5, r6, r7, pc}
 801679e:	4620      	mov	r0, r4
 80167a0:	4604      	mov	r4, r0
 80167a2:	460f      	mov	r7, r1
 80167a4:	f814 5b01 	ldrb.w	r5, [r4], #1
 80167a8:	f817 6b01 	ldrb.w	r6, [r7], #1
 80167ac:	b91e      	cbnz	r6, 80167b6 <__strtok_r+0x22>
 80167ae:	b965      	cbnz	r5, 80167ca <__strtok_r+0x36>
 80167b0:	6015      	str	r5, [r2, #0]
 80167b2:	4628      	mov	r0, r5
 80167b4:	bdf0      	pop	{r4, r5, r6, r7, pc}
 80167b6:	42b5      	cmp	r5, r6
 80167b8:	d1f6      	bne.n	80167a8 <__strtok_r+0x14>
 80167ba:	2b00      	cmp	r3, #0
 80167bc:	d1ef      	bne.n	801679e <__strtok_r+0xa>
 80167be:	6014      	str	r4, [r2, #0]
 80167c0:	7003      	strb	r3, [r0, #0]
 80167c2:	bdf0      	pop	{r4, r5, r6, r7, pc}
 80167c4:	461c      	mov	r4, r3
 80167c6:	e00c      	b.n	80167e2 <__strtok_r+0x4e>
 80167c8:	b915      	cbnz	r5, 80167d0 <__strtok_r+0x3c>
 80167ca:	460e      	mov	r6, r1
 80167cc:	f814 3b01 	ldrb.w	r3, [r4], #1
 80167d0:	f816 5b01 	ldrb.w	r5, [r6], #1
 80167d4:	42ab      	cmp	r3, r5
 80167d6:	d1f7      	bne.n	80167c8 <__strtok_r+0x34>
 80167d8:	2b00      	cmp	r3, #0
 80167da:	d0f3      	beq.n	80167c4 <__strtok_r+0x30>
 80167dc:	2300      	movs	r3, #0
 80167de:	f804 3c01 	strb.w	r3, [r4, #-1]
 80167e2:	6014      	str	r4, [r2, #0]
 80167e4:	bdf0      	pop	{r4, r5, r6, r7, pc}

080167e6 <_strtol_l.isra.0>:
 80167e6:	e92d 4ff8 	stmdb	sp!, {r3, r4, r5, r6, r7, r8, r9, sl, fp, lr}
 80167ea:	4680      	mov	r8, r0
 80167ec:	4689      	mov	r9, r1
 80167ee:	4692      	mov	sl, r2
 80167f0:	461f      	mov	r7, r3
 80167f2:	468b      	mov	fp, r1
 80167f4:	465d      	mov	r5, fp
 80167f6:	980a      	ldr	r0, [sp, #40]	; 0x28
 80167f8:	f815 4b01 	ldrb.w	r4, [r5], #1
 80167fc:	f003 fc14 	bl	801a028 <__locale_ctype_ptr_l>
 8016800:	4420      	add	r0, r4
 8016802:	7846      	ldrb	r6, [r0, #1]
 8016804:	f016 0608 	ands.w	r6, r6, #8
 8016808:	d10b      	bne.n	8016822 <_strtol_l.isra.0+0x3c>
 801680a:	2c2d      	cmp	r4, #45	; 0x2d
 801680c:	d10b      	bne.n	8016826 <_strtol_l.isra.0+0x40>
 801680e:	2601      	movs	r6, #1
 8016810:	782c      	ldrb	r4, [r5, #0]
 8016812:	f10b 0502 	add.w	r5, fp, #2
 8016816:	b167      	cbz	r7, 8016832 <_strtol_l.isra.0+0x4c>
 8016818:	2f10      	cmp	r7, #16
 801681a:	d114      	bne.n	8016846 <_strtol_l.isra.0+0x60>
 801681c:	2c30      	cmp	r4, #48	; 0x30
 801681e:	d00a      	beq.n	8016836 <_strtol_l.isra.0+0x50>
 8016820:	e011      	b.n	8016846 <_strtol_l.isra.0+0x60>
 8016822:	46ab      	mov	fp, r5
 8016824:	e7e6      	b.n	80167f4 <_strtol_l.isra.0+0xe>
 8016826:	2c2b      	cmp	r4, #43	; 0x2b
 8016828:	bf04      	itt	eq
 801682a:	782c      	ldrbeq	r4, [r5, #0]
 801682c:	f10b 0502 	addeq.w	r5, fp, #2
 8016830:	e7f1      	b.n	8016816 <_strtol_l.isra.0+0x30>
 8016832:	2c30      	cmp	r4, #48	; 0x30
 8016834:	d127      	bne.n	8016886 <_strtol_l.isra.0+0xa0>
 8016836:	782b      	ldrb	r3, [r5, #0]
 8016838:	f003 03df 	and.w	r3, r3, #223	; 0xdf
 801683c:	2b58      	cmp	r3, #88	; 0x58
 801683e:	d14b      	bne.n	80168d8 <_strtol_l.isra.0+0xf2>
 8016840:	2710      	movs	r7, #16
 8016842:	786c      	ldrb	r4, [r5, #1]
 8016844:	3502      	adds	r5, #2
 8016846:	2e00      	cmp	r6, #0
 8016848:	bf0c      	ite	eq
 801684a:	f06f 4100 	mvneq.w	r1, #2147483648	; 0x80000000
 801684e:	f04f 4100 	movne.w	r1, #2147483648	; 0x80000000
 8016852:	2200      	movs	r2, #0
 8016854:	fbb1 fef7 	udiv	lr, r1, r7
 8016858:	4610      	mov	r0, r2
 801685a:	fb07 1c1e 	mls	ip, r7, lr, r1
 801685e:	f1a4 0330 	sub.w	r3, r4, #48	; 0x30
 8016862:	2b09      	cmp	r3, #9
 8016864:	d811      	bhi.n	801688a <_strtol_l.isra.0+0xa4>
 8016866:	461c      	mov	r4, r3
 8016868:	42a7      	cmp	r7, r4
 801686a:	dd1d      	ble.n	80168a8 <_strtol_l.isra.0+0xc2>
 801686c:	1c53      	adds	r3, r2, #1
 801686e:	d007      	beq.n	8016880 <_strtol_l.isra.0+0x9a>
 8016870:	4586      	cmp	lr, r0
 8016872:	d316      	bcc.n	80168a2 <_strtol_l.isra.0+0xbc>
 8016874:	d101      	bne.n	801687a <_strtol_l.isra.0+0x94>
 8016876:	45a4      	cmp	ip, r4
 8016878:	db13      	blt.n	80168a2 <_strtol_l.isra.0+0xbc>
 801687a:	2201      	movs	r2, #1
 801687c:	fb00 4007 	mla	r0, r0, r7, r4
 8016880:	f815 4b01 	ldrb.w	r4, [r5], #1
 8016884:	e7eb      	b.n	801685e <_strtol_l.isra.0+0x78>
 8016886:	270a      	movs	r7, #10
 8016888:	e7dd      	b.n	8016846 <_strtol_l.isra.0+0x60>
 801688a:	f1a4 0341 	sub.w	r3, r4, #65	; 0x41
 801688e:	2b19      	cmp	r3, #25
 8016890:	d801      	bhi.n	8016896 <_strtol_l.isra.0+0xb0>
 8016892:	3c37      	subs	r4, #55	; 0x37
 8016894:	e7e8      	b.n	8016868 <_strtol_l.isra.0+0x82>
 8016896:	f1a4 0361 	sub.w	r3, r4, #97	; 0x61
 801689a:	2b19      	cmp	r3, #25
 801689c:	d804      	bhi.n	80168a8 <_strtol_l.isra.0+0xc2>
 801689e:	3c57      	subs	r4, #87	; 0x57
 80168a0:	e7e2      	b.n	8016868 <_strtol_l.isra.0+0x82>
 80168a2:	f04f 32ff 	mov.w	r2, #4294967295
 80168a6:	e7eb      	b.n	8016880 <_strtol_l.isra.0+0x9a>
 80168a8:	1c53      	adds	r3, r2, #1
 80168aa:	d108      	bne.n	80168be <_strtol_l.isra.0+0xd8>
 80168ac:	2322      	movs	r3, #34	; 0x22
 80168ae:	4608      	mov	r0, r1
 80168b0:	f8c8 3000 	str.w	r3, [r8]
 80168b4:	f1ba 0f00 	cmp.w	sl, #0
 80168b8:	d107      	bne.n	80168ca <_strtol_l.isra.0+0xe4>
 80168ba:	e8bd 8ff8 	ldmia.w	sp!, {r3, r4, r5, r6, r7, r8, r9, sl, fp, pc}
 80168be:	b106      	cbz	r6, 80168c2 <_strtol_l.isra.0+0xdc>
 80168c0:	4240      	negs	r0, r0
 80168c2:	f1ba 0f00 	cmp.w	sl, #0
 80168c6:	d00c      	beq.n	80168e2 <_strtol_l.isra.0+0xfc>
 80168c8:	b122      	cbz	r2, 80168d4 <_strtol_l.isra.0+0xee>
 80168ca:	3d01      	subs	r5, #1
 80168cc:	f8ca 5000 	str.w	r5, [sl]
 80168d0:	e8bd 8ff8 	ldmia.w	sp!, {r3, r4, r5, r6, r7, r8, r9, sl, fp, pc}
 80168d4:	464d      	mov	r5, r9
 80168d6:	e7f9      	b.n	80168cc <_strtol_l.isra.0+0xe6>
 80168d8:	2430      	movs	r4, #48	; 0x30
 80168da:	2f00      	cmp	r7, #0
 80168dc:	d1b3      	bne.n	8016846 <_strtol_l.isra.0+0x60>
 80168de:	2708      	movs	r7, #8
 80168e0:	e7b1      	b.n	8016846 <_strtol_l.isra.0+0x60>
 80168e2:	e8bd 8ff8 	ldmia.w	sp!, {r3, r4, r5, r6, r7, r8, r9, sl, fp, pc}
	...

080168e8 <strtol>:
 80168e8:	4b08      	ldr	r3, [pc, #32]	; (801690c <strtol+0x24>)
 80168ea:	b537      	push	{r0, r1, r2, r4, r5, lr}
 80168ec:	681c      	ldr	r4, [r3, #0]
 80168ee:	4d08      	ldr	r5, [pc, #32]	; (8016910 <strtol+0x28>)
 80168f0:	6a23      	ldr	r3, [r4, #32]
 80168f2:	2b00      	cmp	r3, #0
 80168f4:	bf08      	it	eq
 80168f6:	462b      	moveq	r3, r5
 80168f8:	9300      	str	r3, [sp, #0]
 80168fa:	4613      	mov	r3, r2
 80168fc:	460a      	mov	r2, r1
 80168fe:	4601      	mov	r1, r0
 8016900:	4620      	mov	r0, r4
 8016902:	f7ff ff70 	bl	80167e6 <_strtol_l.isra.0>
 8016906:	b003      	add	sp, #12
 8016908:	bd30      	pop	{r4, r5, pc}
 801690a:	bf00      	nop
 801690c:	20000020 	.word	0x20000020
 8016910:	20000114 	.word	0x20000114

08016914 <_svfprintf_r>:
 8016914:	e92d 4ff0 	stmdb	sp!, {r4, r5, r6, r7, r8, r9, sl, fp, lr}
 8016918:	b0bf      	sub	sp, #252	; 0xfc
 801691a:	4689      	mov	r9, r1
 801691c:	4615      	mov	r5, r2
 801691e:	461f      	mov	r7, r3
 8016920:	4682      	mov	sl, r0
 8016922:	f003 fb85 	bl	801a030 <_localeconv_r>
 8016926:	6803      	ldr	r3, [r0, #0]
 8016928:	4618      	mov	r0, r3
 801692a:	9311      	str	r3, [sp, #68]	; 0x44
 801692c:	f7f9 fc86 	bl	801023c <strlen>
 8016930:	f8b9 300c 	ldrh.w	r3, [r9, #12]
 8016934:	900a      	str	r0, [sp, #40]	; 0x28
 8016936:	061b      	lsls	r3, r3, #24
 8016938:	d518      	bpl.n	801696c <_svfprintf_r+0x58>
 801693a:	f8d9 3010 	ldr.w	r3, [r9, #16]
 801693e:	b9ab      	cbnz	r3, 801696c <_svfprintf_r+0x58>
 8016940:	2140      	movs	r1, #64	; 0x40
 8016942:	4650      	mov	r0, sl
 8016944:	f003 fbfa 	bl	801a13c <_malloc_r>
 8016948:	f8c9 0000 	str.w	r0, [r9]
 801694c:	f8c9 0010 	str.w	r0, [r9, #16]
 8016950:	b948      	cbnz	r0, 8016966 <_svfprintf_r+0x52>
 8016952:	230c      	movs	r3, #12
 8016954:	f8ca 3000 	str.w	r3, [sl]
 8016958:	f04f 33ff 	mov.w	r3, #4294967295
 801695c:	930b      	str	r3, [sp, #44]	; 0x2c
 801695e:	980b      	ldr	r0, [sp, #44]	; 0x2c
 8016960:	b03f      	add	sp, #252	; 0xfc
 8016962:	e8bd 8ff0 	ldmia.w	sp!, {r4, r5, r6, r7, r8, r9, sl, fp, pc}
 8016966:	2340      	movs	r3, #64	; 0x40
 8016968:	f8c9 3014 	str.w	r3, [r9, #20]
 801696c:	2300      	movs	r3, #0
 801696e:	ac2e      	add	r4, sp, #184	; 0xb8
 8016970:	9421      	str	r4, [sp, #132]	; 0x84
 8016972:	9323      	str	r3, [sp, #140]	; 0x8c
 8016974:	9322      	str	r3, [sp, #136]	; 0x88
 8016976:	9509      	str	r5, [sp, #36]	; 0x24
 8016978:	9307      	str	r3, [sp, #28]
 801697a:	930d      	str	r3, [sp, #52]	; 0x34
 801697c:	930e      	str	r3, [sp, #56]	; 0x38
 801697e:	9315      	str	r3, [sp, #84]	; 0x54
 8016980:	9314      	str	r3, [sp, #80]	; 0x50
 8016982:	930b      	str	r3, [sp, #44]	; 0x2c
 8016984:	9312      	str	r3, [sp, #72]	; 0x48
 8016986:	9313      	str	r3, [sp, #76]	; 0x4c
 8016988:	9d09      	ldr	r5, [sp, #36]	; 0x24
 801698a:	462b      	mov	r3, r5
 801698c:	f813 2b01 	ldrb.w	r2, [r3], #1
 8016990:	b112      	cbz	r2, 8016998 <_svfprintf_r+0x84>
 8016992:	2a25      	cmp	r2, #37	; 0x25
 8016994:	f040 8083 	bne.w	8016a9e <_svfprintf_r+0x18a>
 8016998:	9b09      	ldr	r3, [sp, #36]	; 0x24
 801699a:	1aee      	subs	r6, r5, r3
 801699c:	d00d      	beq.n	80169ba <_svfprintf_r+0xa6>
 801699e:	e884 0048 	stmia.w	r4, {r3, r6}
 80169a2:	9b23      	ldr	r3, [sp, #140]	; 0x8c
 80169a4:	4433      	add	r3, r6
 80169a6:	9323      	str	r3, [sp, #140]	; 0x8c
 80169a8:	9b22      	ldr	r3, [sp, #136]	; 0x88
 80169aa:	3301      	adds	r3, #1
 80169ac:	2b07      	cmp	r3, #7
 80169ae:	9322      	str	r3, [sp, #136]	; 0x88
 80169b0:	dc77      	bgt.n	8016aa2 <_svfprintf_r+0x18e>
 80169b2:	3408      	adds	r4, #8
 80169b4:	9b0b      	ldr	r3, [sp, #44]	; 0x2c
 80169b6:	4433      	add	r3, r6
 80169b8:	930b      	str	r3, [sp, #44]	; 0x2c
 80169ba:	782b      	ldrb	r3, [r5, #0]
 80169bc:	2b00      	cmp	r3, #0
 80169be:	f000 8725 	beq.w	801780c <_svfprintf_r+0xef8>
 80169c2:	2300      	movs	r3, #0
 80169c4:	1c69      	adds	r1, r5, #1
 80169c6:	461a      	mov	r2, r3
 80169c8:	f04f 3bff 	mov.w	fp, #4294967295
 80169cc:	461d      	mov	r5, r3
 80169ce:	200a      	movs	r0, #10
 80169d0:	f88d 3067 	strb.w	r3, [sp, #103]	; 0x67
 80169d4:	930c      	str	r3, [sp, #48]	; 0x30
 80169d6:	1c4e      	adds	r6, r1, #1
 80169d8:	7809      	ldrb	r1, [r1, #0]
 80169da:	9609      	str	r6, [sp, #36]	; 0x24
 80169dc:	9106      	str	r1, [sp, #24]
 80169de:	9906      	ldr	r1, [sp, #24]
 80169e0:	3920      	subs	r1, #32
 80169e2:	2958      	cmp	r1, #88	; 0x58
 80169e4:	f200 8414 	bhi.w	8017210 <_svfprintf_r+0x8fc>
 80169e8:	e8df f011 	tbh	[pc, r1, lsl #1]
 80169ec:	041200a5 	.word	0x041200a5
 80169f0:	00aa0412 	.word	0x00aa0412
 80169f4:	04120412 	.word	0x04120412
 80169f8:	04120412 	.word	0x04120412
 80169fc:	04120412 	.word	0x04120412
 8016a00:	006500ad 	.word	0x006500ad
 8016a04:	00b50412 	.word	0x00b50412
 8016a08:	041200b8 	.word	0x041200b8
 8016a0c:	00d800d5 	.word	0x00d800d5
 8016a10:	00d800d8 	.word	0x00d800d8
 8016a14:	00d800d8 	.word	0x00d800d8
 8016a18:	00d800d8 	.word	0x00d800d8
 8016a1c:	00d800d8 	.word	0x00d800d8
 8016a20:	04120412 	.word	0x04120412
 8016a24:	04120412 	.word	0x04120412
 8016a28:	04120412 	.word	0x04120412
 8016a2c:	04120412 	.word	0x04120412
 8016a30:	04120412 	.word	0x04120412
 8016a34:	0122010c 	.word	0x0122010c
 8016a38:	01220412 	.word	0x01220412
 8016a3c:	04120412 	.word	0x04120412
 8016a40:	04120412 	.word	0x04120412
 8016a44:	041200eb 	.word	0x041200eb
 8016a48:	033c0412 	.word	0x033c0412
 8016a4c:	04120412 	.word	0x04120412
 8016a50:	04120412 	.word	0x04120412
 8016a54:	03a40412 	.word	0x03a40412
 8016a58:	04120412 	.word	0x04120412
 8016a5c:	04120085 	.word	0x04120085
 8016a60:	04120412 	.word	0x04120412
 8016a64:	04120412 	.word	0x04120412
 8016a68:	04120412 	.word	0x04120412
 8016a6c:	04120412 	.word	0x04120412
 8016a70:	00fe0412 	.word	0x00fe0412
 8016a74:	0122006b 	.word	0x0122006b
 8016a78:	01220122 	.word	0x01220122
 8016a7c:	006b00ee 	.word	0x006b00ee
 8016a80:	04120412 	.word	0x04120412
 8016a84:	041200f1 	.word	0x041200f1
 8016a88:	033e031e 	.word	0x033e031e
 8016a8c:	00f80372 	.word	0x00f80372
 8016a90:	03830412 	.word	0x03830412
 8016a94:	03a60412 	.word	0x03a60412
 8016a98:	04120412 	.word	0x04120412
 8016a9c:	03be      	.short	0x03be
 8016a9e:	461d      	mov	r5, r3
 8016aa0:	e773      	b.n	801698a <_svfprintf_r+0x76>
 8016aa2:	aa21      	add	r2, sp, #132	; 0x84
 8016aa4:	4649      	mov	r1, r9
 8016aa6:	4650      	mov	r0, sl
 8016aa8:	f004 fa41 	bl	801af2e <__ssprint_r>
 8016aac:	2800      	cmp	r0, #0
 8016aae:	f040 868e 	bne.w	80177ce <_svfprintf_r+0xeba>
 8016ab2:	ac2e      	add	r4, sp, #184	; 0xb8
 8016ab4:	e77e      	b.n	80169b4 <_svfprintf_r+0xa0>
 8016ab6:	2301      	movs	r3, #1
 8016ab8:	222b      	movs	r2, #43	; 0x2b
 8016aba:	9909      	ldr	r1, [sp, #36]	; 0x24
 8016abc:	e78b      	b.n	80169d6 <_svfprintf_r+0xc2>
 8016abe:	460f      	mov	r7, r1
 8016ac0:	e7fb      	b.n	8016aba <_svfprintf_r+0x1a6>
 8016ac2:	b10b      	cbz	r3, 8016ac8 <_svfprintf_r+0x1b4>
 8016ac4:	f88d 2067 	strb.w	r2, [sp, #103]	; 0x67
 8016ac8:	06ae      	lsls	r6, r5, #26
 8016aca:	f140 80a1 	bpl.w	8016c10 <_svfprintf_r+0x2fc>
 8016ace:	3707      	adds	r7, #7
 8016ad0:	f027 0707 	bic.w	r7, r7, #7
 8016ad4:	f107 0308 	add.w	r3, r7, #8
 8016ad8:	9308      	str	r3, [sp, #32]
 8016ada:	e9d7 6700 	ldrd	r6, r7, [r7]
 8016ade:	2e00      	cmp	r6, #0
 8016ae0:	f177 0300 	sbcs.w	r3, r7, #0
 8016ae4:	da05      	bge.n	8016af2 <_svfprintf_r+0x1de>
 8016ae6:	232d      	movs	r3, #45	; 0x2d
 8016ae8:	4276      	negs	r6, r6
 8016aea:	eb67 0747 	sbc.w	r7, r7, r7, lsl #1
 8016aee:	f88d 3067 	strb.w	r3, [sp, #103]	; 0x67
 8016af2:	2301      	movs	r3, #1
 8016af4:	e2c7      	b.n	8017086 <_svfprintf_r+0x772>
 8016af6:	b10b      	cbz	r3, 8016afc <_svfprintf_r+0x1e8>
 8016af8:	f88d 2067 	strb.w	r2, [sp, #103]	; 0x67
 8016afc:	4ba0      	ldr	r3, [pc, #640]	; (8016d80 <_svfprintf_r+0x46c>)
 8016afe:	9315      	str	r3, [sp, #84]	; 0x54
 8016b00:	06ab      	lsls	r3, r5, #26
 8016b02:	f140 8336 	bpl.w	8017172 <_svfprintf_r+0x85e>
 8016b06:	3707      	adds	r7, #7
 8016b08:	f027 0707 	bic.w	r7, r7, #7
 8016b0c:	f107 0308 	add.w	r3, r7, #8
 8016b10:	9308      	str	r3, [sp, #32]
 8016b12:	e9d7 6700 	ldrd	r6, r7, [r7]
 8016b16:	07e8      	lsls	r0, r5, #31
 8016b18:	d50b      	bpl.n	8016b32 <_svfprintf_r+0x21e>
 8016b1a:	ea56 0307 	orrs.w	r3, r6, r7
 8016b1e:	d008      	beq.n	8016b32 <_svfprintf_r+0x21e>
 8016b20:	2330      	movs	r3, #48	; 0x30
 8016b22:	f88d 3068 	strb.w	r3, [sp, #104]	; 0x68
 8016b26:	f89d 3018 	ldrb.w	r3, [sp, #24]
 8016b2a:	f045 0502 	orr.w	r5, r5, #2
 8016b2e:	f88d 3069 	strb.w	r3, [sp, #105]	; 0x69
 8016b32:	2302      	movs	r3, #2
 8016b34:	e2a4      	b.n	8017080 <_svfprintf_r+0x76c>
 8016b36:	2a00      	cmp	r2, #0
 8016b38:	d1bf      	bne.n	8016aba <_svfprintf_r+0x1a6>
 8016b3a:	2301      	movs	r3, #1
 8016b3c:	2220      	movs	r2, #32
 8016b3e:	e7bc      	b.n	8016aba <_svfprintf_r+0x1a6>
 8016b40:	f045 0501 	orr.w	r5, r5, #1
 8016b44:	e7b9      	b.n	8016aba <_svfprintf_r+0x1a6>
 8016b46:	683e      	ldr	r6, [r7, #0]
 8016b48:	1d39      	adds	r1, r7, #4
 8016b4a:	2e00      	cmp	r6, #0
 8016b4c:	960c      	str	r6, [sp, #48]	; 0x30
 8016b4e:	dab6      	bge.n	8016abe <_svfprintf_r+0x1aa>
 8016b50:	460f      	mov	r7, r1
 8016b52:	4276      	negs	r6, r6
 8016b54:	960c      	str	r6, [sp, #48]	; 0x30
 8016b56:	f045 0504 	orr.w	r5, r5, #4
 8016b5a:	e7ae      	b.n	8016aba <_svfprintf_r+0x1a6>
 8016b5c:	9909      	ldr	r1, [sp, #36]	; 0x24
 8016b5e:	1c4e      	adds	r6, r1, #1
 8016b60:	7809      	ldrb	r1, [r1, #0]
 8016b62:	292a      	cmp	r1, #42	; 0x2a
 8016b64:	9106      	str	r1, [sp, #24]
 8016b66:	d010      	beq.n	8016b8a <_svfprintf_r+0x276>
 8016b68:	f04f 0b00 	mov.w	fp, #0
 8016b6c:	9609      	str	r6, [sp, #36]	; 0x24
 8016b6e:	9906      	ldr	r1, [sp, #24]
 8016b70:	3930      	subs	r1, #48	; 0x30
 8016b72:	2909      	cmp	r1, #9
 8016b74:	f63f af33 	bhi.w	80169de <_svfprintf_r+0xca>
 8016b78:	fb00 1b0b 	mla	fp, r0, fp, r1
 8016b7c:	9909      	ldr	r1, [sp, #36]	; 0x24
 8016b7e:	460e      	mov	r6, r1
 8016b80:	f816 1b01 	ldrb.w	r1, [r6], #1
 8016b84:	9106      	str	r1, [sp, #24]
 8016b86:	9609      	str	r6, [sp, #36]	; 0x24
 8016b88:	e7f1      	b.n	8016b6e <_svfprintf_r+0x25a>
 8016b8a:	6839      	ldr	r1, [r7, #0]
 8016b8c:	9609      	str	r6, [sp, #36]	; 0x24
 8016b8e:	ea41 7be1 	orr.w	fp, r1, r1, asr #31
 8016b92:	3704      	adds	r7, #4
 8016b94:	e791      	b.n	8016aba <_svfprintf_r+0x1a6>
 8016b96:	f045 0580 	orr.w	r5, r5, #128	; 0x80
 8016b9a:	e78e      	b.n	8016aba <_svfprintf_r+0x1a6>
 8016b9c:	2100      	movs	r1, #0
 8016b9e:	910c      	str	r1, [sp, #48]	; 0x30
 8016ba0:	9906      	ldr	r1, [sp, #24]
 8016ba2:	9e0c      	ldr	r6, [sp, #48]	; 0x30
 8016ba4:	3930      	subs	r1, #48	; 0x30
 8016ba6:	fb00 1106 	mla	r1, r0, r6, r1
 8016baa:	910c      	str	r1, [sp, #48]	; 0x30
 8016bac:	9909      	ldr	r1, [sp, #36]	; 0x24
 8016bae:	460e      	mov	r6, r1
 8016bb0:	f816 1b01 	ldrb.w	r1, [r6], #1
 8016bb4:	9106      	str	r1, [sp, #24]
 8016bb6:	9906      	ldr	r1, [sp, #24]
 8016bb8:	9609      	str	r6, [sp, #36]	; 0x24
 8016bba:	3930      	subs	r1, #48	; 0x30
 8016bbc:	2909      	cmp	r1, #9
 8016bbe:	d9ef      	bls.n	8016ba0 <_svfprintf_r+0x28c>
 8016bc0:	e70d      	b.n	80169de <_svfprintf_r+0xca>
 8016bc2:	f045 0508 	orr.w	r5, r5, #8
 8016bc6:	e778      	b.n	8016aba <_svfprintf_r+0x1a6>
 8016bc8:	f045 0540 	orr.w	r5, r5, #64	; 0x40
 8016bcc:	e775      	b.n	8016aba <_svfprintf_r+0x1a6>
 8016bce:	9909      	ldr	r1, [sp, #36]	; 0x24
 8016bd0:	7809      	ldrb	r1, [r1, #0]
 8016bd2:	296c      	cmp	r1, #108	; 0x6c
 8016bd4:	d105      	bne.n	8016be2 <_svfprintf_r+0x2ce>
 8016bd6:	9909      	ldr	r1, [sp, #36]	; 0x24
 8016bd8:	3101      	adds	r1, #1
 8016bda:	9109      	str	r1, [sp, #36]	; 0x24
 8016bdc:	f045 0520 	orr.w	r5, r5, #32
 8016be0:	e76b      	b.n	8016aba <_svfprintf_r+0x1a6>
 8016be2:	f045 0510 	orr.w	r5, r5, #16
 8016be6:	e768      	b.n	8016aba <_svfprintf_r+0x1a6>
 8016be8:	2600      	movs	r6, #0
 8016bea:	1d3b      	adds	r3, r7, #4
 8016bec:	9308      	str	r3, [sp, #32]
 8016bee:	683b      	ldr	r3, [r7, #0]
 8016bf0:	f88d 6067 	strb.w	r6, [sp, #103]	; 0x67
 8016bf4:	f88d 3090 	strb.w	r3, [sp, #144]	; 0x90
 8016bf8:	f04f 0b01 	mov.w	fp, #1
 8016bfc:	4637      	mov	r7, r6
 8016bfe:	f10d 0890 	add.w	r8, sp, #144	; 0x90
 8016c02:	e11c      	b.n	8016e3e <_svfprintf_r+0x52a>
 8016c04:	b10b      	cbz	r3, 8016c0a <_svfprintf_r+0x2f6>
 8016c06:	f88d 2067 	strb.w	r2, [sp, #103]	; 0x67
 8016c0a:	f045 0510 	orr.w	r5, r5, #16
 8016c0e:	e75b      	b.n	8016ac8 <_svfprintf_r+0x1b4>
 8016c10:	f015 0f10 	tst.w	r5, #16
 8016c14:	f107 0304 	add.w	r3, r7, #4
 8016c18:	d003      	beq.n	8016c22 <_svfprintf_r+0x30e>
 8016c1a:	683e      	ldr	r6, [r7, #0]
 8016c1c:	9308      	str	r3, [sp, #32]
 8016c1e:	17f7      	asrs	r7, r6, #31
 8016c20:	e75d      	b.n	8016ade <_svfprintf_r+0x1ca>
 8016c22:	683e      	ldr	r6, [r7, #0]
 8016c24:	f015 0f40 	tst.w	r5, #64	; 0x40
 8016c28:	9308      	str	r3, [sp, #32]
 8016c2a:	bf18      	it	ne
 8016c2c:	b236      	sxthne	r6, r6
 8016c2e:	e7f6      	b.n	8016c1e <_svfprintf_r+0x30a>
 8016c30:	b10b      	cbz	r3, 8016c36 <_svfprintf_r+0x322>
 8016c32:	f88d 2067 	strb.w	r2, [sp, #103]	; 0x67
 8016c36:	3707      	adds	r7, #7
 8016c38:	f027 0707 	bic.w	r7, r7, #7
 8016c3c:	f107 0308 	add.w	r3, r7, #8
 8016c40:	9308      	str	r3, [sp, #32]
 8016c42:	683b      	ldr	r3, [r7, #0]
 8016c44:	f04f 32ff 	mov.w	r2, #4294967295
 8016c48:	930d      	str	r3, [sp, #52]	; 0x34
 8016c4a:	687b      	ldr	r3, [r7, #4]
 8016c4c:	9f0d      	ldr	r7, [sp, #52]	; 0x34
 8016c4e:	930e      	str	r3, [sp, #56]	; 0x38
 8016c50:	9b0e      	ldr	r3, [sp, #56]	; 0x38
 8016c52:	4638      	mov	r0, r7
 8016c54:	f023 4600 	bic.w	r6, r3, #2147483648	; 0x80000000
 8016c58:	4631      	mov	r1, r6
 8016c5a:	4b4a      	ldr	r3, [pc, #296]	; (8016d84 <_svfprintf_r+0x470>)
 8016c5c:	f7f9 ff48 	bl	8010af0 <__aeabi_dcmpun>
 8016c60:	2800      	cmp	r0, #0
 8016c62:	f040 85dc 	bne.w	801781e <_svfprintf_r+0xf0a>
 8016c66:	f04f 32ff 	mov.w	r2, #4294967295
 8016c6a:	4b46      	ldr	r3, [pc, #280]	; (8016d84 <_svfprintf_r+0x470>)
 8016c6c:	4638      	mov	r0, r7
 8016c6e:	4631      	mov	r1, r6
 8016c70:	f7f9 ff20 	bl	8010ab4 <__aeabi_dcmple>
 8016c74:	2800      	cmp	r0, #0
 8016c76:	f040 85d2 	bne.w	801781e <_svfprintf_r+0xf0a>
 8016c7a:	9a12      	ldr	r2, [sp, #72]	; 0x48
 8016c7c:	9b13      	ldr	r3, [sp, #76]	; 0x4c
 8016c7e:	980d      	ldr	r0, [sp, #52]	; 0x34
 8016c80:	990e      	ldr	r1, [sp, #56]	; 0x38
 8016c82:	f7f9 ff0d 	bl	8010aa0 <__aeabi_dcmplt>
 8016c86:	b110      	cbz	r0, 8016c8e <_svfprintf_r+0x37a>
 8016c88:	232d      	movs	r3, #45	; 0x2d
 8016c8a:	f88d 3067 	strb.w	r3, [sp, #103]	; 0x67
 8016c8e:	4b3e      	ldr	r3, [pc, #248]	; (8016d88 <_svfprintf_r+0x474>)
 8016c90:	4a3e      	ldr	r2, [pc, #248]	; (8016d8c <_svfprintf_r+0x478>)
 8016c92:	9906      	ldr	r1, [sp, #24]
 8016c94:	f04f 0b03 	mov.w	fp, #3
 8016c98:	2947      	cmp	r1, #71	; 0x47
 8016c9a:	bfcc      	ite	gt
 8016c9c:	4690      	movgt	r8, r2
 8016c9e:	4698      	movle	r8, r3
 8016ca0:	2600      	movs	r6, #0
 8016ca2:	f025 0580 	bic.w	r5, r5, #128	; 0x80
 8016ca6:	4637      	mov	r7, r6
 8016ca8:	e0c9      	b.n	8016e3e <_svfprintf_r+0x52a>
 8016caa:	f1bb 3fff 	cmp.w	fp, #4294967295
 8016cae:	d026      	beq.n	8016cfe <_svfprintf_r+0x3ea>
 8016cb0:	9b06      	ldr	r3, [sp, #24]
 8016cb2:	f023 0320 	bic.w	r3, r3, #32
 8016cb6:	2b47      	cmp	r3, #71	; 0x47
 8016cb8:	d104      	bne.n	8016cc4 <_svfprintf_r+0x3b0>
 8016cba:	f1bb 0f00 	cmp.w	fp, #0
 8016cbe:	bf08      	it	eq
 8016cc0:	f04f 0b01 	moveq.w	fp, #1
 8016cc4:	f445 7380 	orr.w	r3, r5, #256	; 0x100
 8016cc8:	9317      	str	r3, [sp, #92]	; 0x5c
 8016cca:	9b0e      	ldr	r3, [sp, #56]	; 0x38
 8016ccc:	1e1f      	subs	r7, r3, #0
 8016cce:	9b0d      	ldr	r3, [sp, #52]	; 0x34
 8016cd0:	bfa8      	it	ge
 8016cd2:	9710      	strge	r7, [sp, #64]	; 0x40
 8016cd4:	930f      	str	r3, [sp, #60]	; 0x3c
 8016cd6:	bfbd      	ittte	lt
 8016cd8:	463b      	movlt	r3, r7
 8016cda:	f103 4300 	addlt.w	r3, r3, #2147483648	; 0x80000000
 8016cde:	9310      	strlt	r3, [sp, #64]	; 0x40
 8016ce0:	2300      	movge	r3, #0
 8016ce2:	bfb8      	it	lt
 8016ce4:	232d      	movlt	r3, #45	; 0x2d
 8016ce6:	9316      	str	r3, [sp, #88]	; 0x58
 8016ce8:	9b06      	ldr	r3, [sp, #24]
 8016cea:	f023 0720 	bic.w	r7, r3, #32
 8016cee:	2f46      	cmp	r7, #70	; 0x46
 8016cf0:	d008      	beq.n	8016d04 <_svfprintf_r+0x3f0>
 8016cf2:	2f45      	cmp	r7, #69	; 0x45
 8016cf4:	d142      	bne.n	8016d7c <_svfprintf_r+0x468>
 8016cf6:	f10b 0601 	add.w	r6, fp, #1
 8016cfa:	2302      	movs	r3, #2
 8016cfc:	e004      	b.n	8016d08 <_svfprintf_r+0x3f4>
 8016cfe:	f04f 0b06 	mov.w	fp, #6
 8016d02:	e7df      	b.n	8016cc4 <_svfprintf_r+0x3b0>
 8016d04:	465e      	mov	r6, fp
 8016d06:	2303      	movs	r3, #3
 8016d08:	aa1f      	add	r2, sp, #124	; 0x7c
 8016d0a:	9204      	str	r2, [sp, #16]
 8016d0c:	aa1c      	add	r2, sp, #112	; 0x70
 8016d0e:	9203      	str	r2, [sp, #12]
 8016d10:	aa1b      	add	r2, sp, #108	; 0x6c
 8016d12:	9202      	str	r2, [sp, #8]
 8016d14:	e88d 0048 	stmia.w	sp, {r3, r6}
 8016d18:	9a0f      	ldr	r2, [sp, #60]	; 0x3c
 8016d1a:	9b10      	ldr	r3, [sp, #64]	; 0x40
 8016d1c:	4650      	mov	r0, sl
 8016d1e:	f001 ff7b 	bl	8018c18 <_dtoa_r>
 8016d22:	2f47      	cmp	r7, #71	; 0x47
 8016d24:	4680      	mov	r8, r0
 8016d26:	d102      	bne.n	8016d2e <_svfprintf_r+0x41a>
 8016d28:	07e8      	lsls	r0, r5, #31
 8016d2a:	f140 8585 	bpl.w	8017838 <_svfprintf_r+0xf24>
 8016d2e:	eb08 0306 	add.w	r3, r8, r6
 8016d32:	2f46      	cmp	r7, #70	; 0x46
 8016d34:	9307      	str	r3, [sp, #28]
 8016d36:	d111      	bne.n	8016d5c <_svfprintf_r+0x448>
 8016d38:	f898 3000 	ldrb.w	r3, [r8]
 8016d3c:	2b30      	cmp	r3, #48	; 0x30
 8016d3e:	d109      	bne.n	8016d54 <_svfprintf_r+0x440>
 8016d40:	9a12      	ldr	r2, [sp, #72]	; 0x48
 8016d42:	9b13      	ldr	r3, [sp, #76]	; 0x4c
 8016d44:	980f      	ldr	r0, [sp, #60]	; 0x3c
 8016d46:	9910      	ldr	r1, [sp, #64]	; 0x40
 8016d48:	f7f9 fea0 	bl	8010a8c <__aeabi_dcmpeq>
 8016d4c:	b910      	cbnz	r0, 8016d54 <_svfprintf_r+0x440>
 8016d4e:	f1c6 0601 	rsb	r6, r6, #1
 8016d52:	961b      	str	r6, [sp, #108]	; 0x6c
 8016d54:	9a07      	ldr	r2, [sp, #28]
 8016d56:	9b1b      	ldr	r3, [sp, #108]	; 0x6c
 8016d58:	441a      	add	r2, r3
 8016d5a:	9207      	str	r2, [sp, #28]
 8016d5c:	9a12      	ldr	r2, [sp, #72]	; 0x48
 8016d5e:	9b13      	ldr	r3, [sp, #76]	; 0x4c
 8016d60:	980f      	ldr	r0, [sp, #60]	; 0x3c
 8016d62:	9910      	ldr	r1, [sp, #64]	; 0x40
 8016d64:	f7f9 fe92 	bl	8010a8c <__aeabi_dcmpeq>
 8016d68:	b990      	cbnz	r0, 8016d90 <_svfprintf_r+0x47c>
 8016d6a:	2230      	movs	r2, #48	; 0x30
 8016d6c:	9b1f      	ldr	r3, [sp, #124]	; 0x7c
 8016d6e:	9907      	ldr	r1, [sp, #28]
 8016d70:	4299      	cmp	r1, r3
 8016d72:	d90f      	bls.n	8016d94 <_svfprintf_r+0x480>
 8016d74:	1c59      	adds	r1, r3, #1
 8016d76:	911f      	str	r1, [sp, #124]	; 0x7c
 8016d78:	701a      	strb	r2, [r3, #0]
 8016d7a:	e7f7      	b.n	8016d6c <_svfprintf_r+0x458>
 8016d7c:	465e      	mov	r6, fp
 8016d7e:	e7bc      	b.n	8016cfa <_svfprintf_r+0x3e6>
 8016d80:	0801bb1a 	.word	0x0801bb1a
 8016d84:	7fefffff 	.word	0x7fefffff
 8016d88:	0801bb0a 	.word	0x0801bb0a
 8016d8c:	0801bb0e 	.word	0x0801bb0e
 8016d90:	9b07      	ldr	r3, [sp, #28]
 8016d92:	931f      	str	r3, [sp, #124]	; 0x7c
 8016d94:	9b1f      	ldr	r3, [sp, #124]	; 0x7c
 8016d96:	2f47      	cmp	r7, #71	; 0x47
 8016d98:	eba3 0308 	sub.w	r3, r3, r8
 8016d9c:	9307      	str	r3, [sp, #28]
 8016d9e:	f040 8100 	bne.w	8016fa2 <_svfprintf_r+0x68e>
 8016da2:	9b1b      	ldr	r3, [sp, #108]	; 0x6c
 8016da4:	1cd9      	adds	r1, r3, #3
 8016da6:	db02      	blt.n	8016dae <_svfprintf_r+0x49a>
 8016da8:	459b      	cmp	fp, r3
 8016daa:	f280 8126 	bge.w	8016ffa <_svfprintf_r+0x6e6>
 8016dae:	9b06      	ldr	r3, [sp, #24]
 8016db0:	3b02      	subs	r3, #2
 8016db2:	9306      	str	r3, [sp, #24]
 8016db4:	9a1b      	ldr	r2, [sp, #108]	; 0x6c
 8016db6:	f89d 1018 	ldrb.w	r1, [sp, #24]
 8016dba:	1e53      	subs	r3, r2, #1
 8016dbc:	2b00      	cmp	r3, #0
 8016dbe:	bfa8      	it	ge
 8016dc0:	222b      	movge	r2, #43	; 0x2b
 8016dc2:	931b      	str	r3, [sp, #108]	; 0x6c
 8016dc4:	bfbc      	itt	lt
 8016dc6:	f1c2 0301 	rsblt	r3, r2, #1
 8016dca:	222d      	movlt	r2, #45	; 0x2d
 8016dcc:	2b09      	cmp	r3, #9
 8016dce:	f88d 1074 	strb.w	r1, [sp, #116]	; 0x74
 8016dd2:	f88d 2075 	strb.w	r2, [sp, #117]	; 0x75
 8016dd6:	f340 8100 	ble.w	8016fda <_svfprintf_r+0x6c6>
 8016dda:	260a      	movs	r6, #10
 8016ddc:	f10d 0283 	add.w	r2, sp, #131	; 0x83
 8016de0:	fb93 f0f6 	sdiv	r0, r3, r6
 8016de4:	fb06 3310 	mls	r3, r6, r0, r3
 8016de8:	2809      	cmp	r0, #9
 8016dea:	f103 0330 	add.w	r3, r3, #48	; 0x30
 8016dee:	f802 3c01 	strb.w	r3, [r2, #-1]
 8016df2:	f102 31ff 	add.w	r1, r2, #4294967295
 8016df6:	4603      	mov	r3, r0
 8016df8:	f300 80e8 	bgt.w	8016fcc <_svfprintf_r+0x6b8>
 8016dfc:	3330      	adds	r3, #48	; 0x30
 8016dfe:	f801 3c01 	strb.w	r3, [r1, #-1]
 8016e02:	3a02      	subs	r2, #2
 8016e04:	f10d 0376 	add.w	r3, sp, #118	; 0x76
 8016e08:	f10d 0083 	add.w	r0, sp, #131	; 0x83
 8016e0c:	4282      	cmp	r2, r0
 8016e0e:	4619      	mov	r1, r3
 8016e10:	f0c0 80de 	bcc.w	8016fd0 <_svfprintf_r+0x6bc>
 8016e14:	9a07      	ldr	r2, [sp, #28]
 8016e16:	ab1d      	add	r3, sp, #116	; 0x74
 8016e18:	1acb      	subs	r3, r1, r3
 8016e1a:	2a01      	cmp	r2, #1
 8016e1c:	9314      	str	r3, [sp, #80]	; 0x50
 8016e1e:	eb03 0b02 	add.w	fp, r3, r2
 8016e22:	dc02      	bgt.n	8016e2a <_svfprintf_r+0x516>
 8016e24:	f015 0701 	ands.w	r7, r5, #1
 8016e28:	d002      	beq.n	8016e30 <_svfprintf_r+0x51c>
 8016e2a:	2700      	movs	r7, #0
 8016e2c:	9b0a      	ldr	r3, [sp, #40]	; 0x28
 8016e2e:	449b      	add	fp, r3
 8016e30:	9b16      	ldr	r3, [sp, #88]	; 0x58
 8016e32:	b113      	cbz	r3, 8016e3a <_svfprintf_r+0x526>
 8016e34:	232d      	movs	r3, #45	; 0x2d
 8016e36:	f88d 3067 	strb.w	r3, [sp, #103]	; 0x67
 8016e3a:	2600      	movs	r6, #0
 8016e3c:	9d17      	ldr	r5, [sp, #92]	; 0x5c
 8016e3e:	455e      	cmp	r6, fp
 8016e40:	4633      	mov	r3, r6
 8016e42:	bfb8      	it	lt
 8016e44:	465b      	movlt	r3, fp
 8016e46:	930f      	str	r3, [sp, #60]	; 0x3c
 8016e48:	f89d 3067 	ldrb.w	r3, [sp, #103]	; 0x67
 8016e4c:	b113      	cbz	r3, 8016e54 <_svfprintf_r+0x540>
 8016e4e:	9b0f      	ldr	r3, [sp, #60]	; 0x3c
 8016e50:	3301      	adds	r3, #1
 8016e52:	930f      	str	r3, [sp, #60]	; 0x3c
 8016e54:	f015 0302 	ands.w	r3, r5, #2
 8016e58:	9316      	str	r3, [sp, #88]	; 0x58
 8016e5a:	bf1e      	ittt	ne
 8016e5c:	9b0f      	ldrne	r3, [sp, #60]	; 0x3c
 8016e5e:	3302      	addne	r3, #2
 8016e60:	930f      	strne	r3, [sp, #60]	; 0x3c
 8016e62:	f015 0384 	ands.w	r3, r5, #132	; 0x84
 8016e66:	9317      	str	r3, [sp, #92]	; 0x5c
 8016e68:	d118      	bne.n	8016e9c <_svfprintf_r+0x588>
 8016e6a:	9b0c      	ldr	r3, [sp, #48]	; 0x30
 8016e6c:	9a0f      	ldr	r2, [sp, #60]	; 0x3c
 8016e6e:	1a9b      	subs	r3, r3, r2
 8016e70:	2b00      	cmp	r3, #0
 8016e72:	9310      	str	r3, [sp, #64]	; 0x40
 8016e74:	dd12      	ble.n	8016e9c <_svfprintf_r+0x588>
 8016e76:	9b10      	ldr	r3, [sp, #64]	; 0x40
 8016e78:	2b10      	cmp	r3, #16
 8016e7a:	4bab      	ldr	r3, [pc, #684]	; (8017128 <_svfprintf_r+0x814>)
 8016e7c:	6023      	str	r3, [r4, #0]
 8016e7e:	f300 81d9 	bgt.w	8017234 <_svfprintf_r+0x920>
 8016e82:	9b10      	ldr	r3, [sp, #64]	; 0x40
 8016e84:	9a10      	ldr	r2, [sp, #64]	; 0x40
 8016e86:	6063      	str	r3, [r4, #4]
 8016e88:	9b23      	ldr	r3, [sp, #140]	; 0x8c
 8016e8a:	4413      	add	r3, r2
 8016e8c:	9323      	str	r3, [sp, #140]	; 0x8c
 8016e8e:	9b22      	ldr	r3, [sp, #136]	; 0x88
 8016e90:	3301      	adds	r3, #1
 8016e92:	2b07      	cmp	r3, #7
 8016e94:	9322      	str	r3, [sp, #136]	; 0x88
 8016e96:	f300 81e6 	bgt.w	8017266 <_svfprintf_r+0x952>
 8016e9a:	3408      	adds	r4, #8
 8016e9c:	f89d 3067 	ldrb.w	r3, [sp, #103]	; 0x67
 8016ea0:	b173      	cbz	r3, 8016ec0 <_svfprintf_r+0x5ac>
 8016ea2:	f10d 0367 	add.w	r3, sp, #103	; 0x67
 8016ea6:	6023      	str	r3, [r4, #0]
 8016ea8:	2301      	movs	r3, #1
 8016eaa:	6063      	str	r3, [r4, #4]
 8016eac:	9b23      	ldr	r3, [sp, #140]	; 0x8c
 8016eae:	3301      	adds	r3, #1
 8016eb0:	9323      	str	r3, [sp, #140]	; 0x8c
 8016eb2:	9b22      	ldr	r3, [sp, #136]	; 0x88
 8016eb4:	3301      	adds	r3, #1
 8016eb6:	2b07      	cmp	r3, #7
 8016eb8:	9322      	str	r3, [sp, #136]	; 0x88
 8016eba:	f300 81de 	bgt.w	801727a <_svfprintf_r+0x966>
 8016ebe:	3408      	adds	r4, #8
 8016ec0:	9b16      	ldr	r3, [sp, #88]	; 0x58
 8016ec2:	b16b      	cbz	r3, 8016ee0 <_svfprintf_r+0x5cc>
 8016ec4:	ab1a      	add	r3, sp, #104	; 0x68
 8016ec6:	6023      	str	r3, [r4, #0]
 8016ec8:	2302      	movs	r3, #2
 8016eca:	6063      	str	r3, [r4, #4]
 8016ecc:	9b23      	ldr	r3, [sp, #140]	; 0x8c
 8016ece:	3302      	adds	r3, #2
 8016ed0:	9323      	str	r3, [sp, #140]	; 0x8c
 8016ed2:	9b22      	ldr	r3, [sp, #136]	; 0x88
 8016ed4:	3301      	adds	r3, #1
 8016ed6:	2b07      	cmp	r3, #7
 8016ed8:	9322      	str	r3, [sp, #136]	; 0x88
 8016eda:	f300 81d8 	bgt.w	801728e <_svfprintf_r+0x97a>
 8016ede:	3408      	adds	r4, #8
 8016ee0:	9b17      	ldr	r3, [sp, #92]	; 0x5c
 8016ee2:	2b80      	cmp	r3, #128	; 0x80
 8016ee4:	d118      	bne.n	8016f18 <_svfprintf_r+0x604>
 8016ee6:	9b0c      	ldr	r3, [sp, #48]	; 0x30
 8016ee8:	9a0f      	ldr	r2, [sp, #60]	; 0x3c
 8016eea:	1a9b      	subs	r3, r3, r2
 8016eec:	2b00      	cmp	r3, #0
 8016eee:	9310      	str	r3, [sp, #64]	; 0x40
 8016ef0:	dd12      	ble.n	8016f18 <_svfprintf_r+0x604>
 8016ef2:	9b10      	ldr	r3, [sp, #64]	; 0x40
 8016ef4:	2b10      	cmp	r3, #16
 8016ef6:	4b8d      	ldr	r3, [pc, #564]	; (801712c <_svfprintf_r+0x818>)
 8016ef8:	6023      	str	r3, [r4, #0]
 8016efa:	f300 81d2 	bgt.w	80172a2 <_svfprintf_r+0x98e>
 8016efe:	9b10      	ldr	r3, [sp, #64]	; 0x40
 8016f00:	9a10      	ldr	r2, [sp, #64]	; 0x40
 8016f02:	6063      	str	r3, [r4, #4]
 8016f04:	9b23      	ldr	r3, [sp, #140]	; 0x8c
 8016f06:	4413      	add	r3, r2
 8016f08:	9323      	str	r3, [sp, #140]	; 0x8c
 8016f0a:	9b22      	ldr	r3, [sp, #136]	; 0x88
 8016f0c:	3301      	adds	r3, #1
 8016f0e:	2b07      	cmp	r3, #7
 8016f10:	9322      	str	r3, [sp, #136]	; 0x88
 8016f12:	f300 81df 	bgt.w	80172d4 <_svfprintf_r+0x9c0>
 8016f16:	3408      	adds	r4, #8
 8016f18:	eba6 060b 	sub.w	r6, r6, fp
 8016f1c:	2e00      	cmp	r6, #0
 8016f1e:	dd0f      	ble.n	8016f40 <_svfprintf_r+0x62c>
 8016f20:	4b82      	ldr	r3, [pc, #520]	; (801712c <_svfprintf_r+0x818>)
 8016f22:	2e10      	cmp	r6, #16
 8016f24:	6023      	str	r3, [r4, #0]
 8016f26:	f300 81df 	bgt.w	80172e8 <_svfprintf_r+0x9d4>
 8016f2a:	9b22      	ldr	r3, [sp, #136]	; 0x88
 8016f2c:	9823      	ldr	r0, [sp, #140]	; 0x8c
 8016f2e:	3301      	adds	r3, #1
 8016f30:	6066      	str	r6, [r4, #4]
 8016f32:	2b07      	cmp	r3, #7
 8016f34:	4406      	add	r6, r0
 8016f36:	9623      	str	r6, [sp, #140]	; 0x8c
 8016f38:	9322      	str	r3, [sp, #136]	; 0x88
 8016f3a:	f300 81ec 	bgt.w	8017316 <_svfprintf_r+0xa02>
 8016f3e:	3408      	adds	r4, #8
 8016f40:	05eb      	lsls	r3, r5, #23
 8016f42:	f100 81f2 	bmi.w	801732a <_svfprintf_r+0xa16>
 8016f46:	9b23      	ldr	r3, [sp, #140]	; 0x8c
 8016f48:	e884 0900 	stmia.w	r4, {r8, fp}
 8016f4c:	445b      	add	r3, fp
 8016f4e:	9323      	str	r3, [sp, #140]	; 0x8c
 8016f50:	9b22      	ldr	r3, [sp, #136]	; 0x88
 8016f52:	3301      	adds	r3, #1
 8016f54:	2b07      	cmp	r3, #7
 8016f56:	9322      	str	r3, [sp, #136]	; 0x88
 8016f58:	f340 8419 	ble.w	801778e <_svfprintf_r+0xe7a>
 8016f5c:	aa21      	add	r2, sp, #132	; 0x84
 8016f5e:	4649      	mov	r1, r9
 8016f60:	4650      	mov	r0, sl
 8016f62:	f003 ffe4 	bl	801af2e <__ssprint_r>
 8016f66:	2800      	cmp	r0, #0
 8016f68:	f040 8431 	bne.w	80177ce <_svfprintf_r+0xeba>
 8016f6c:	ac2e      	add	r4, sp, #184	; 0xb8
 8016f6e:	076b      	lsls	r3, r5, #29
 8016f70:	f100 8410 	bmi.w	8017794 <_svfprintf_r+0xe80>
 8016f74:	9b0b      	ldr	r3, [sp, #44]	; 0x2c
 8016f76:	9a0c      	ldr	r2, [sp, #48]	; 0x30
 8016f78:	990f      	ldr	r1, [sp, #60]	; 0x3c
 8016f7a:	428a      	cmp	r2, r1
 8016f7c:	bfac      	ite	ge
 8016f7e:	189b      	addge	r3, r3, r2
 8016f80:	185b      	addlt	r3, r3, r1
 8016f82:	930b      	str	r3, [sp, #44]	; 0x2c
 8016f84:	9b23      	ldr	r3, [sp, #140]	; 0x8c
 8016f86:	b13b      	cbz	r3, 8016f98 <_svfprintf_r+0x684>
 8016f88:	aa21      	add	r2, sp, #132	; 0x84
 8016f8a:	4649      	mov	r1, r9
 8016f8c:	4650      	mov	r0, sl
 8016f8e:	f003 ffce 	bl	801af2e <__ssprint_r>
 8016f92:	2800      	cmp	r0, #0
 8016f94:	f040 841b 	bne.w	80177ce <_svfprintf_r+0xeba>
 8016f98:	2300      	movs	r3, #0
 8016f9a:	9f08      	ldr	r7, [sp, #32]
 8016f9c:	9322      	str	r3, [sp, #136]	; 0x88
 8016f9e:	ac2e      	add	r4, sp, #184	; 0xb8
 8016fa0:	e4f2      	b.n	8016988 <_svfprintf_r+0x74>
 8016fa2:	9b06      	ldr	r3, [sp, #24]
 8016fa4:	2b65      	cmp	r3, #101	; 0x65
 8016fa6:	f77f af05 	ble.w	8016db4 <_svfprintf_r+0x4a0>
 8016faa:	9b06      	ldr	r3, [sp, #24]
 8016fac:	2b66      	cmp	r3, #102	; 0x66
 8016fae:	d124      	bne.n	8016ffa <_svfprintf_r+0x6e6>
 8016fb0:	9b1b      	ldr	r3, [sp, #108]	; 0x6c
 8016fb2:	2b00      	cmp	r3, #0
 8016fb4:	dd19      	ble.n	8016fea <_svfprintf_r+0x6d6>
 8016fb6:	f1bb 0f00 	cmp.w	fp, #0
 8016fba:	d101      	bne.n	8016fc0 <_svfprintf_r+0x6ac>
 8016fbc:	07ea      	lsls	r2, r5, #31
 8016fbe:	d502      	bpl.n	8016fc6 <_svfprintf_r+0x6b2>
 8016fc0:	9a0a      	ldr	r2, [sp, #40]	; 0x28
 8016fc2:	4413      	add	r3, r2
 8016fc4:	445b      	add	r3, fp
 8016fc6:	9f1b      	ldr	r7, [sp, #108]	; 0x6c
 8016fc8:	469b      	mov	fp, r3
 8016fca:	e731      	b.n	8016e30 <_svfprintf_r+0x51c>
 8016fcc:	460a      	mov	r2, r1
 8016fce:	e707      	b.n	8016de0 <_svfprintf_r+0x4cc>
 8016fd0:	f812 1b01 	ldrb.w	r1, [r2], #1
 8016fd4:	f803 1b01 	strb.w	r1, [r3], #1
 8016fd8:	e718      	b.n	8016e0c <_svfprintf_r+0x4f8>
 8016fda:	2230      	movs	r2, #48	; 0x30
 8016fdc:	4413      	add	r3, r2
 8016fde:	f88d 2076 	strb.w	r2, [sp, #118]	; 0x76
 8016fe2:	f88d 3077 	strb.w	r3, [sp, #119]	; 0x77
 8016fe6:	a91e      	add	r1, sp, #120	; 0x78
 8016fe8:	e714      	b.n	8016e14 <_svfprintf_r+0x500>
 8016fea:	f1bb 0f00 	cmp.w	fp, #0
 8016fee:	d101      	bne.n	8016ff4 <_svfprintf_r+0x6e0>
 8016ff0:	07eb      	lsls	r3, r5, #31
 8016ff2:	d515      	bpl.n	8017020 <_svfprintf_r+0x70c>
 8016ff4:	9b0a      	ldr	r3, [sp, #40]	; 0x28
 8016ff6:	3301      	adds	r3, #1
 8016ff8:	e7e4      	b.n	8016fc4 <_svfprintf_r+0x6b0>
 8016ffa:	9a1b      	ldr	r2, [sp, #108]	; 0x6c
 8016ffc:	9b07      	ldr	r3, [sp, #28]
 8016ffe:	429a      	cmp	r2, r3
 8017000:	db06      	blt.n	8017010 <_svfprintf_r+0x6fc>
 8017002:	07ef      	lsls	r7, r5, #31
 8017004:	d50e      	bpl.n	8017024 <_svfprintf_r+0x710>
 8017006:	9b0a      	ldr	r3, [sp, #40]	; 0x28
 8017008:	4413      	add	r3, r2
 801700a:	2267      	movs	r2, #103	; 0x67
 801700c:	9206      	str	r2, [sp, #24]
 801700e:	e7da      	b.n	8016fc6 <_svfprintf_r+0x6b2>
 8017010:	9b07      	ldr	r3, [sp, #28]
 8017012:	990a      	ldr	r1, [sp, #40]	; 0x28
 8017014:	2a00      	cmp	r2, #0
 8017016:	440b      	add	r3, r1
 8017018:	dcf7      	bgt.n	801700a <_svfprintf_r+0x6f6>
 801701a:	f1c2 0201 	rsb	r2, r2, #1
 801701e:	e7f3      	b.n	8017008 <_svfprintf_r+0x6f4>
 8017020:	2301      	movs	r3, #1
 8017022:	e7d0      	b.n	8016fc6 <_svfprintf_r+0x6b2>
 8017024:	4613      	mov	r3, r2
 8017026:	e7f0      	b.n	801700a <_svfprintf_r+0x6f6>
 8017028:	b10b      	cbz	r3, 801702e <_svfprintf_r+0x71a>
 801702a:	f88d 2067 	strb.w	r2, [sp, #103]	; 0x67
 801702e:	f015 0f20 	tst.w	r5, #32
 8017032:	f107 0304 	add.w	r3, r7, #4
 8017036:	d008      	beq.n	801704a <_svfprintf_r+0x736>
 8017038:	990b      	ldr	r1, [sp, #44]	; 0x2c
 801703a:	683a      	ldr	r2, [r7, #0]
 801703c:	17ce      	asrs	r6, r1, #31
 801703e:	4608      	mov	r0, r1
 8017040:	4631      	mov	r1, r6
 8017042:	e9c2 0100 	strd	r0, r1, [r2]
 8017046:	461f      	mov	r7, r3
 8017048:	e49e      	b.n	8016988 <_svfprintf_r+0x74>
 801704a:	06ee      	lsls	r6, r5, #27
 801704c:	d503      	bpl.n	8017056 <_svfprintf_r+0x742>
 801704e:	683a      	ldr	r2, [r7, #0]
 8017050:	990b      	ldr	r1, [sp, #44]	; 0x2c
 8017052:	6011      	str	r1, [r2, #0]
 8017054:	e7f7      	b.n	8017046 <_svfprintf_r+0x732>
 8017056:	0668      	lsls	r0, r5, #25
 8017058:	d5f9      	bpl.n	801704e <_svfprintf_r+0x73a>
 801705a:	683a      	ldr	r2, [r7, #0]
 801705c:	f8bd 102c 	ldrh.w	r1, [sp, #44]	; 0x2c
 8017060:	8011      	strh	r1, [r2, #0]
 8017062:	e7f0      	b.n	8017046 <_svfprintf_r+0x732>
 8017064:	f045 0510 	orr.w	r5, r5, #16
 8017068:	f015 0320 	ands.w	r3, r5, #32
 801706c:	d022      	beq.n	80170b4 <_svfprintf_r+0x7a0>
 801706e:	3707      	adds	r7, #7
 8017070:	f027 0707 	bic.w	r7, r7, #7
 8017074:	f107 0308 	add.w	r3, r7, #8
 8017078:	9308      	str	r3, [sp, #32]
 801707a:	e9d7 6700 	ldrd	r6, r7, [r7]
 801707e:	2300      	movs	r3, #0
 8017080:	2200      	movs	r2, #0
 8017082:	f88d 2067 	strb.w	r2, [sp, #103]	; 0x67
 8017086:	f1bb 3fff 	cmp.w	fp, #4294967295
 801708a:	f000 83db 	beq.w	8017844 <_svfprintf_r+0xf30>
 801708e:	f025 0280 	bic.w	r2, r5, #128	; 0x80
 8017092:	920f      	str	r2, [sp, #60]	; 0x3c
 8017094:	ea56 0207 	orrs.w	r2, r6, r7
 8017098:	f040 83d9 	bne.w	801784e <_svfprintf_r+0xf3a>
 801709c:	f1bb 0f00 	cmp.w	fp, #0
 80170a0:	f000 80aa 	beq.w	80171f8 <_svfprintf_r+0x8e4>
 80170a4:	2b01      	cmp	r3, #1
 80170a6:	d076      	beq.n	8017196 <_svfprintf_r+0x882>
 80170a8:	2b02      	cmp	r3, #2
 80170aa:	f000 8091 	beq.w	80171d0 <_svfprintf_r+0x8bc>
 80170ae:	2600      	movs	r6, #0
 80170b0:	2700      	movs	r7, #0
 80170b2:	e3d2      	b.n	801785a <_svfprintf_r+0xf46>
 80170b4:	1d3a      	adds	r2, r7, #4
 80170b6:	f015 0110 	ands.w	r1, r5, #16
 80170ba:	9208      	str	r2, [sp, #32]
 80170bc:	d002      	beq.n	80170c4 <_svfprintf_r+0x7b0>
 80170be:	683e      	ldr	r6, [r7, #0]
 80170c0:	2700      	movs	r7, #0
 80170c2:	e7dd      	b.n	8017080 <_svfprintf_r+0x76c>
 80170c4:	f015 0340 	ands.w	r3, r5, #64	; 0x40
 80170c8:	d0f9      	beq.n	80170be <_svfprintf_r+0x7aa>
 80170ca:	883e      	ldrh	r6, [r7, #0]
 80170cc:	2700      	movs	r7, #0
 80170ce:	e7d6      	b.n	801707e <_svfprintf_r+0x76a>
 80170d0:	1d3b      	adds	r3, r7, #4
 80170d2:	9308      	str	r3, [sp, #32]
 80170d4:	2330      	movs	r3, #48	; 0x30
 80170d6:	2278      	movs	r2, #120	; 0x78
 80170d8:	f88d 3068 	strb.w	r3, [sp, #104]	; 0x68
 80170dc:	4b14      	ldr	r3, [pc, #80]	; (8017130 <_svfprintf_r+0x81c>)
 80170de:	683e      	ldr	r6, [r7, #0]
 80170e0:	9315      	str	r3, [sp, #84]	; 0x54
 80170e2:	2700      	movs	r7, #0
 80170e4:	f045 0502 	orr.w	r5, r5, #2
 80170e8:	f88d 2069 	strb.w	r2, [sp, #105]	; 0x69
 80170ec:	2302      	movs	r3, #2
 80170ee:	9206      	str	r2, [sp, #24]
 80170f0:	e7c6      	b.n	8017080 <_svfprintf_r+0x76c>
 80170f2:	2600      	movs	r6, #0
 80170f4:	1d3b      	adds	r3, r7, #4
 80170f6:	f1bb 3fff 	cmp.w	fp, #4294967295
 80170fa:	9308      	str	r3, [sp, #32]
 80170fc:	f8d7 8000 	ldr.w	r8, [r7]
 8017100:	f88d 6067 	strb.w	r6, [sp, #103]	; 0x67
 8017104:	d00a      	beq.n	801711c <_svfprintf_r+0x808>
 8017106:	465a      	mov	r2, fp
 8017108:	4631      	mov	r1, r6
 801710a:	4640      	mov	r0, r8
 801710c:	f003 fa34 	bl	801a578 <memchr>
 8017110:	2800      	cmp	r0, #0
 8017112:	f000 808d 	beq.w	8017230 <_svfprintf_r+0x91c>
 8017116:	eba0 0b08 	sub.w	fp, r0, r8
 801711a:	e5c4      	b.n	8016ca6 <_svfprintf_r+0x392>
 801711c:	4640      	mov	r0, r8
 801711e:	f7f9 f88d 	bl	801023c <strlen>
 8017122:	4683      	mov	fp, r0
 8017124:	e5bf      	b.n	8016ca6 <_svfprintf_r+0x392>
 8017126:	bf00      	nop
 8017128:	0801bb3e 	.word	0x0801bb3e
 801712c:	0801bb4e 	.word	0x0801bb4e
 8017130:	0801bb2b 	.word	0x0801bb2b
 8017134:	f045 0510 	orr.w	r5, r5, #16
 8017138:	06a9      	lsls	r1, r5, #26
 801713a:	d509      	bpl.n	8017150 <_svfprintf_r+0x83c>
 801713c:	3707      	adds	r7, #7
 801713e:	f027 0707 	bic.w	r7, r7, #7
 8017142:	f107 0308 	add.w	r3, r7, #8
 8017146:	9308      	str	r3, [sp, #32]
 8017148:	e9d7 6700 	ldrd	r6, r7, [r7]
 801714c:	2301      	movs	r3, #1
 801714e:	e797      	b.n	8017080 <_svfprintf_r+0x76c>
 8017150:	1d3b      	adds	r3, r7, #4
 8017152:	f015 0f10 	tst.w	r5, #16
 8017156:	9308      	str	r3, [sp, #32]
 8017158:	d001      	beq.n	801715e <_svfprintf_r+0x84a>
 801715a:	683e      	ldr	r6, [r7, #0]
 801715c:	e002      	b.n	8017164 <_svfprintf_r+0x850>
 801715e:	066a      	lsls	r2, r5, #25
 8017160:	d5fb      	bpl.n	801715a <_svfprintf_r+0x846>
 8017162:	883e      	ldrh	r6, [r7, #0]
 8017164:	2700      	movs	r7, #0
 8017166:	e7f1      	b.n	801714c <_svfprintf_r+0x838>
 8017168:	b10b      	cbz	r3, 801716e <_svfprintf_r+0x85a>
 801716a:	f88d 2067 	strb.w	r2, [sp, #103]	; 0x67
 801716e:	4ba3      	ldr	r3, [pc, #652]	; (80173fc <_svfprintf_r+0xae8>)
 8017170:	e4c5      	b.n	8016afe <_svfprintf_r+0x1ea>
 8017172:	1d3b      	adds	r3, r7, #4
 8017174:	f015 0f10 	tst.w	r5, #16
 8017178:	9308      	str	r3, [sp, #32]
 801717a:	d001      	beq.n	8017180 <_svfprintf_r+0x86c>
 801717c:	683e      	ldr	r6, [r7, #0]
 801717e:	e002      	b.n	8017186 <_svfprintf_r+0x872>
 8017180:	066e      	lsls	r6, r5, #25
 8017182:	d5fb      	bpl.n	801717c <_svfprintf_r+0x868>
 8017184:	883e      	ldrh	r6, [r7, #0]
 8017186:	2700      	movs	r7, #0
 8017188:	e4c5      	b.n	8016b16 <_svfprintf_r+0x202>
 801718a:	4643      	mov	r3, r8
 801718c:	e366      	b.n	801785c <_svfprintf_r+0xf48>
 801718e:	2f00      	cmp	r7, #0
 8017190:	bf08      	it	eq
 8017192:	2e0a      	cmpeq	r6, #10
 8017194:	d205      	bcs.n	80171a2 <_svfprintf_r+0x88e>
 8017196:	3630      	adds	r6, #48	; 0x30
 8017198:	f10d 08f8 	add.w	r8, sp, #248	; 0xf8
 801719c:	f808 6d41 	strb.w	r6, [r8, #-65]!
 80171a0:	e377      	b.n	8017892 <_svfprintf_r+0xf7e>
 80171a2:	f10d 08b8 	add.w	r8, sp, #184	; 0xb8
 80171a6:	4630      	mov	r0, r6
 80171a8:	4639      	mov	r1, r7
 80171aa:	220a      	movs	r2, #10
 80171ac:	2300      	movs	r3, #0
 80171ae:	f7f9 fcdd 	bl	8010b6c <__aeabi_uldivmod>
 80171b2:	3230      	adds	r2, #48	; 0x30
 80171b4:	f808 2d01 	strb.w	r2, [r8, #-1]!
 80171b8:	2300      	movs	r3, #0
 80171ba:	4630      	mov	r0, r6
 80171bc:	4639      	mov	r1, r7
 80171be:	220a      	movs	r2, #10
 80171c0:	f7f9 fcd4 	bl	8010b6c <__aeabi_uldivmod>
 80171c4:	4606      	mov	r6, r0
 80171c6:	460f      	mov	r7, r1
 80171c8:	ea56 0307 	orrs.w	r3, r6, r7
 80171cc:	d1eb      	bne.n	80171a6 <_svfprintf_r+0x892>
 80171ce:	e360      	b.n	8017892 <_svfprintf_r+0xf7e>
 80171d0:	2600      	movs	r6, #0
 80171d2:	2700      	movs	r7, #0
 80171d4:	f10d 08b8 	add.w	r8, sp, #184	; 0xb8
 80171d8:	9a15      	ldr	r2, [sp, #84]	; 0x54
 80171da:	f006 030f 	and.w	r3, r6, #15
 80171de:	5cd3      	ldrb	r3, [r2, r3]
 80171e0:	093a      	lsrs	r2, r7, #4
 80171e2:	f808 3d01 	strb.w	r3, [r8, #-1]!
 80171e6:	0933      	lsrs	r3, r6, #4
 80171e8:	ea43 7307 	orr.w	r3, r3, r7, lsl #28
 80171ec:	461e      	mov	r6, r3
 80171ee:	4617      	mov	r7, r2
 80171f0:	ea56 0307 	orrs.w	r3, r6, r7
 80171f4:	d1f0      	bne.n	80171d8 <_svfprintf_r+0x8c4>
 80171f6:	e34c      	b.n	8017892 <_svfprintf_r+0xf7e>
 80171f8:	b93b      	cbnz	r3, 801720a <_svfprintf_r+0x8f6>
 80171fa:	07ea      	lsls	r2, r5, #31
 80171fc:	d505      	bpl.n	801720a <_svfprintf_r+0x8f6>
 80171fe:	2330      	movs	r3, #48	; 0x30
 8017200:	f10d 08f8 	add.w	r8, sp, #248	; 0xf8
 8017204:	f808 3d41 	strb.w	r3, [r8, #-65]!
 8017208:	e343      	b.n	8017892 <_svfprintf_r+0xf7e>
 801720a:	f10d 08b8 	add.w	r8, sp, #184	; 0xb8
 801720e:	e340      	b.n	8017892 <_svfprintf_r+0xf7e>
 8017210:	b10b      	cbz	r3, 8017216 <_svfprintf_r+0x902>
 8017212:	f88d 2067 	strb.w	r2, [sp, #103]	; 0x67
 8017216:	9b06      	ldr	r3, [sp, #24]
 8017218:	2b00      	cmp	r3, #0
 801721a:	f000 82f7 	beq.w	801780c <_svfprintf_r+0xef8>
 801721e:	2600      	movs	r6, #0
 8017220:	f89d 3018 	ldrb.w	r3, [sp, #24]
 8017224:	f88d 6067 	strb.w	r6, [sp, #103]	; 0x67
 8017228:	f88d 3090 	strb.w	r3, [sp, #144]	; 0x90
 801722c:	9708      	str	r7, [sp, #32]
 801722e:	e4e3      	b.n	8016bf8 <_svfprintf_r+0x2e4>
 8017230:	4606      	mov	r6, r0
 8017232:	e538      	b.n	8016ca6 <_svfprintf_r+0x392>
 8017234:	2310      	movs	r3, #16
 8017236:	6063      	str	r3, [r4, #4]
 8017238:	9b23      	ldr	r3, [sp, #140]	; 0x8c
 801723a:	3310      	adds	r3, #16
 801723c:	9323      	str	r3, [sp, #140]	; 0x8c
 801723e:	9b22      	ldr	r3, [sp, #136]	; 0x88
 8017240:	3301      	adds	r3, #1
 8017242:	2b07      	cmp	r3, #7
 8017244:	9322      	str	r3, [sp, #136]	; 0x88
 8017246:	dc04      	bgt.n	8017252 <_svfprintf_r+0x93e>
 8017248:	3408      	adds	r4, #8
 801724a:	9b10      	ldr	r3, [sp, #64]	; 0x40
 801724c:	3b10      	subs	r3, #16
 801724e:	9310      	str	r3, [sp, #64]	; 0x40
 8017250:	e611      	b.n	8016e76 <_svfprintf_r+0x562>
 8017252:	aa21      	add	r2, sp, #132	; 0x84
 8017254:	4649      	mov	r1, r9
 8017256:	4650      	mov	r0, sl
 8017258:	f003 fe69 	bl	801af2e <__ssprint_r>
 801725c:	2800      	cmp	r0, #0
 801725e:	f040 82b6 	bne.w	80177ce <_svfprintf_r+0xeba>
 8017262:	ac2e      	add	r4, sp, #184	; 0xb8
 8017264:	e7f1      	b.n	801724a <_svfprintf_r+0x936>
 8017266:	aa21      	add	r2, sp, #132	; 0x84
 8017268:	4649      	mov	r1, r9
 801726a:	4650      	mov	r0, sl
 801726c:	f003 fe5f 	bl	801af2e <__ssprint_r>
 8017270:	2800      	cmp	r0, #0
 8017272:	f040 82ac 	bne.w	80177ce <_svfprintf_r+0xeba>
 8017276:	ac2e      	add	r4, sp, #184	; 0xb8
 8017278:	e610      	b.n	8016e9c <_svfprintf_r+0x588>
 801727a:	aa21      	add	r2, sp, #132	; 0x84
 801727c:	4649      	mov	r1, r9
 801727e:	4650      	mov	r0, sl
 8017280:	f003 fe55 	bl	801af2e <__ssprint_r>
 8017284:	2800      	cmp	r0, #0
 8017286:	f040 82a2 	bne.w	80177ce <_svfprintf_r+0xeba>
 801728a:	ac2e      	add	r4, sp, #184	; 0xb8
 801728c:	e618      	b.n	8016ec0 <_svfprintf_r+0x5ac>
 801728e:	aa21      	add	r2, sp, #132	; 0x84
 8017290:	4649      	mov	r1, r9
 8017292:	4650      	mov	r0, sl
 8017294:	f003 fe4b 	bl	801af2e <__ssprint_r>
 8017298:	2800      	cmp	r0, #0
 801729a:	f040 8298 	bne.w	80177ce <_svfprintf_r+0xeba>
 801729e:	ac2e      	add	r4, sp, #184	; 0xb8
 80172a0:	e61e      	b.n	8016ee0 <_svfprintf_r+0x5cc>
 80172a2:	2310      	movs	r3, #16
 80172a4:	6063      	str	r3, [r4, #4]
 80172a6:	9b23      	ldr	r3, [sp, #140]	; 0x8c
 80172a8:	3310      	adds	r3, #16
 80172aa:	9323      	str	r3, [sp, #140]	; 0x8c
 80172ac:	9b22      	ldr	r3, [sp, #136]	; 0x88
 80172ae:	3301      	adds	r3, #1
 80172b0:	2b07      	cmp	r3, #7
 80172b2:	9322      	str	r3, [sp, #136]	; 0x88
 80172b4:	dc04      	bgt.n	80172c0 <_svfprintf_r+0x9ac>
 80172b6:	3408      	adds	r4, #8
 80172b8:	9b10      	ldr	r3, [sp, #64]	; 0x40
 80172ba:	3b10      	subs	r3, #16
 80172bc:	9310      	str	r3, [sp, #64]	; 0x40
 80172be:	e618      	b.n	8016ef2 <_svfprintf_r+0x5de>
 80172c0:	aa21      	add	r2, sp, #132	; 0x84
 80172c2:	4649      	mov	r1, r9
 80172c4:	4650      	mov	r0, sl
 80172c6:	f003 fe32 	bl	801af2e <__ssprint_r>
 80172ca:	2800      	cmp	r0, #0
 80172cc:	f040 827f 	bne.w	80177ce <_svfprintf_r+0xeba>
 80172d0:	ac2e      	add	r4, sp, #184	; 0xb8
 80172d2:	e7f1      	b.n	80172b8 <_svfprintf_r+0x9a4>
 80172d4:	aa21      	add	r2, sp, #132	; 0x84
 80172d6:	4649      	mov	r1, r9
 80172d8:	4650      	mov	r0, sl
 80172da:	f003 fe28 	bl	801af2e <__ssprint_r>
 80172de:	2800      	cmp	r0, #0
 80172e0:	f040 8275 	bne.w	80177ce <_svfprintf_r+0xeba>
 80172e4:	ac2e      	add	r4, sp, #184	; 0xb8
 80172e6:	e617      	b.n	8016f18 <_svfprintf_r+0x604>
 80172e8:	2310      	movs	r3, #16
 80172ea:	6063      	str	r3, [r4, #4]
 80172ec:	9b23      	ldr	r3, [sp, #140]	; 0x8c
 80172ee:	3310      	adds	r3, #16
 80172f0:	9323      	str	r3, [sp, #140]	; 0x8c
 80172f2:	9b22      	ldr	r3, [sp, #136]	; 0x88
 80172f4:	3301      	adds	r3, #1
 80172f6:	2b07      	cmp	r3, #7
 80172f8:	9322      	str	r3, [sp, #136]	; 0x88
 80172fa:	dc02      	bgt.n	8017302 <_svfprintf_r+0x9ee>
 80172fc:	3408      	adds	r4, #8
 80172fe:	3e10      	subs	r6, #16
 8017300:	e60e      	b.n	8016f20 <_svfprintf_r+0x60c>
 8017302:	aa21      	add	r2, sp, #132	; 0x84
 8017304:	4649      	mov	r1, r9
 8017306:	4650      	mov	r0, sl
 8017308:	f003 fe11 	bl	801af2e <__ssprint_r>
 801730c:	2800      	cmp	r0, #0
 801730e:	f040 825e 	bne.w	80177ce <_svfprintf_r+0xeba>
 8017312:	ac2e      	add	r4, sp, #184	; 0xb8
 8017314:	e7f3      	b.n	80172fe <_svfprintf_r+0x9ea>
 8017316:	aa21      	add	r2, sp, #132	; 0x84
 8017318:	4649      	mov	r1, r9
 801731a:	4650      	mov	r0, sl
 801731c:	f003 fe07 	bl	801af2e <__ssprint_r>
 8017320:	2800      	cmp	r0, #0
 8017322:	f040 8254 	bne.w	80177ce <_svfprintf_r+0xeba>
 8017326:	ac2e      	add	r4, sp, #184	; 0xb8
 8017328:	e60a      	b.n	8016f40 <_svfprintf_r+0x62c>
 801732a:	9b06      	ldr	r3, [sp, #24]
 801732c:	2b65      	cmp	r3, #101	; 0x65
 801732e:	f340 81a9 	ble.w	8017684 <_svfprintf_r+0xd70>
 8017332:	9a12      	ldr	r2, [sp, #72]	; 0x48
 8017334:	9b13      	ldr	r3, [sp, #76]	; 0x4c
 8017336:	980d      	ldr	r0, [sp, #52]	; 0x34
 8017338:	990e      	ldr	r1, [sp, #56]	; 0x38
 801733a:	f7f9 fba7 	bl	8010a8c <__aeabi_dcmpeq>
 801733e:	2800      	cmp	r0, #0
 8017340:	d062      	beq.n	8017408 <_svfprintf_r+0xaf4>
 8017342:	4b2f      	ldr	r3, [pc, #188]	; (8017400 <_svfprintf_r+0xaec>)
 8017344:	6023      	str	r3, [r4, #0]
 8017346:	2301      	movs	r3, #1
 8017348:	6063      	str	r3, [r4, #4]
 801734a:	9b23      	ldr	r3, [sp, #140]	; 0x8c
 801734c:	3301      	adds	r3, #1
 801734e:	9323      	str	r3, [sp, #140]	; 0x8c
 8017350:	9b22      	ldr	r3, [sp, #136]	; 0x88
 8017352:	3301      	adds	r3, #1
 8017354:	2b07      	cmp	r3, #7
 8017356:	9322      	str	r3, [sp, #136]	; 0x88
 8017358:	dc25      	bgt.n	80173a6 <_svfprintf_r+0xa92>
 801735a:	3408      	adds	r4, #8
 801735c:	9b1b      	ldr	r3, [sp, #108]	; 0x6c
 801735e:	9a07      	ldr	r2, [sp, #28]
 8017360:	4293      	cmp	r3, r2
 8017362:	db02      	blt.n	801736a <_svfprintf_r+0xa56>
 8017364:	07ee      	lsls	r6, r5, #31
 8017366:	f57f ae02 	bpl.w	8016f6e <_svfprintf_r+0x65a>
 801736a:	9b11      	ldr	r3, [sp, #68]	; 0x44
 801736c:	9a0a      	ldr	r2, [sp, #40]	; 0x28
 801736e:	6023      	str	r3, [r4, #0]
 8017370:	9b0a      	ldr	r3, [sp, #40]	; 0x28
 8017372:	6063      	str	r3, [r4, #4]
 8017374:	9b23      	ldr	r3, [sp, #140]	; 0x8c
 8017376:	4413      	add	r3, r2
 8017378:	9323      	str	r3, [sp, #140]	; 0x8c
 801737a:	9b22      	ldr	r3, [sp, #136]	; 0x88
 801737c:	3301      	adds	r3, #1
 801737e:	2b07      	cmp	r3, #7
 8017380:	9322      	str	r3, [sp, #136]	; 0x88
 8017382:	dc1a      	bgt.n	80173ba <_svfprintf_r+0xaa6>
 8017384:	3408      	adds	r4, #8
 8017386:	9b07      	ldr	r3, [sp, #28]
 8017388:	1e5e      	subs	r6, r3, #1
 801738a:	2e00      	cmp	r6, #0
 801738c:	f77f adef 	ble.w	8016f6e <_svfprintf_r+0x65a>
 8017390:	f04f 0810 	mov.w	r8, #16
 8017394:	4f1b      	ldr	r7, [pc, #108]	; (8017404 <_svfprintf_r+0xaf0>)
 8017396:	2e10      	cmp	r6, #16
 8017398:	6027      	str	r7, [r4, #0]
 801739a:	dc18      	bgt.n	80173ce <_svfprintf_r+0xaba>
 801739c:	6066      	str	r6, [r4, #4]
 801739e:	9b23      	ldr	r3, [sp, #140]	; 0x8c
 80173a0:	441e      	add	r6, r3
 80173a2:	9623      	str	r6, [sp, #140]	; 0x8c
 80173a4:	e5d4      	b.n	8016f50 <_svfprintf_r+0x63c>
 80173a6:	aa21      	add	r2, sp, #132	; 0x84
 80173a8:	4649      	mov	r1, r9
 80173aa:	4650      	mov	r0, sl
 80173ac:	f003 fdbf 	bl	801af2e <__ssprint_r>
 80173b0:	2800      	cmp	r0, #0
 80173b2:	f040 820c 	bne.w	80177ce <_svfprintf_r+0xeba>
 80173b6:	ac2e      	add	r4, sp, #184	; 0xb8
 80173b8:	e7d0      	b.n	801735c <_svfprintf_r+0xa48>
 80173ba:	aa21      	add	r2, sp, #132	; 0x84
 80173bc:	4649      	mov	r1, r9
 80173be:	4650      	mov	r0, sl
 80173c0:	f003 fdb5 	bl	801af2e <__ssprint_r>
 80173c4:	2800      	cmp	r0, #0
 80173c6:	f040 8202 	bne.w	80177ce <_svfprintf_r+0xeba>
 80173ca:	ac2e      	add	r4, sp, #184	; 0xb8
 80173cc:	e7db      	b.n	8017386 <_svfprintf_r+0xa72>
 80173ce:	9b23      	ldr	r3, [sp, #140]	; 0x8c
 80173d0:	f8c4 8004 	str.w	r8, [r4, #4]
 80173d4:	3310      	adds	r3, #16
 80173d6:	9323      	str	r3, [sp, #140]	; 0x8c
 80173d8:	9b22      	ldr	r3, [sp, #136]	; 0x88
 80173da:	3301      	adds	r3, #1
 80173dc:	2b07      	cmp	r3, #7
 80173de:	9322      	str	r3, [sp, #136]	; 0x88
 80173e0:	dc02      	bgt.n	80173e8 <_svfprintf_r+0xad4>
 80173e2:	3408      	adds	r4, #8
 80173e4:	3e10      	subs	r6, #16
 80173e6:	e7d6      	b.n	8017396 <_svfprintf_r+0xa82>
 80173e8:	aa21      	add	r2, sp, #132	; 0x84
 80173ea:	4649      	mov	r1, r9
 80173ec:	4650      	mov	r0, sl
 80173ee:	f003 fd9e 	bl	801af2e <__ssprint_r>
 80173f2:	2800      	cmp	r0, #0
 80173f4:	f040 81eb 	bne.w	80177ce <_svfprintf_r+0xeba>
 80173f8:	ac2e      	add	r4, sp, #184	; 0xb8
 80173fa:	e7f3      	b.n	80173e4 <_svfprintf_r+0xad0>
 80173fc:	0801bb2b 	.word	0x0801bb2b
 8017400:	0801bb3c 	.word	0x0801bb3c
 8017404:	0801bb4e 	.word	0x0801bb4e
 8017408:	9b1b      	ldr	r3, [sp, #108]	; 0x6c
 801740a:	2b00      	cmp	r3, #0
 801740c:	dc7a      	bgt.n	8017504 <_svfprintf_r+0xbf0>
 801740e:	4b9b      	ldr	r3, [pc, #620]	; (801767c <_svfprintf_r+0xd68>)
 8017410:	6023      	str	r3, [r4, #0]
 8017412:	2301      	movs	r3, #1
 8017414:	6063      	str	r3, [r4, #4]
 8017416:	9b23      	ldr	r3, [sp, #140]	; 0x8c
 8017418:	3301      	adds	r3, #1
 801741a:	9323      	str	r3, [sp, #140]	; 0x8c
 801741c:	9b22      	ldr	r3, [sp, #136]	; 0x88
 801741e:	3301      	adds	r3, #1
 8017420:	2b07      	cmp	r3, #7
 8017422:	9322      	str	r3, [sp, #136]	; 0x88
 8017424:	dc44      	bgt.n	80174b0 <_svfprintf_r+0xb9c>
 8017426:	3408      	adds	r4, #8
 8017428:	9b1b      	ldr	r3, [sp, #108]	; 0x6c
 801742a:	b923      	cbnz	r3, 8017436 <_svfprintf_r+0xb22>
 801742c:	9b07      	ldr	r3, [sp, #28]
 801742e:	b913      	cbnz	r3, 8017436 <_svfprintf_r+0xb22>
 8017430:	07e8      	lsls	r0, r5, #31
 8017432:	f57f ad9c 	bpl.w	8016f6e <_svfprintf_r+0x65a>
 8017436:	9b11      	ldr	r3, [sp, #68]	; 0x44
 8017438:	9a0a      	ldr	r2, [sp, #40]	; 0x28
 801743a:	6023      	str	r3, [r4, #0]
 801743c:	9b0a      	ldr	r3, [sp, #40]	; 0x28
 801743e:	6063      	str	r3, [r4, #4]
 8017440:	9b23      	ldr	r3, [sp, #140]	; 0x8c
 8017442:	4413      	add	r3, r2
 8017444:	9323      	str	r3, [sp, #140]	; 0x8c
 8017446:	9b22      	ldr	r3, [sp, #136]	; 0x88
 8017448:	3301      	adds	r3, #1
 801744a:	2b07      	cmp	r3, #7
 801744c:	9322      	str	r3, [sp, #136]	; 0x88
 801744e:	dc39      	bgt.n	80174c4 <_svfprintf_r+0xbb0>
 8017450:	f104 0308 	add.w	r3, r4, #8
 8017454:	9e1b      	ldr	r6, [sp, #108]	; 0x6c
 8017456:	2e00      	cmp	r6, #0
 8017458:	da19      	bge.n	801748e <_svfprintf_r+0xb7a>
 801745a:	2410      	movs	r4, #16
 801745c:	4f88      	ldr	r7, [pc, #544]	; (8017680 <_svfprintf_r+0xd6c>)
 801745e:	4276      	negs	r6, r6
 8017460:	2e10      	cmp	r6, #16
 8017462:	601f      	str	r7, [r3, #0]
 8017464:	dc38      	bgt.n	80174d8 <_svfprintf_r+0xbc4>
 8017466:	9a23      	ldr	r2, [sp, #140]	; 0x8c
 8017468:	605e      	str	r6, [r3, #4]
 801746a:	4416      	add	r6, r2
 801746c:	9a22      	ldr	r2, [sp, #136]	; 0x88
 801746e:	9623      	str	r6, [sp, #140]	; 0x8c
 8017470:	3201      	adds	r2, #1
 8017472:	2a07      	cmp	r2, #7
 8017474:	f103 0308 	add.w	r3, r3, #8
 8017478:	9222      	str	r2, [sp, #136]	; 0x88
 801747a:	dd08      	ble.n	801748e <_svfprintf_r+0xb7a>
 801747c:	aa21      	add	r2, sp, #132	; 0x84
 801747e:	4649      	mov	r1, r9
 8017480:	4650      	mov	r0, sl
 8017482:	f003 fd54 	bl	801af2e <__ssprint_r>
 8017486:	2800      	cmp	r0, #0
 8017488:	f040 81a1 	bne.w	80177ce <_svfprintf_r+0xeba>
 801748c:	ab2e      	add	r3, sp, #184	; 0xb8
 801748e:	9a07      	ldr	r2, [sp, #28]
 8017490:	9907      	ldr	r1, [sp, #28]
 8017492:	605a      	str	r2, [r3, #4]
 8017494:	9a23      	ldr	r2, [sp, #140]	; 0x8c
 8017496:	f8c3 8000 	str.w	r8, [r3]
 801749a:	440a      	add	r2, r1
 801749c:	9223      	str	r2, [sp, #140]	; 0x8c
 801749e:	9a22      	ldr	r2, [sp, #136]	; 0x88
 80174a0:	3201      	adds	r2, #1
 80174a2:	2a07      	cmp	r2, #7
 80174a4:	9222      	str	r2, [sp, #136]	; 0x88
 80174a6:	f73f ad59 	bgt.w	8016f5c <_svfprintf_r+0x648>
 80174aa:	f103 0408 	add.w	r4, r3, #8
 80174ae:	e55e      	b.n	8016f6e <_svfprintf_r+0x65a>
 80174b0:	aa21      	add	r2, sp, #132	; 0x84
 80174b2:	4649      	mov	r1, r9
 80174b4:	4650      	mov	r0, sl
 80174b6:	f003 fd3a 	bl	801af2e <__ssprint_r>
 80174ba:	2800      	cmp	r0, #0
 80174bc:	f040 8187 	bne.w	80177ce <_svfprintf_r+0xeba>
 80174c0:	ac2e      	add	r4, sp, #184	; 0xb8
 80174c2:	e7b1      	b.n	8017428 <_svfprintf_r+0xb14>
 80174c4:	aa21      	add	r2, sp, #132	; 0x84
 80174c6:	4649      	mov	r1, r9
 80174c8:	4650      	mov	r0, sl
 80174ca:	f003 fd30 	bl	801af2e <__ssprint_r>
 80174ce:	2800      	cmp	r0, #0
 80174d0:	f040 817d 	bne.w	80177ce <_svfprintf_r+0xeba>
 80174d4:	ab2e      	add	r3, sp, #184	; 0xb8
 80174d6:	e7bd      	b.n	8017454 <_svfprintf_r+0xb40>
 80174d8:	9a23      	ldr	r2, [sp, #140]	; 0x8c
 80174da:	605c      	str	r4, [r3, #4]
 80174dc:	3210      	adds	r2, #16
 80174de:	9223      	str	r2, [sp, #140]	; 0x8c
 80174e0:	9a22      	ldr	r2, [sp, #136]	; 0x88
 80174e2:	3201      	adds	r2, #1
 80174e4:	2a07      	cmp	r2, #7
 80174e6:	9222      	str	r2, [sp, #136]	; 0x88
 80174e8:	dc02      	bgt.n	80174f0 <_svfprintf_r+0xbdc>
 80174ea:	3308      	adds	r3, #8
 80174ec:	3e10      	subs	r6, #16
 80174ee:	e7b7      	b.n	8017460 <_svfprintf_r+0xb4c>
 80174f0:	aa21      	add	r2, sp, #132	; 0x84
 80174f2:	4649      	mov	r1, r9
 80174f4:	4650      	mov	r0, sl
 80174f6:	f003 fd1a 	bl	801af2e <__ssprint_r>
 80174fa:	2800      	cmp	r0, #0
 80174fc:	f040 8167 	bne.w	80177ce <_svfprintf_r+0xeba>
 8017500:	ab2e      	add	r3, sp, #184	; 0xb8
 8017502:	e7f3      	b.n	80174ec <_svfprintf_r+0xbd8>
 8017504:	9b07      	ldr	r3, [sp, #28]
 8017506:	42bb      	cmp	r3, r7
 8017508:	bfa8      	it	ge
 801750a:	463b      	movge	r3, r7
 801750c:	2b00      	cmp	r3, #0
 801750e:	461e      	mov	r6, r3
 8017510:	dd0b      	ble.n	801752a <_svfprintf_r+0xc16>
 8017512:	6063      	str	r3, [r4, #4]
 8017514:	9b23      	ldr	r3, [sp, #140]	; 0x8c
 8017516:	f8c4 8000 	str.w	r8, [r4]
 801751a:	4433      	add	r3, r6
 801751c:	9323      	str	r3, [sp, #140]	; 0x8c
 801751e:	9b22      	ldr	r3, [sp, #136]	; 0x88
 8017520:	3301      	adds	r3, #1
 8017522:	2b07      	cmp	r3, #7
 8017524:	9322      	str	r3, [sp, #136]	; 0x88
 8017526:	dc5f      	bgt.n	80175e8 <_svfprintf_r+0xcd4>
 8017528:	3408      	adds	r4, #8
 801752a:	2e00      	cmp	r6, #0
 801752c:	bfb4      	ite	lt
 801752e:	463e      	movlt	r6, r7
 8017530:	1bbe      	subge	r6, r7, r6
 8017532:	2e00      	cmp	r6, #0
 8017534:	dd0f      	ble.n	8017556 <_svfprintf_r+0xc42>
 8017536:	f8df b148 	ldr.w	fp, [pc, #328]	; 8017680 <_svfprintf_r+0xd6c>
 801753a:	2e10      	cmp	r6, #16
 801753c:	f8c4 b000 	str.w	fp, [r4]
 8017540:	dc5c      	bgt.n	80175fc <_svfprintf_r+0xce8>
 8017542:	9b23      	ldr	r3, [sp, #140]	; 0x8c
 8017544:	6066      	str	r6, [r4, #4]
 8017546:	441e      	add	r6, r3
 8017548:	9b22      	ldr	r3, [sp, #136]	; 0x88
 801754a:	9623      	str	r6, [sp, #140]	; 0x8c
 801754c:	3301      	adds	r3, #1
 801754e:	2b07      	cmp	r3, #7
 8017550:	9322      	str	r3, [sp, #136]	; 0x88
 8017552:	dc6a      	bgt.n	801762a <_svfprintf_r+0xd16>
 8017554:	3408      	adds	r4, #8
 8017556:	9b1b      	ldr	r3, [sp, #108]	; 0x6c
 8017558:	9a07      	ldr	r2, [sp, #28]
 801755a:	4293      	cmp	r3, r2
 801755c:	db01      	blt.n	8017562 <_svfprintf_r+0xc4e>
 801755e:	07e9      	lsls	r1, r5, #31
 8017560:	d50d      	bpl.n	801757e <_svfprintf_r+0xc6a>
 8017562:	9b11      	ldr	r3, [sp, #68]	; 0x44
 8017564:	9a0a      	ldr	r2, [sp, #40]	; 0x28
 8017566:	6023      	str	r3, [r4, #0]
 8017568:	9b0a      	ldr	r3, [sp, #40]	; 0x28
 801756a:	6063      	str	r3, [r4, #4]
 801756c:	9b23      	ldr	r3, [sp, #140]	; 0x8c
 801756e:	4413      	add	r3, r2
 8017570:	9323      	str	r3, [sp, #140]	; 0x8c
 8017572:	9b22      	ldr	r3, [sp, #136]	; 0x88
 8017574:	3301      	adds	r3, #1
 8017576:	2b07      	cmp	r3, #7
 8017578:	9322      	str	r3, [sp, #136]	; 0x88
 801757a:	dc60      	bgt.n	801763e <_svfprintf_r+0xd2a>
 801757c:	3408      	adds	r4, #8
 801757e:	9b07      	ldr	r3, [sp, #28]
 8017580:	9a07      	ldr	r2, [sp, #28]
 8017582:	1bde      	subs	r6, r3, r7
 8017584:	9b1b      	ldr	r3, [sp, #108]	; 0x6c
 8017586:	1ad3      	subs	r3, r2, r3
 8017588:	429e      	cmp	r6, r3
 801758a:	bfa8      	it	ge
 801758c:	461e      	movge	r6, r3
 801758e:	2e00      	cmp	r6, #0
 8017590:	dd0b      	ble.n	80175aa <_svfprintf_r+0xc96>
 8017592:	9b23      	ldr	r3, [sp, #140]	; 0x8c
 8017594:	4447      	add	r7, r8
 8017596:	4433      	add	r3, r6
 8017598:	9323      	str	r3, [sp, #140]	; 0x8c
 801759a:	9b22      	ldr	r3, [sp, #136]	; 0x88
 801759c:	6027      	str	r7, [r4, #0]
 801759e:	3301      	adds	r3, #1
 80175a0:	2b07      	cmp	r3, #7
 80175a2:	6066      	str	r6, [r4, #4]
 80175a4:	9322      	str	r3, [sp, #136]	; 0x88
 80175a6:	dc54      	bgt.n	8017652 <_svfprintf_r+0xd3e>
 80175a8:	3408      	adds	r4, #8
 80175aa:	9b1b      	ldr	r3, [sp, #108]	; 0x6c
 80175ac:	9a07      	ldr	r2, [sp, #28]
 80175ae:	2e00      	cmp	r6, #0
 80175b0:	eba2 0303 	sub.w	r3, r2, r3
 80175b4:	bfb4      	ite	lt
 80175b6:	461e      	movlt	r6, r3
 80175b8:	1b9e      	subge	r6, r3, r6
 80175ba:	2e00      	cmp	r6, #0
 80175bc:	f77f acd7 	ble.w	8016f6e <_svfprintf_r+0x65a>
 80175c0:	f04f 0810 	mov.w	r8, #16
 80175c4:	4f2e      	ldr	r7, [pc, #184]	; (8017680 <_svfprintf_r+0xd6c>)
 80175c6:	2e10      	cmp	r6, #16
 80175c8:	6027      	str	r7, [r4, #0]
 80175ca:	f77f aee7 	ble.w	801739c <_svfprintf_r+0xa88>
 80175ce:	9b23      	ldr	r3, [sp, #140]	; 0x8c
 80175d0:	f8c4 8004 	str.w	r8, [r4, #4]
 80175d4:	3310      	adds	r3, #16
 80175d6:	9323      	str	r3, [sp, #140]	; 0x8c
 80175d8:	9b22      	ldr	r3, [sp, #136]	; 0x88
 80175da:	3301      	adds	r3, #1
 80175dc:	2b07      	cmp	r3, #7
 80175de:	9322      	str	r3, [sp, #136]	; 0x88
 80175e0:	dc41      	bgt.n	8017666 <_svfprintf_r+0xd52>
 80175e2:	3408      	adds	r4, #8
 80175e4:	3e10      	subs	r6, #16
 80175e6:	e7ee      	b.n	80175c6 <_svfprintf_r+0xcb2>
 80175e8:	aa21      	add	r2, sp, #132	; 0x84
 80175ea:	4649      	mov	r1, r9
 80175ec:	4650      	mov	r0, sl
 80175ee:	f003 fc9e 	bl	801af2e <__ssprint_r>
 80175f2:	2800      	cmp	r0, #0
 80175f4:	f040 80eb 	bne.w	80177ce <_svfprintf_r+0xeba>
 80175f8:	ac2e      	add	r4, sp, #184	; 0xb8
 80175fa:	e796      	b.n	801752a <_svfprintf_r+0xc16>
 80175fc:	2310      	movs	r3, #16
 80175fe:	6063      	str	r3, [r4, #4]
 8017600:	9b23      	ldr	r3, [sp, #140]	; 0x8c
 8017602:	3310      	adds	r3, #16
 8017604:	9323      	str	r3, [sp, #140]	; 0x8c
 8017606:	9b22      	ldr	r3, [sp, #136]	; 0x88
 8017608:	3301      	adds	r3, #1
 801760a:	2b07      	cmp	r3, #7
 801760c:	9322      	str	r3, [sp, #136]	; 0x88
 801760e:	dc02      	bgt.n	8017616 <_svfprintf_r+0xd02>
 8017610:	3408      	adds	r4, #8
 8017612:	3e10      	subs	r6, #16
 8017614:	e791      	b.n	801753a <_svfprintf_r+0xc26>
 8017616:	aa21      	add	r2, sp, #132	; 0x84
 8017618:	4649      	mov	r1, r9
 801761a:	4650      	mov	r0, sl
 801761c:	f003 fc87 	bl	801af2e <__ssprint_r>
 8017620:	2800      	cmp	r0, #0
 8017622:	f040 80d4 	bne.w	80177ce <_svfprintf_r+0xeba>
 8017626:	ac2e      	add	r4, sp, #184	; 0xb8
 8017628:	e7f3      	b.n	8017612 <_svfprintf_r+0xcfe>
 801762a:	aa21      	add	r2, sp, #132	; 0x84
 801762c:	4649      	mov	r1, r9
 801762e:	4650      	mov	r0, sl
 8017630:	f003 fc7d 	bl	801af2e <__ssprint_r>
 8017634:	2800      	cmp	r0, #0
 8017636:	f040 80ca 	bne.w	80177ce <_svfprintf_r+0xeba>
 801763a:	ac2e      	add	r4, sp, #184	; 0xb8
 801763c:	e78b      	b.n	8017556 <_svfprintf_r+0xc42>
 801763e:	aa21      	add	r2, sp, #132	; 0x84
 8017640:	4649      	mov	r1, r9
 8017642:	4650      	mov	r0, sl
 8017644:	f003 fc73 	bl	801af2e <__ssprint_r>
 8017648:	2800      	cmp	r0, #0
 801764a:	f040 80c0 	bne.w	80177ce <_svfprintf_r+0xeba>
 801764e:	ac2e      	add	r4, sp, #184	; 0xb8
 8017650:	e795      	b.n	801757e <_svfprintf_r+0xc6a>
 8017652:	aa21      	add	r2, sp, #132	; 0x84
 8017654:	4649      	mov	r1, r9
 8017656:	4650      	mov	r0, sl
 8017658:	f003 fc69 	bl	801af2e <__ssprint_r>
 801765c:	2800      	cmp	r0, #0
 801765e:	f040 80b6 	bne.w	80177ce <_svfprintf_r+0xeba>
 8017662:	ac2e      	add	r4, sp, #184	; 0xb8
 8017664:	e7a1      	b.n	80175aa <_svfprintf_r+0xc96>
 8017666:	aa21      	add	r2, sp, #132	; 0x84
 8017668:	4649      	mov	r1, r9
 801766a:	4650      	mov	r0, sl
 801766c:	f003 fc5f 	bl	801af2e <__ssprint_r>
 8017670:	2800      	cmp	r0, #0
 8017672:	f040 80ac 	bne.w	80177ce <_svfprintf_r+0xeba>
 8017676:	ac2e      	add	r4, sp, #184	; 0xb8
 8017678:	e7b4      	b.n	80175e4 <_svfprintf_r+0xcd0>
 801767a:	bf00      	nop
 801767c:	0801bb3c 	.word	0x0801bb3c
 8017680:	0801bb4e 	.word	0x0801bb4e
 8017684:	9b07      	ldr	r3, [sp, #28]
 8017686:	2b01      	cmp	r3, #1
 8017688:	dc01      	bgt.n	801768e <_svfprintf_r+0xd7a>
 801768a:	07ea      	lsls	r2, r5, #31
 801768c:	d576      	bpl.n	801777c <_svfprintf_r+0xe68>
 801768e:	2301      	movs	r3, #1
 8017690:	6063      	str	r3, [r4, #4]
 8017692:	9b23      	ldr	r3, [sp, #140]	; 0x8c
 8017694:	f8c4 8000 	str.w	r8, [r4]
 8017698:	3301      	adds	r3, #1
 801769a:	9323      	str	r3, [sp, #140]	; 0x8c
 801769c:	9b22      	ldr	r3, [sp, #136]	; 0x88
 801769e:	3301      	adds	r3, #1
 80176a0:	2b07      	cmp	r3, #7
 80176a2:	9322      	str	r3, [sp, #136]	; 0x88
 80176a4:	dc36      	bgt.n	8017714 <_svfprintf_r+0xe00>
 80176a6:	3408      	adds	r4, #8
 80176a8:	9b11      	ldr	r3, [sp, #68]	; 0x44
 80176aa:	9a0a      	ldr	r2, [sp, #40]	; 0x28
 80176ac:	6023      	str	r3, [r4, #0]
 80176ae:	9b0a      	ldr	r3, [sp, #40]	; 0x28
 80176b0:	6063      	str	r3, [r4, #4]
 80176b2:	9b23      	ldr	r3, [sp, #140]	; 0x8c
 80176b4:	4413      	add	r3, r2
 80176b6:	9323      	str	r3, [sp, #140]	; 0x8c
 80176b8:	9b22      	ldr	r3, [sp, #136]	; 0x88
 80176ba:	3301      	adds	r3, #1
 80176bc:	2b07      	cmp	r3, #7
 80176be:	9322      	str	r3, [sp, #136]	; 0x88
 80176c0:	dc31      	bgt.n	8017726 <_svfprintf_r+0xe12>
 80176c2:	3408      	adds	r4, #8
 80176c4:	9b13      	ldr	r3, [sp, #76]	; 0x4c
 80176c6:	9a12      	ldr	r2, [sp, #72]	; 0x48
 80176c8:	980d      	ldr	r0, [sp, #52]	; 0x34
 80176ca:	990e      	ldr	r1, [sp, #56]	; 0x38
 80176cc:	f7f9 f9de 	bl	8010a8c <__aeabi_dcmpeq>
 80176d0:	9b07      	ldr	r3, [sp, #28]
 80176d2:	1e5e      	subs	r6, r3, #1
 80176d4:	2800      	cmp	r0, #0
 80176d6:	d12f      	bne.n	8017738 <_svfprintf_r+0xe24>
 80176d8:	f108 0301 	add.w	r3, r8, #1
 80176dc:	e884 0048 	stmia.w	r4, {r3, r6}
 80176e0:	9b23      	ldr	r3, [sp, #140]	; 0x8c
 80176e2:	9a07      	ldr	r2, [sp, #28]
 80176e4:	3b01      	subs	r3, #1
 80176e6:	4413      	add	r3, r2
 80176e8:	9323      	str	r3, [sp, #140]	; 0x8c
 80176ea:	9b22      	ldr	r3, [sp, #136]	; 0x88
 80176ec:	3301      	adds	r3, #1
 80176ee:	2b07      	cmp	r3, #7
 80176f0:	9322      	str	r3, [sp, #136]	; 0x88
 80176f2:	dd4a      	ble.n	801778a <_svfprintf_r+0xe76>
 80176f4:	aa21      	add	r2, sp, #132	; 0x84
 80176f6:	4649      	mov	r1, r9
 80176f8:	4650      	mov	r0, sl
 80176fa:	f003 fc18 	bl	801af2e <__ssprint_r>
 80176fe:	2800      	cmp	r0, #0
 8017700:	d165      	bne.n	80177ce <_svfprintf_r+0xeba>
 8017702:	ac2e      	add	r4, sp, #184	; 0xb8
 8017704:	ab1d      	add	r3, sp, #116	; 0x74
 8017706:	6023      	str	r3, [r4, #0]
 8017708:	9b14      	ldr	r3, [sp, #80]	; 0x50
 801770a:	9a14      	ldr	r2, [sp, #80]	; 0x50
 801770c:	6063      	str	r3, [r4, #4]
 801770e:	9b23      	ldr	r3, [sp, #140]	; 0x8c
 8017710:	4413      	add	r3, r2
 8017712:	e41c      	b.n	8016f4e <_svfprintf_r+0x63a>
 8017714:	aa21      	add	r2, sp, #132	; 0x84
 8017716:	4649      	mov	r1, r9
 8017718:	4650      	mov	r0, sl
 801771a:	f003 fc08 	bl	801af2e <__ssprint_r>
 801771e:	2800      	cmp	r0, #0
 8017720:	d155      	bne.n	80177ce <_svfprintf_r+0xeba>
 8017722:	ac2e      	add	r4, sp, #184	; 0xb8
 8017724:	e7c0      	b.n	80176a8 <_svfprintf_r+0xd94>
 8017726:	aa21      	add	r2, sp, #132	; 0x84
 8017728:	4649      	mov	r1, r9
 801772a:	4650      	mov	r0, sl
 801772c:	f003 fbff 	bl	801af2e <__ssprint_r>
 8017730:	2800      	cmp	r0, #0
 8017732:	d14c      	bne.n	80177ce <_svfprintf_r+0xeba>
 8017734:	ac2e      	add	r4, sp, #184	; 0xb8
 8017736:	e7c5      	b.n	80176c4 <_svfprintf_r+0xdb0>
 8017738:	2e00      	cmp	r6, #0
 801773a:	dde3      	ble.n	8017704 <_svfprintf_r+0xdf0>
 801773c:	f04f 0810 	mov.w	r8, #16
 8017740:	4f58      	ldr	r7, [pc, #352]	; (80178a4 <_svfprintf_r+0xf90>)
 8017742:	2e10      	cmp	r6, #16
 8017744:	6027      	str	r7, [r4, #0]
 8017746:	dc04      	bgt.n	8017752 <_svfprintf_r+0xe3e>
 8017748:	9b23      	ldr	r3, [sp, #140]	; 0x8c
 801774a:	6066      	str	r6, [r4, #4]
 801774c:	441e      	add	r6, r3
 801774e:	9623      	str	r6, [sp, #140]	; 0x8c
 8017750:	e7cb      	b.n	80176ea <_svfprintf_r+0xdd6>
 8017752:	9b23      	ldr	r3, [sp, #140]	; 0x8c
 8017754:	f8c4 8004 	str.w	r8, [r4, #4]
 8017758:	3310      	adds	r3, #16
 801775a:	9323      	str	r3, [sp, #140]	; 0x8c
 801775c:	9b22      	ldr	r3, [sp, #136]	; 0x88
 801775e:	3301      	adds	r3, #1
 8017760:	2b07      	cmp	r3, #7
 8017762:	9322      	str	r3, [sp, #136]	; 0x88
 8017764:	dc02      	bgt.n	801776c <_svfprintf_r+0xe58>
 8017766:	3408      	adds	r4, #8
 8017768:	3e10      	subs	r6, #16
 801776a:	e7ea      	b.n	8017742 <_svfprintf_r+0xe2e>
 801776c:	aa21      	add	r2, sp, #132	; 0x84
 801776e:	4649      	mov	r1, r9
 8017770:	4650      	mov	r0, sl
 8017772:	f003 fbdc 	bl	801af2e <__ssprint_r>
 8017776:	bb50      	cbnz	r0, 80177ce <_svfprintf_r+0xeba>
 8017778:	ac2e      	add	r4, sp, #184	; 0xb8
 801777a:	e7f5      	b.n	8017768 <_svfprintf_r+0xe54>
 801777c:	2301      	movs	r3, #1
 801777e:	6063      	str	r3, [r4, #4]
 8017780:	9b23      	ldr	r3, [sp, #140]	; 0x8c
 8017782:	f8c4 8000 	str.w	r8, [r4]
 8017786:	3301      	adds	r3, #1
 8017788:	e7ae      	b.n	80176e8 <_svfprintf_r+0xdd4>
 801778a:	3408      	adds	r4, #8
 801778c:	e7ba      	b.n	8017704 <_svfprintf_r+0xdf0>
 801778e:	3408      	adds	r4, #8
 8017790:	f7ff bbed 	b.w	8016f6e <_svfprintf_r+0x65a>
 8017794:	9b0c      	ldr	r3, [sp, #48]	; 0x30
 8017796:	9a0f      	ldr	r2, [sp, #60]	; 0x3c
 8017798:	1a9d      	subs	r5, r3, r2
 801779a:	2d00      	cmp	r5, #0
 801779c:	f77f abea 	ble.w	8016f74 <_svfprintf_r+0x660>
 80177a0:	2610      	movs	r6, #16
 80177a2:	4b41      	ldr	r3, [pc, #260]	; (80178a8 <_svfprintf_r+0xf94>)
 80177a4:	2d10      	cmp	r5, #16
 80177a6:	6023      	str	r3, [r4, #0]
 80177a8:	dc1b      	bgt.n	80177e2 <_svfprintf_r+0xece>
 80177aa:	9b23      	ldr	r3, [sp, #140]	; 0x8c
 80177ac:	6065      	str	r5, [r4, #4]
 80177ae:	441d      	add	r5, r3
 80177b0:	9b22      	ldr	r3, [sp, #136]	; 0x88
 80177b2:	9523      	str	r5, [sp, #140]	; 0x8c
 80177b4:	3301      	adds	r3, #1
 80177b6:	2b07      	cmp	r3, #7
 80177b8:	9322      	str	r3, [sp, #136]	; 0x88
 80177ba:	f77f abdb 	ble.w	8016f74 <_svfprintf_r+0x660>
 80177be:	aa21      	add	r2, sp, #132	; 0x84
 80177c0:	4649      	mov	r1, r9
 80177c2:	4650      	mov	r0, sl
 80177c4:	f003 fbb3 	bl	801af2e <__ssprint_r>
 80177c8:	2800      	cmp	r0, #0
 80177ca:	f43f abd3 	beq.w	8016f74 <_svfprintf_r+0x660>
 80177ce:	f8b9 300c 	ldrh.w	r3, [r9, #12]
 80177d2:	f013 0f40 	tst.w	r3, #64	; 0x40
 80177d6:	9b0b      	ldr	r3, [sp, #44]	; 0x2c
 80177d8:	bf18      	it	ne
 80177da:	f04f 33ff 	movne.w	r3, #4294967295
 80177de:	f7ff b8bd 	b.w	801695c <_svfprintf_r+0x48>
 80177e2:	9b23      	ldr	r3, [sp, #140]	; 0x8c
 80177e4:	6066      	str	r6, [r4, #4]
 80177e6:	3310      	adds	r3, #16
 80177e8:	9323      	str	r3, [sp, #140]	; 0x8c
 80177ea:	9b22      	ldr	r3, [sp, #136]	; 0x88
 80177ec:	3301      	adds	r3, #1
 80177ee:	2b07      	cmp	r3, #7
 80177f0:	9322      	str	r3, [sp, #136]	; 0x88
 80177f2:	dc02      	bgt.n	80177fa <_svfprintf_r+0xee6>
 80177f4:	3408      	adds	r4, #8
 80177f6:	3d10      	subs	r5, #16
 80177f8:	e7d3      	b.n	80177a2 <_svfprintf_r+0xe8e>
 80177fa:	aa21      	add	r2, sp, #132	; 0x84
 80177fc:	4649      	mov	r1, r9
 80177fe:	4650      	mov	r0, sl
 8017800:	f003 fb95 	bl	801af2e <__ssprint_r>
 8017804:	2800      	cmp	r0, #0
 8017806:	d1e2      	bne.n	80177ce <_svfprintf_r+0xeba>
 8017808:	ac2e      	add	r4, sp, #184	; 0xb8
 801780a:	e7f4      	b.n	80177f6 <_svfprintf_r+0xee2>
 801780c:	9b23      	ldr	r3, [sp, #140]	; 0x8c
 801780e:	2b00      	cmp	r3, #0
 8017810:	d0dd      	beq.n	80177ce <_svfprintf_r+0xeba>
 8017812:	aa21      	add	r2, sp, #132	; 0x84
 8017814:	4649      	mov	r1, r9
 8017816:	4650      	mov	r0, sl
 8017818:	f003 fb89 	bl	801af2e <__ssprint_r>
 801781c:	e7d7      	b.n	80177ce <_svfprintf_r+0xeba>
 801781e:	9a0d      	ldr	r2, [sp, #52]	; 0x34
 8017820:	9b0e      	ldr	r3, [sp, #56]	; 0x38
 8017822:	980d      	ldr	r0, [sp, #52]	; 0x34
 8017824:	990e      	ldr	r1, [sp, #56]	; 0x38
 8017826:	f7f9 f963 	bl	8010af0 <__aeabi_dcmpun>
 801782a:	2800      	cmp	r0, #0
 801782c:	f43f aa3d 	beq.w	8016caa <_svfprintf_r+0x396>
 8017830:	4b1e      	ldr	r3, [pc, #120]	; (80178ac <_svfprintf_r+0xf98>)
 8017832:	4a1f      	ldr	r2, [pc, #124]	; (80178b0 <_svfprintf_r+0xf9c>)
 8017834:	f7ff ba2d 	b.w	8016c92 <_svfprintf_r+0x37e>
 8017838:	9b1f      	ldr	r3, [sp, #124]	; 0x7c
 801783a:	eba3 0308 	sub.w	r3, r3, r8
 801783e:	9307      	str	r3, [sp, #28]
 8017840:	f7ff baaf 	b.w	8016da2 <_svfprintf_r+0x48e>
 8017844:	ea56 0207 	orrs.w	r2, r6, r7
 8017848:	950f      	str	r5, [sp, #60]	; 0x3c
 801784a:	f43f ac2b 	beq.w	80170a4 <_svfprintf_r+0x790>
 801784e:	2b01      	cmp	r3, #1
 8017850:	f43f ac9d 	beq.w	801718e <_svfprintf_r+0x87a>
 8017854:	2b02      	cmp	r3, #2
 8017856:	f43f acbd 	beq.w	80171d4 <_svfprintf_r+0x8c0>
 801785a:	ab2e      	add	r3, sp, #184	; 0xb8
 801785c:	08f1      	lsrs	r1, r6, #3
 801785e:	ea41 7147 	orr.w	r1, r1, r7, lsl #29
 8017862:	08f8      	lsrs	r0, r7, #3
 8017864:	f006 0207 	and.w	r2, r6, #7
 8017868:	4607      	mov	r7, r0
 801786a:	460e      	mov	r6, r1
 801786c:	3230      	adds	r2, #48	; 0x30
 801786e:	ea56 0107 	orrs.w	r1, r6, r7
 8017872:	f103 38ff 	add.w	r8, r3, #4294967295
 8017876:	f803 2c01 	strb.w	r2, [r3, #-1]
 801787a:	f47f ac86 	bne.w	801718a <_svfprintf_r+0x876>
 801787e:	990f      	ldr	r1, [sp, #60]	; 0x3c
 8017880:	07c9      	lsls	r1, r1, #31
 8017882:	d506      	bpl.n	8017892 <_svfprintf_r+0xf7e>
 8017884:	2a30      	cmp	r2, #48	; 0x30
 8017886:	d004      	beq.n	8017892 <_svfprintf_r+0xf7e>
 8017888:	2230      	movs	r2, #48	; 0x30
 801788a:	f808 2c01 	strb.w	r2, [r8, #-1]
 801788e:	f1a3 0802 	sub.w	r8, r3, #2
 8017892:	ab2e      	add	r3, sp, #184	; 0xb8
 8017894:	465e      	mov	r6, fp
 8017896:	9d0f      	ldr	r5, [sp, #60]	; 0x3c
 8017898:	eba3 0b08 	sub.w	fp, r3, r8
 801789c:	2700      	movs	r7, #0
 801789e:	f7ff bace 	b.w	8016e3e <_svfprintf_r+0x52a>
 80178a2:	bf00      	nop
 80178a4:	0801bb4e 	.word	0x0801bb4e
 80178a8:	0801bb3e 	.word	0x0801bb3e
 80178ac:	0801bb12 	.word	0x0801bb12
 80178b0:	0801bb16 	.word	0x0801bb16

080178b4 <__utoa>:
 80178b4:	b5f0      	push	{r4, r5, r6, r7, lr}
 80178b6:	b08b      	sub	sp, #44	; 0x2c
 80178b8:	4603      	mov	r3, r0
 80178ba:	460f      	mov	r7, r1
 80178bc:	466d      	mov	r5, sp
 80178be:	4c1c      	ldr	r4, [pc, #112]	; (8017930 <__utoa+0x7c>)
 80178c0:	f104 0e20 	add.w	lr, r4, #32
 80178c4:	462e      	mov	r6, r5
 80178c6:	6820      	ldr	r0, [r4, #0]
 80178c8:	6861      	ldr	r1, [r4, #4]
 80178ca:	3408      	adds	r4, #8
 80178cc:	c603      	stmia	r6!, {r0, r1}
 80178ce:	4574      	cmp	r4, lr
 80178d0:	4635      	mov	r5, r6
 80178d2:	d1f7      	bne.n	80178c4 <__utoa+0x10>
 80178d4:	7921      	ldrb	r1, [r4, #4]
 80178d6:	6820      	ldr	r0, [r4, #0]
 80178d8:	7131      	strb	r1, [r6, #4]
 80178da:	1e91      	subs	r1, r2, #2
 80178dc:	2922      	cmp	r1, #34	; 0x22
 80178de:	6030      	str	r0, [r6, #0]
 80178e0:	f04f 0100 	mov.w	r1, #0
 80178e4:	d904      	bls.n	80178f0 <__utoa+0x3c>
 80178e6:	7039      	strb	r1, [r7, #0]
 80178e8:	460f      	mov	r7, r1
 80178ea:	4638      	mov	r0, r7
 80178ec:	b00b      	add	sp, #44	; 0x2c
 80178ee:	bdf0      	pop	{r4, r5, r6, r7, pc}
 80178f0:	1e78      	subs	r0, r7, #1
 80178f2:	4606      	mov	r6, r0
 80178f4:	fbb3 f5f2 	udiv	r5, r3, r2
 80178f8:	fb02 3315 	mls	r3, r2, r5, r3
 80178fc:	f10d 0e28 	add.w	lr, sp, #40	; 0x28
 8017900:	4473      	add	r3, lr
 8017902:	f813 3c28 	ldrb.w	r3, [r3, #-40]
 8017906:	1c4c      	adds	r4, r1, #1
 8017908:	f806 3f01 	strb.w	r3, [r6, #1]!
 801790c:	462b      	mov	r3, r5
 801790e:	b965      	cbnz	r5, 801792a <__utoa+0x76>
 8017910:	553d      	strb	r5, [r7, r4]
 8017912:	187a      	adds	r2, r7, r1
 8017914:	1acc      	subs	r4, r1, r3
 8017916:	42a3      	cmp	r3, r4
 8017918:	dae7      	bge.n	80178ea <__utoa+0x36>
 801791a:	7844      	ldrb	r4, [r0, #1]
 801791c:	7815      	ldrb	r5, [r2, #0]
 801791e:	3301      	adds	r3, #1
 8017920:	f800 5f01 	strb.w	r5, [r0, #1]!
 8017924:	f802 4901 	strb.w	r4, [r2], #-1
 8017928:	e7f4      	b.n	8017914 <__utoa+0x60>
 801792a:	4621      	mov	r1, r4
 801792c:	e7e2      	b.n	80178f4 <__utoa+0x40>
 801792e:	bf00      	nop
 8017930:	0801bb5e 	.word	0x0801bb5e

08017934 <_vfprintf_r>:
 8017934:	e92d 4ff0 	stmdb	sp!, {r4, r5, r6, r7, r8, r9, sl, fp, lr}
 8017938:	b0bf      	sub	sp, #252	; 0xfc
 801793a:	460d      	mov	r5, r1
 801793c:	4616      	mov	r6, r2
 801793e:	461c      	mov	r4, r3
 8017940:	461f      	mov	r7, r3
 8017942:	4681      	mov	r9, r0
 8017944:	f002 fb74 	bl	801a030 <_localeconv_r>
 8017948:	6803      	ldr	r3, [r0, #0]
 801794a:	4618      	mov	r0, r3
 801794c:	9311      	str	r3, [sp, #68]	; 0x44
 801794e:	f7f8 fc75 	bl	801023c <strlen>
 8017952:	900b      	str	r0, [sp, #44]	; 0x2c
 8017954:	f1b9 0f00 	cmp.w	r9, #0
 8017958:	d005      	beq.n	8017966 <_vfprintf_r+0x32>
 801795a:	f8d9 3018 	ldr.w	r3, [r9, #24]
 801795e:	b913      	cbnz	r3, 8017966 <_vfprintf_r+0x32>
 8017960:	4648      	mov	r0, r9
 8017962:	f002 f853 	bl	8019a0c <__sinit>
 8017966:	4b8f      	ldr	r3, [pc, #572]	; (8017ba4 <_vfprintf_r+0x270>)
 8017968:	429d      	cmp	r5, r3
 801796a:	d12c      	bne.n	80179c6 <_vfprintf_r+0x92>
 801796c:	f8d9 5004 	ldr.w	r5, [r9, #4]
 8017970:	6e6b      	ldr	r3, [r5, #100]	; 0x64
 8017972:	07d8      	lsls	r0, r3, #31
 8017974:	d405      	bmi.n	8017982 <_vfprintf_r+0x4e>
 8017976:	89ab      	ldrh	r3, [r5, #12]
 8017978:	0599      	lsls	r1, r3, #22
 801797a:	d402      	bmi.n	8017982 <_vfprintf_r+0x4e>
 801797c:	6da8      	ldr	r0, [r5, #88]	; 0x58
 801797e:	f002 fb67 	bl	801a050 <__retarget_lock_acquire_recursive>
 8017982:	f9b5 300c 	ldrsh.w	r3, [r5, #12]
 8017986:	049a      	lsls	r2, r3, #18
 8017988:	d406      	bmi.n	8017998 <_vfprintf_r+0x64>
 801798a:	f443 5300 	orr.w	r3, r3, #8192	; 0x2000
 801798e:	81ab      	strh	r3, [r5, #12]
 8017990:	6e6b      	ldr	r3, [r5, #100]	; 0x64
 8017992:	f423 5300 	bic.w	r3, r3, #8192	; 0x2000
 8017996:	666b      	str	r3, [r5, #100]	; 0x64
 8017998:	89ab      	ldrh	r3, [r5, #12]
 801799a:	071b      	lsls	r3, r3, #28
 801799c:	d501      	bpl.n	80179a2 <_vfprintf_r+0x6e>
 801799e:	692b      	ldr	r3, [r5, #16]
 80179a0:	b9eb      	cbnz	r3, 80179de <_vfprintf_r+0xaa>
 80179a2:	4629      	mov	r1, r5
 80179a4:	4648      	mov	r0, r9
 80179a6:	f001 f83b 	bl	8018a20 <__swsetup_r>
 80179aa:	b1c0      	cbz	r0, 80179de <_vfprintf_r+0xaa>
 80179ac:	6e6b      	ldr	r3, [r5, #100]	; 0x64
 80179ae:	07d8      	lsls	r0, r3, #31
 80179b0:	d405      	bmi.n	80179be <_vfprintf_r+0x8a>
 80179b2:	89ab      	ldrh	r3, [r5, #12]
 80179b4:	0599      	lsls	r1, r3, #22
 80179b6:	d402      	bmi.n	80179be <_vfprintf_r+0x8a>
 80179b8:	6da8      	ldr	r0, [r5, #88]	; 0x58
 80179ba:	f002 fb4a 	bl	801a052 <__retarget_lock_release_recursive>
 80179be:	f04f 33ff 	mov.w	r3, #4294967295
 80179c2:	930c      	str	r3, [sp, #48]	; 0x30
 80179c4:	e023      	b.n	8017a0e <_vfprintf_r+0xda>
 80179c6:	4b78      	ldr	r3, [pc, #480]	; (8017ba8 <_vfprintf_r+0x274>)
 80179c8:	429d      	cmp	r5, r3
 80179ca:	d102      	bne.n	80179d2 <_vfprintf_r+0x9e>
 80179cc:	f8d9 5008 	ldr.w	r5, [r9, #8]
 80179d0:	e7ce      	b.n	8017970 <_vfprintf_r+0x3c>
 80179d2:	4b76      	ldr	r3, [pc, #472]	; (8017bac <_vfprintf_r+0x278>)
 80179d4:	429d      	cmp	r5, r3
 80179d6:	bf08      	it	eq
 80179d8:	f8d9 500c 	ldreq.w	r5, [r9, #12]
 80179dc:	e7c8      	b.n	8017970 <_vfprintf_r+0x3c>
 80179de:	89ab      	ldrh	r3, [r5, #12]
 80179e0:	f003 021a 	and.w	r2, r3, #26
 80179e4:	2a0a      	cmp	r2, #10
 80179e6:	d116      	bne.n	8017a16 <_vfprintf_r+0xe2>
 80179e8:	f9b5 200e 	ldrsh.w	r2, [r5, #14]
 80179ec:	2a00      	cmp	r2, #0
 80179ee:	db12      	blt.n	8017a16 <_vfprintf_r+0xe2>
 80179f0:	6e6a      	ldr	r2, [r5, #100]	; 0x64
 80179f2:	07d2      	lsls	r2, r2, #31
 80179f4:	d404      	bmi.n	8017a00 <_vfprintf_r+0xcc>
 80179f6:	059f      	lsls	r7, r3, #22
 80179f8:	d402      	bmi.n	8017a00 <_vfprintf_r+0xcc>
 80179fa:	6da8      	ldr	r0, [r5, #88]	; 0x58
 80179fc:	f002 fb29 	bl	801a052 <__retarget_lock_release_recursive>
 8017a00:	4623      	mov	r3, r4
 8017a02:	4632      	mov	r2, r6
 8017a04:	4629      	mov	r1, r5
 8017a06:	4648      	mov	r0, r9
 8017a08:	f000 ffca 	bl	80189a0 <__sbprintf>
 8017a0c:	900c      	str	r0, [sp, #48]	; 0x30
 8017a0e:	980c      	ldr	r0, [sp, #48]	; 0x30
 8017a10:	b03f      	add	sp, #252	; 0xfc
 8017a12:	e8bd 8ff0 	ldmia.w	sp!, {r4, r5, r6, r7, r8, r9, sl, fp, pc}
 8017a16:	2300      	movs	r3, #0
 8017a18:	ac2e      	add	r4, sp, #184	; 0xb8
 8017a1a:	9421      	str	r4, [sp, #132]	; 0x84
 8017a1c:	9323      	str	r3, [sp, #140]	; 0x8c
 8017a1e:	9322      	str	r3, [sp, #136]	; 0x88
 8017a20:	9609      	str	r6, [sp, #36]	; 0x24
 8017a22:	9307      	str	r3, [sp, #28]
 8017a24:	930e      	str	r3, [sp, #56]	; 0x38
 8017a26:	930f      	str	r3, [sp, #60]	; 0x3c
 8017a28:	9315      	str	r3, [sp, #84]	; 0x54
 8017a2a:	9314      	str	r3, [sp, #80]	; 0x50
 8017a2c:	930c      	str	r3, [sp, #48]	; 0x30
 8017a2e:	9312      	str	r3, [sp, #72]	; 0x48
 8017a30:	9313      	str	r3, [sp, #76]	; 0x4c
 8017a32:	9e09      	ldr	r6, [sp, #36]	; 0x24
 8017a34:	4633      	mov	r3, r6
 8017a36:	f813 2b01 	ldrb.w	r2, [r3], #1
 8017a3a:	b112      	cbz	r2, 8017a42 <_vfprintf_r+0x10e>
 8017a3c:	2a25      	cmp	r2, #37	; 0x25
 8017a3e:	f040 8084 	bne.w	8017b4a <_vfprintf_r+0x216>
 8017a42:	9b09      	ldr	r3, [sp, #36]	; 0x24
 8017a44:	ebb6 0803 	subs.w	r8, r6, r3
 8017a48:	d00d      	beq.n	8017a66 <_vfprintf_r+0x132>
 8017a4a:	e884 0108 	stmia.w	r4, {r3, r8}
 8017a4e:	9b23      	ldr	r3, [sp, #140]	; 0x8c
 8017a50:	4443      	add	r3, r8
 8017a52:	9323      	str	r3, [sp, #140]	; 0x8c
 8017a54:	9b22      	ldr	r3, [sp, #136]	; 0x88
 8017a56:	3301      	adds	r3, #1
 8017a58:	2b07      	cmp	r3, #7
 8017a5a:	9322      	str	r3, [sp, #136]	; 0x88
 8017a5c:	dc77      	bgt.n	8017b4e <_vfprintf_r+0x21a>
 8017a5e:	3408      	adds	r4, #8
 8017a60:	9b0c      	ldr	r3, [sp, #48]	; 0x30
 8017a62:	4443      	add	r3, r8
 8017a64:	930c      	str	r3, [sp, #48]	; 0x30
 8017a66:	7833      	ldrb	r3, [r6, #0]
 8017a68:	2b00      	cmp	r3, #0
 8017a6a:	f000 873f 	beq.w	80188ec <_vfprintf_r+0xfb8>
 8017a6e:	2300      	movs	r3, #0
 8017a70:	f04f 3bff 	mov.w	fp, #4294967295
 8017a74:	461a      	mov	r2, r3
 8017a76:	469a      	mov	sl, r3
 8017a78:	200a      	movs	r0, #10
 8017a7a:	3601      	adds	r6, #1
 8017a7c:	f88d 3067 	strb.w	r3, [sp, #103]	; 0x67
 8017a80:	930d      	str	r3, [sp, #52]	; 0x34
 8017a82:	1c71      	adds	r1, r6, #1
 8017a84:	9109      	str	r1, [sp, #36]	; 0x24
 8017a86:	7831      	ldrb	r1, [r6, #0]
 8017a88:	9106      	str	r1, [sp, #24]
 8017a8a:	9906      	ldr	r1, [sp, #24]
 8017a8c:	3920      	subs	r1, #32
 8017a8e:	2958      	cmp	r1, #88	; 0x58
 8017a90:	f200 8424 	bhi.w	80182dc <_vfprintf_r+0x9a8>
 8017a94:	e8df f011 	tbh	[pc, r1, lsl #1]
 8017a98:	042200ae 	.word	0x042200ae
 8017a9c:	00b30422 	.word	0x00b30422
 8017aa0:	04220422 	.word	0x04220422
 8017aa4:	04220422 	.word	0x04220422
 8017aa8:	04220422 	.word	0x04220422
 8017aac:	006500b6 	.word	0x006500b6
 8017ab0:	00be0422 	.word	0x00be0422
 8017ab4:	042200c1 	.word	0x042200c1
 8017ab8:	00e100de 	.word	0x00e100de
 8017abc:	00e100e1 	.word	0x00e100e1
 8017ac0:	00e100e1 	.word	0x00e100e1
 8017ac4:	00e100e1 	.word	0x00e100e1
 8017ac8:	00e100e1 	.word	0x00e100e1
 8017acc:	04220422 	.word	0x04220422
 8017ad0:	04220422 	.word	0x04220422
 8017ad4:	04220422 	.word	0x04220422
 8017ad8:	04220422 	.word	0x04220422
 8017adc:	04220422 	.word	0x04220422
 8017ae0:	012b0115 	.word	0x012b0115
 8017ae4:	012b0422 	.word	0x012b0422
 8017ae8:	04220422 	.word	0x04220422
 8017aec:	04220422 	.word	0x04220422
 8017af0:	042200f4 	.word	0x042200f4
 8017af4:	03490422 	.word	0x03490422
 8017af8:	04220422 	.word	0x04220422
 8017afc:	04220422 	.word	0x04220422
 8017b00:	03b00422 	.word	0x03b00422
 8017b04:	04220422 	.word	0x04220422
 8017b08:	0422008c 	.word	0x0422008c
 8017b0c:	04220422 	.word	0x04220422
 8017b10:	04220422 	.word	0x04220422
 8017b14:	04220422 	.word	0x04220422
 8017b18:	04220422 	.word	0x04220422
 8017b1c:	01070422 	.word	0x01070422
 8017b20:	012b006b 	.word	0x012b006b
 8017b24:	012b012b 	.word	0x012b012b
 8017b28:	006b00f7 	.word	0x006b00f7
 8017b2c:	04220422 	.word	0x04220422
 8017b30:	042200fa 	.word	0x042200fa
 8017b34:	034b0329 	.word	0x034b0329
 8017b38:	0101037f 	.word	0x0101037f
 8017b3c:	03900422 	.word	0x03900422
 8017b40:	03b20422 	.word	0x03b20422
 8017b44:	04220422 	.word	0x04220422
 8017b48:	03cc      	.short	0x03cc
 8017b4a:	461e      	mov	r6, r3
 8017b4c:	e772      	b.n	8017a34 <_vfprintf_r+0x100>
 8017b4e:	aa21      	add	r2, sp, #132	; 0x84
 8017b50:	4629      	mov	r1, r5
 8017b52:	4648      	mov	r0, r9
 8017b54:	f003 fa65 	bl	801b022 <__sprint_r>
 8017b58:	2800      	cmp	r0, #0
 8017b5a:	f040 86a3 	bne.w	80188a4 <_vfprintf_r+0xf70>
 8017b5e:	ac2e      	add	r4, sp, #184	; 0xb8
 8017b60:	e77e      	b.n	8017a60 <_vfprintf_r+0x12c>
 8017b62:	2301      	movs	r3, #1
 8017b64:	222b      	movs	r2, #43	; 0x2b
 8017b66:	9e09      	ldr	r6, [sp, #36]	; 0x24
 8017b68:	e78b      	b.n	8017a82 <_vfprintf_r+0x14e>
 8017b6a:	460f      	mov	r7, r1
 8017b6c:	e7fb      	b.n	8017b66 <_vfprintf_r+0x232>
 8017b6e:	b10b      	cbz	r3, 8017b74 <_vfprintf_r+0x240>
 8017b70:	f88d 2067 	strb.w	r2, [sp, #103]	; 0x67
 8017b74:	f01a 0f20 	tst.w	sl, #32
 8017b78:	f000 80a9 	beq.w	8017cce <_vfprintf_r+0x39a>
 8017b7c:	3707      	adds	r7, #7
 8017b7e:	f027 0707 	bic.w	r7, r7, #7
 8017b82:	f107 0308 	add.w	r3, r7, #8
 8017b86:	9308      	str	r3, [sp, #32]
 8017b88:	e9d7 6700 	ldrd	r6, r7, [r7]
 8017b8c:	2e00      	cmp	r6, #0
 8017b8e:	f177 0300 	sbcs.w	r3, r7, #0
 8017b92:	da05      	bge.n	8017ba0 <_vfprintf_r+0x26c>
 8017b94:	232d      	movs	r3, #45	; 0x2d
 8017b96:	4276      	negs	r6, r6
 8017b98:	eb67 0747 	sbc.w	r7, r7, r7, lsl #1
 8017b9c:	f88d 3067 	strb.w	r3, [sp, #103]	; 0x67
 8017ba0:	2301      	movs	r3, #1
 8017ba2:	e2d3      	b.n	801814c <_vfprintf_r+0x818>
 8017ba4:	0801bbd0 	.word	0x0801bbd0
 8017ba8:	0801bbf0 	.word	0x0801bbf0
 8017bac:	0801bbb0 	.word	0x0801bbb0
 8017bb0:	b10b      	cbz	r3, 8017bb6 <_vfprintf_r+0x282>
 8017bb2:	f88d 2067 	strb.w	r2, [sp, #103]	; 0x67
 8017bb6:	4ba2      	ldr	r3, [pc, #648]	; (8017e40 <_vfprintf_r+0x50c>)
 8017bb8:	f01a 0f20 	tst.w	sl, #32
 8017bbc:	9315      	str	r3, [sp, #84]	; 0x54
 8017bbe:	f000 833c 	beq.w	801823a <_vfprintf_r+0x906>
 8017bc2:	3707      	adds	r7, #7
 8017bc4:	f027 0707 	bic.w	r7, r7, #7
 8017bc8:	f107 0308 	add.w	r3, r7, #8
 8017bcc:	9308      	str	r3, [sp, #32]
 8017bce:	e9d7 6700 	ldrd	r6, r7, [r7]
 8017bd2:	f01a 0f01 	tst.w	sl, #1
 8017bd6:	d00b      	beq.n	8017bf0 <_vfprintf_r+0x2bc>
 8017bd8:	ea56 0307 	orrs.w	r3, r6, r7
 8017bdc:	d008      	beq.n	8017bf0 <_vfprintf_r+0x2bc>
 8017bde:	2330      	movs	r3, #48	; 0x30
 8017be0:	f88d 3068 	strb.w	r3, [sp, #104]	; 0x68
 8017be4:	f89d 3018 	ldrb.w	r3, [sp, #24]
 8017be8:	f04a 0a02 	orr.w	sl, sl, #2
 8017bec:	f88d 3069 	strb.w	r3, [sp, #105]	; 0x69
 8017bf0:	2302      	movs	r3, #2
 8017bf2:	e2a8      	b.n	8018146 <_vfprintf_r+0x812>
 8017bf4:	2a00      	cmp	r2, #0
 8017bf6:	d1b6      	bne.n	8017b66 <_vfprintf_r+0x232>
 8017bf8:	2301      	movs	r3, #1
 8017bfa:	2220      	movs	r2, #32
 8017bfc:	e7b3      	b.n	8017b66 <_vfprintf_r+0x232>
 8017bfe:	f04a 0a01 	orr.w	sl, sl, #1
 8017c02:	e7b0      	b.n	8017b66 <_vfprintf_r+0x232>
 8017c04:	683e      	ldr	r6, [r7, #0]
 8017c06:	1d39      	adds	r1, r7, #4
 8017c08:	2e00      	cmp	r6, #0
 8017c0a:	960d      	str	r6, [sp, #52]	; 0x34
 8017c0c:	daad      	bge.n	8017b6a <_vfprintf_r+0x236>
 8017c0e:	460f      	mov	r7, r1
 8017c10:	4276      	negs	r6, r6
 8017c12:	960d      	str	r6, [sp, #52]	; 0x34
 8017c14:	f04a 0a04 	orr.w	sl, sl, #4
 8017c18:	e7a5      	b.n	8017b66 <_vfprintf_r+0x232>
 8017c1a:	9909      	ldr	r1, [sp, #36]	; 0x24
 8017c1c:	1c4e      	adds	r6, r1, #1
 8017c1e:	7809      	ldrb	r1, [r1, #0]
 8017c20:	292a      	cmp	r1, #42	; 0x2a
 8017c22:	9106      	str	r1, [sp, #24]
 8017c24:	d010      	beq.n	8017c48 <_vfprintf_r+0x314>
 8017c26:	f04f 0b00 	mov.w	fp, #0
 8017c2a:	9609      	str	r6, [sp, #36]	; 0x24
 8017c2c:	9906      	ldr	r1, [sp, #24]
 8017c2e:	3930      	subs	r1, #48	; 0x30
 8017c30:	2909      	cmp	r1, #9
 8017c32:	f63f af2a 	bhi.w	8017a8a <_vfprintf_r+0x156>
 8017c36:	fb00 1b0b 	mla	fp, r0, fp, r1
 8017c3a:	9909      	ldr	r1, [sp, #36]	; 0x24
 8017c3c:	460e      	mov	r6, r1
 8017c3e:	f816 1b01 	ldrb.w	r1, [r6], #1
 8017c42:	9106      	str	r1, [sp, #24]
 8017c44:	9609      	str	r6, [sp, #36]	; 0x24
 8017c46:	e7f1      	b.n	8017c2c <_vfprintf_r+0x2f8>
 8017c48:	6839      	ldr	r1, [r7, #0]
 8017c4a:	9609      	str	r6, [sp, #36]	; 0x24
 8017c4c:	ea41 7be1 	orr.w	fp, r1, r1, asr #31
 8017c50:	3704      	adds	r7, #4
 8017c52:	e788      	b.n	8017b66 <_vfprintf_r+0x232>
 8017c54:	f04a 0a80 	orr.w	sl, sl, #128	; 0x80
 8017c58:	e785      	b.n	8017b66 <_vfprintf_r+0x232>
 8017c5a:	2100      	movs	r1, #0
 8017c5c:	910d      	str	r1, [sp, #52]	; 0x34
 8017c5e:	9906      	ldr	r1, [sp, #24]
 8017c60:	9e0d      	ldr	r6, [sp, #52]	; 0x34
 8017c62:	3930      	subs	r1, #48	; 0x30
 8017c64:	fb00 1106 	mla	r1, r0, r6, r1
 8017c68:	910d      	str	r1, [sp, #52]	; 0x34
 8017c6a:	9909      	ldr	r1, [sp, #36]	; 0x24
 8017c6c:	460e      	mov	r6, r1
 8017c6e:	f816 1b01 	ldrb.w	r1, [r6], #1
 8017c72:	9106      	str	r1, [sp, #24]
 8017c74:	9906      	ldr	r1, [sp, #24]
 8017c76:	9609      	str	r6, [sp, #36]	; 0x24
 8017c78:	3930      	subs	r1, #48	; 0x30
 8017c7a:	2909      	cmp	r1, #9
 8017c7c:	d9ef      	bls.n	8017c5e <_vfprintf_r+0x32a>
 8017c7e:	e704      	b.n	8017a8a <_vfprintf_r+0x156>
 8017c80:	f04a 0a08 	orr.w	sl, sl, #8
 8017c84:	e76f      	b.n	8017b66 <_vfprintf_r+0x232>
 8017c86:	f04a 0a40 	orr.w	sl, sl, #64	; 0x40
 8017c8a:	e76c      	b.n	8017b66 <_vfprintf_r+0x232>
 8017c8c:	9909      	ldr	r1, [sp, #36]	; 0x24
 8017c8e:	7809      	ldrb	r1, [r1, #0]
 8017c90:	296c      	cmp	r1, #108	; 0x6c
 8017c92:	d105      	bne.n	8017ca0 <_vfprintf_r+0x36c>
 8017c94:	9909      	ldr	r1, [sp, #36]	; 0x24
 8017c96:	3101      	adds	r1, #1
 8017c98:	9109      	str	r1, [sp, #36]	; 0x24
 8017c9a:	f04a 0a20 	orr.w	sl, sl, #32
 8017c9e:	e762      	b.n	8017b66 <_vfprintf_r+0x232>
 8017ca0:	f04a 0a10 	orr.w	sl, sl, #16
 8017ca4:	e75f      	b.n	8017b66 <_vfprintf_r+0x232>
 8017ca6:	2600      	movs	r6, #0
 8017ca8:	1d3b      	adds	r3, r7, #4
 8017caa:	9308      	str	r3, [sp, #32]
 8017cac:	683b      	ldr	r3, [r7, #0]
 8017cae:	f88d 6067 	strb.w	r6, [sp, #103]	; 0x67
 8017cb2:	f88d 3090 	strb.w	r3, [sp, #144]	; 0x90
 8017cb6:	f04f 0b01 	mov.w	fp, #1
 8017cba:	960a      	str	r6, [sp, #40]	; 0x28
 8017cbc:	f10d 0890 	add.w	r8, sp, #144	; 0x90
 8017cc0:	e120      	b.n	8017f04 <_vfprintf_r+0x5d0>
 8017cc2:	b10b      	cbz	r3, 8017cc8 <_vfprintf_r+0x394>
 8017cc4:	f88d 2067 	strb.w	r2, [sp, #103]	; 0x67
 8017cc8:	f04a 0a10 	orr.w	sl, sl, #16
 8017ccc:	e752      	b.n	8017b74 <_vfprintf_r+0x240>
 8017cce:	f01a 0f10 	tst.w	sl, #16
 8017cd2:	f107 0304 	add.w	r3, r7, #4
 8017cd6:	d003      	beq.n	8017ce0 <_vfprintf_r+0x3ac>
 8017cd8:	683e      	ldr	r6, [r7, #0]
 8017cda:	9308      	str	r3, [sp, #32]
 8017cdc:	17f7      	asrs	r7, r6, #31
 8017cde:	e755      	b.n	8017b8c <_vfprintf_r+0x258>
 8017ce0:	683e      	ldr	r6, [r7, #0]
 8017ce2:	f01a 0f40 	tst.w	sl, #64	; 0x40
 8017ce6:	9308      	str	r3, [sp, #32]
 8017ce8:	bf18      	it	ne
 8017cea:	b236      	sxthne	r6, r6
 8017cec:	e7f6      	b.n	8017cdc <_vfprintf_r+0x3a8>
 8017cee:	b10b      	cbz	r3, 8017cf4 <_vfprintf_r+0x3c0>
 8017cf0:	f88d 2067 	strb.w	r2, [sp, #103]	; 0x67
 8017cf4:	3707      	adds	r7, #7
 8017cf6:	f027 0707 	bic.w	r7, r7, #7
 8017cfa:	f107 0308 	add.w	r3, r7, #8
 8017cfe:	9308      	str	r3, [sp, #32]
 8017d00:	683b      	ldr	r3, [r7, #0]
 8017d02:	f04f 32ff 	mov.w	r2, #4294967295
 8017d06:	930e      	str	r3, [sp, #56]	; 0x38
 8017d08:	687b      	ldr	r3, [r7, #4]
 8017d0a:	9f0e      	ldr	r7, [sp, #56]	; 0x38
 8017d0c:	930f      	str	r3, [sp, #60]	; 0x3c
 8017d0e:	9b0f      	ldr	r3, [sp, #60]	; 0x3c
 8017d10:	4638      	mov	r0, r7
 8017d12:	f023 4600 	bic.w	r6, r3, #2147483648	; 0x80000000
 8017d16:	4631      	mov	r1, r6
 8017d18:	4b4a      	ldr	r3, [pc, #296]	; (8017e44 <_vfprintf_r+0x510>)
 8017d1a:	f7f8 fee9 	bl	8010af0 <__aeabi_dcmpun>
 8017d1e:	2800      	cmp	r0, #0
 8017d20:	f040 85f1 	bne.w	8018906 <_vfprintf_r+0xfd2>
 8017d24:	f04f 32ff 	mov.w	r2, #4294967295
 8017d28:	4b46      	ldr	r3, [pc, #280]	; (8017e44 <_vfprintf_r+0x510>)
 8017d2a:	4638      	mov	r0, r7
 8017d2c:	4631      	mov	r1, r6
 8017d2e:	f7f8 fec1 	bl	8010ab4 <__aeabi_dcmple>
 8017d32:	2800      	cmp	r0, #0
 8017d34:	f040 85e7 	bne.w	8018906 <_vfprintf_r+0xfd2>
 8017d38:	9a12      	ldr	r2, [sp, #72]	; 0x48
 8017d3a:	9b13      	ldr	r3, [sp, #76]	; 0x4c
 8017d3c:	980e      	ldr	r0, [sp, #56]	; 0x38
 8017d3e:	990f      	ldr	r1, [sp, #60]	; 0x3c
 8017d40:	f7f8 feae 	bl	8010aa0 <__aeabi_dcmplt>
 8017d44:	b110      	cbz	r0, 8017d4c <_vfprintf_r+0x418>
 8017d46:	232d      	movs	r3, #45	; 0x2d
 8017d48:	f88d 3067 	strb.w	r3, [sp, #103]	; 0x67
 8017d4c:	4b3e      	ldr	r3, [pc, #248]	; (8017e48 <_vfprintf_r+0x514>)
 8017d4e:	4a3f      	ldr	r2, [pc, #252]	; (8017e4c <_vfprintf_r+0x518>)
 8017d50:	9906      	ldr	r1, [sp, #24]
 8017d52:	f04f 0b03 	mov.w	fp, #3
 8017d56:	2947      	cmp	r1, #71	; 0x47
 8017d58:	bfcc      	ite	gt
 8017d5a:	4690      	movgt	r8, r2
 8017d5c:	4698      	movle	r8, r3
 8017d5e:	2600      	movs	r6, #0
 8017d60:	f02a 0a80 	bic.w	sl, sl, #128	; 0x80
 8017d64:	960a      	str	r6, [sp, #40]	; 0x28
 8017d66:	e0cd      	b.n	8017f04 <_vfprintf_r+0x5d0>
 8017d68:	f1bb 3fff 	cmp.w	fp, #4294967295
 8017d6c:	d026      	beq.n	8017dbc <_vfprintf_r+0x488>
 8017d6e:	9b06      	ldr	r3, [sp, #24]
 8017d70:	f023 0320 	bic.w	r3, r3, #32
 8017d74:	2b47      	cmp	r3, #71	; 0x47
 8017d76:	d104      	bne.n	8017d82 <_vfprintf_r+0x44e>
 8017d78:	f1bb 0f00 	cmp.w	fp, #0
 8017d7c:	bf08      	it	eq
 8017d7e:	f04f 0b01 	moveq.w	fp, #1
 8017d82:	f44a 7380 	orr.w	r3, sl, #256	; 0x100
 8017d86:	9317      	str	r3, [sp, #92]	; 0x5c
 8017d88:	9b0f      	ldr	r3, [sp, #60]	; 0x3c
 8017d8a:	1e1f      	subs	r7, r3, #0
 8017d8c:	9b0e      	ldr	r3, [sp, #56]	; 0x38
 8017d8e:	bfa8      	it	ge
 8017d90:	9710      	strge	r7, [sp, #64]	; 0x40
 8017d92:	930a      	str	r3, [sp, #40]	; 0x28
 8017d94:	bfbd      	ittte	lt
 8017d96:	463b      	movlt	r3, r7
 8017d98:	f103 4300 	addlt.w	r3, r3, #2147483648	; 0x80000000
 8017d9c:	9310      	strlt	r3, [sp, #64]	; 0x40
 8017d9e:	2300      	movge	r3, #0
 8017da0:	bfb8      	it	lt
 8017da2:	232d      	movlt	r3, #45	; 0x2d
 8017da4:	9316      	str	r3, [sp, #88]	; 0x58
 8017da6:	9b06      	ldr	r3, [sp, #24]
 8017da8:	f023 0720 	bic.w	r7, r3, #32
 8017dac:	2f46      	cmp	r7, #70	; 0x46
 8017dae:	d008      	beq.n	8017dc2 <_vfprintf_r+0x48e>
 8017db0:	2f45      	cmp	r7, #69	; 0x45
 8017db2:	d143      	bne.n	8017e3c <_vfprintf_r+0x508>
 8017db4:	f10b 0601 	add.w	r6, fp, #1
 8017db8:	2302      	movs	r3, #2
 8017dba:	e004      	b.n	8017dc6 <_vfprintf_r+0x492>
 8017dbc:	f04f 0b06 	mov.w	fp, #6
 8017dc0:	e7df      	b.n	8017d82 <_vfprintf_r+0x44e>
 8017dc2:	465e      	mov	r6, fp
 8017dc4:	2303      	movs	r3, #3
 8017dc6:	aa1f      	add	r2, sp, #124	; 0x7c
 8017dc8:	9204      	str	r2, [sp, #16]
 8017dca:	aa1c      	add	r2, sp, #112	; 0x70
 8017dcc:	9203      	str	r2, [sp, #12]
 8017dce:	aa1b      	add	r2, sp, #108	; 0x6c
 8017dd0:	9202      	str	r2, [sp, #8]
 8017dd2:	e88d 0048 	stmia.w	sp, {r3, r6}
 8017dd6:	9a0a      	ldr	r2, [sp, #40]	; 0x28
 8017dd8:	9b10      	ldr	r3, [sp, #64]	; 0x40
 8017dda:	4648      	mov	r0, r9
 8017ddc:	f000 ff1c 	bl	8018c18 <_dtoa_r>
 8017de0:	2f47      	cmp	r7, #71	; 0x47
 8017de2:	4680      	mov	r8, r0
 8017de4:	d103      	bne.n	8017dee <_vfprintf_r+0x4ba>
 8017de6:	f01a 0f01 	tst.w	sl, #1
 8017dea:	f000 8599 	beq.w	8018920 <_vfprintf_r+0xfec>
 8017dee:	eb08 0306 	add.w	r3, r8, r6
 8017df2:	2f46      	cmp	r7, #70	; 0x46
 8017df4:	9307      	str	r3, [sp, #28]
 8017df6:	d111      	bne.n	8017e1c <_vfprintf_r+0x4e8>
 8017df8:	f898 3000 	ldrb.w	r3, [r8]
 8017dfc:	2b30      	cmp	r3, #48	; 0x30
 8017dfe:	d109      	bne.n	8017e14 <_vfprintf_r+0x4e0>
 8017e00:	9a12      	ldr	r2, [sp, #72]	; 0x48
 8017e02:	9b13      	ldr	r3, [sp, #76]	; 0x4c
 8017e04:	980a      	ldr	r0, [sp, #40]	; 0x28
 8017e06:	9910      	ldr	r1, [sp, #64]	; 0x40
 8017e08:	f7f8 fe40 	bl	8010a8c <__aeabi_dcmpeq>
 8017e0c:	b910      	cbnz	r0, 8017e14 <_vfprintf_r+0x4e0>
 8017e0e:	f1c6 0601 	rsb	r6, r6, #1
 8017e12:	961b      	str	r6, [sp, #108]	; 0x6c
 8017e14:	9a07      	ldr	r2, [sp, #28]
 8017e16:	9b1b      	ldr	r3, [sp, #108]	; 0x6c
 8017e18:	441a      	add	r2, r3
 8017e1a:	9207      	str	r2, [sp, #28]
 8017e1c:	9a12      	ldr	r2, [sp, #72]	; 0x48
 8017e1e:	9b13      	ldr	r3, [sp, #76]	; 0x4c
 8017e20:	980a      	ldr	r0, [sp, #40]	; 0x28
 8017e22:	9910      	ldr	r1, [sp, #64]	; 0x40
 8017e24:	f7f8 fe32 	bl	8010a8c <__aeabi_dcmpeq>
 8017e28:	b990      	cbnz	r0, 8017e50 <_vfprintf_r+0x51c>
 8017e2a:	2230      	movs	r2, #48	; 0x30
 8017e2c:	9b1f      	ldr	r3, [sp, #124]	; 0x7c
 8017e2e:	9907      	ldr	r1, [sp, #28]
 8017e30:	4299      	cmp	r1, r3
 8017e32:	d90f      	bls.n	8017e54 <_vfprintf_r+0x520>
 8017e34:	1c59      	adds	r1, r3, #1
 8017e36:	911f      	str	r1, [sp, #124]	; 0x7c
 8017e38:	701a      	strb	r2, [r3, #0]
 8017e3a:	e7f7      	b.n	8017e2c <_vfprintf_r+0x4f8>
 8017e3c:	465e      	mov	r6, fp
 8017e3e:	e7bb      	b.n	8017db8 <_vfprintf_r+0x484>
 8017e40:	0801bb1a 	.word	0x0801bb1a
 8017e44:	7fefffff 	.word	0x7fefffff
 8017e48:	0801bb0a 	.word	0x0801bb0a
 8017e4c:	0801bb0e 	.word	0x0801bb0e
 8017e50:	9b07      	ldr	r3, [sp, #28]
 8017e52:	931f      	str	r3, [sp, #124]	; 0x7c
 8017e54:	9b1f      	ldr	r3, [sp, #124]	; 0x7c
 8017e56:	2f47      	cmp	r7, #71	; 0x47
 8017e58:	eba3 0308 	sub.w	r3, r3, r8
 8017e5c:	9307      	str	r3, [sp, #28]
 8017e5e:	f040 80fd 	bne.w	801805c <_vfprintf_r+0x728>
 8017e62:	9b1b      	ldr	r3, [sp, #108]	; 0x6c
 8017e64:	1cde      	adds	r6, r3, #3
 8017e66:	db02      	blt.n	8017e6e <_vfprintf_r+0x53a>
 8017e68:	459b      	cmp	fp, r3
 8017e6a:	f280 8126 	bge.w	80180ba <_vfprintf_r+0x786>
 8017e6e:	9b06      	ldr	r3, [sp, #24]
 8017e70:	3b02      	subs	r3, #2
 8017e72:	9306      	str	r3, [sp, #24]
 8017e74:	9a1b      	ldr	r2, [sp, #108]	; 0x6c
 8017e76:	f89d 1018 	ldrb.w	r1, [sp, #24]
 8017e7a:	1e53      	subs	r3, r2, #1
 8017e7c:	2b00      	cmp	r3, #0
 8017e7e:	bfa8      	it	ge
 8017e80:	222b      	movge	r2, #43	; 0x2b
 8017e82:	931b      	str	r3, [sp, #108]	; 0x6c
 8017e84:	bfbc      	itt	lt
 8017e86:	f1c2 0301 	rsblt	r3, r2, #1
 8017e8a:	222d      	movlt	r2, #45	; 0x2d
 8017e8c:	2b09      	cmp	r3, #9
 8017e8e:	f88d 1074 	strb.w	r1, [sp, #116]	; 0x74
 8017e92:	f88d 2075 	strb.w	r2, [sp, #117]	; 0x75
 8017e96:	f340 80ff 	ble.w	8018098 <_vfprintf_r+0x764>
 8017e9a:	260a      	movs	r6, #10
 8017e9c:	f10d 0283 	add.w	r2, sp, #131	; 0x83
 8017ea0:	fb93 f0f6 	sdiv	r0, r3, r6
 8017ea4:	fb06 3310 	mls	r3, r6, r0, r3
 8017ea8:	2809      	cmp	r0, #9
 8017eaa:	f103 0330 	add.w	r3, r3, #48	; 0x30
 8017eae:	f802 3c01 	strb.w	r3, [r2, #-1]
 8017eb2:	f102 31ff 	add.w	r1, r2, #4294967295
 8017eb6:	4603      	mov	r3, r0
 8017eb8:	f300 80e7 	bgt.w	801808a <_vfprintf_r+0x756>
 8017ebc:	3330      	adds	r3, #48	; 0x30
 8017ebe:	f801 3c01 	strb.w	r3, [r1, #-1]
 8017ec2:	3a02      	subs	r2, #2
 8017ec4:	f10d 0376 	add.w	r3, sp, #118	; 0x76
 8017ec8:	f10d 0083 	add.w	r0, sp, #131	; 0x83
 8017ecc:	4282      	cmp	r2, r0
 8017ece:	4619      	mov	r1, r3
 8017ed0:	f0c0 80dd 	bcc.w	801808e <_vfprintf_r+0x75a>
 8017ed4:	9a07      	ldr	r2, [sp, #28]
 8017ed6:	ab1d      	add	r3, sp, #116	; 0x74
 8017ed8:	1acb      	subs	r3, r1, r3
 8017eda:	2a01      	cmp	r2, #1
 8017edc:	9314      	str	r3, [sp, #80]	; 0x50
 8017ede:	eb03 0b02 	add.w	fp, r3, r2
 8017ee2:	dc03      	bgt.n	8017eec <_vfprintf_r+0x5b8>
 8017ee4:	f01a 0301 	ands.w	r3, sl, #1
 8017ee8:	930a      	str	r3, [sp, #40]	; 0x28
 8017eea:	d003      	beq.n	8017ef4 <_vfprintf_r+0x5c0>
 8017eec:	9b0b      	ldr	r3, [sp, #44]	; 0x2c
 8017eee:	449b      	add	fp, r3
 8017ef0:	2300      	movs	r3, #0
 8017ef2:	930a      	str	r3, [sp, #40]	; 0x28
 8017ef4:	9b16      	ldr	r3, [sp, #88]	; 0x58
 8017ef6:	b113      	cbz	r3, 8017efe <_vfprintf_r+0x5ca>
 8017ef8:	232d      	movs	r3, #45	; 0x2d
 8017efa:	f88d 3067 	strb.w	r3, [sp, #103]	; 0x67
 8017efe:	2600      	movs	r6, #0
 8017f00:	f8dd a05c 	ldr.w	sl, [sp, #92]	; 0x5c
 8017f04:	455e      	cmp	r6, fp
 8017f06:	4633      	mov	r3, r6
 8017f08:	bfb8      	it	lt
 8017f0a:	465b      	movlt	r3, fp
 8017f0c:	9310      	str	r3, [sp, #64]	; 0x40
 8017f0e:	f89d 3067 	ldrb.w	r3, [sp, #103]	; 0x67
 8017f12:	b113      	cbz	r3, 8017f1a <_vfprintf_r+0x5e6>
 8017f14:	9b10      	ldr	r3, [sp, #64]	; 0x40
 8017f16:	3301      	adds	r3, #1
 8017f18:	9310      	str	r3, [sp, #64]	; 0x40
 8017f1a:	f01a 0302 	ands.w	r3, sl, #2
 8017f1e:	9316      	str	r3, [sp, #88]	; 0x58
 8017f20:	bf1e      	ittt	ne
 8017f22:	9b10      	ldrne	r3, [sp, #64]	; 0x40
 8017f24:	3302      	addne	r3, #2
 8017f26:	9310      	strne	r3, [sp, #64]	; 0x40
 8017f28:	f01a 0384 	ands.w	r3, sl, #132	; 0x84
 8017f2c:	9317      	str	r3, [sp, #92]	; 0x5c
 8017f2e:	d114      	bne.n	8017f5a <_vfprintf_r+0x626>
 8017f30:	9b0d      	ldr	r3, [sp, #52]	; 0x34
 8017f32:	9a10      	ldr	r2, [sp, #64]	; 0x40
 8017f34:	1a9f      	subs	r7, r3, r2
 8017f36:	2f00      	cmp	r7, #0
 8017f38:	dd0f      	ble.n	8017f5a <_vfprintf_r+0x626>
 8017f3a:	4bac      	ldr	r3, [pc, #688]	; (80181ec <_vfprintf_r+0x8b8>)
 8017f3c:	2f10      	cmp	r7, #16
 8017f3e:	6023      	str	r3, [r4, #0]
 8017f40:	f300 81de 	bgt.w	8018300 <_vfprintf_r+0x9cc>
 8017f44:	9b23      	ldr	r3, [sp, #140]	; 0x8c
 8017f46:	6067      	str	r7, [r4, #4]
 8017f48:	441f      	add	r7, r3
 8017f4a:	9b22      	ldr	r3, [sp, #136]	; 0x88
 8017f4c:	9723      	str	r7, [sp, #140]	; 0x8c
 8017f4e:	3301      	adds	r3, #1
 8017f50:	2b07      	cmp	r3, #7
 8017f52:	9322      	str	r3, [sp, #136]	; 0x88
 8017f54:	f300 81eb 	bgt.w	801832e <_vfprintf_r+0x9fa>
 8017f58:	3408      	adds	r4, #8
 8017f5a:	f89d 3067 	ldrb.w	r3, [sp, #103]	; 0x67
 8017f5e:	b173      	cbz	r3, 8017f7e <_vfprintf_r+0x64a>
 8017f60:	f10d 0367 	add.w	r3, sp, #103	; 0x67
 8017f64:	6023      	str	r3, [r4, #0]
 8017f66:	2301      	movs	r3, #1
 8017f68:	6063      	str	r3, [r4, #4]
 8017f6a:	9b23      	ldr	r3, [sp, #140]	; 0x8c
 8017f6c:	3301      	adds	r3, #1
 8017f6e:	9323      	str	r3, [sp, #140]	; 0x8c
 8017f70:	9b22      	ldr	r3, [sp, #136]	; 0x88
 8017f72:	3301      	adds	r3, #1
 8017f74:	2b07      	cmp	r3, #7
 8017f76:	9322      	str	r3, [sp, #136]	; 0x88
 8017f78:	f300 81e3 	bgt.w	8018342 <_vfprintf_r+0xa0e>
 8017f7c:	3408      	adds	r4, #8
 8017f7e:	9b16      	ldr	r3, [sp, #88]	; 0x58
 8017f80:	b16b      	cbz	r3, 8017f9e <_vfprintf_r+0x66a>
 8017f82:	ab1a      	add	r3, sp, #104	; 0x68
 8017f84:	6023      	str	r3, [r4, #0]
 8017f86:	2302      	movs	r3, #2
 8017f88:	6063      	str	r3, [r4, #4]
 8017f8a:	9b23      	ldr	r3, [sp, #140]	; 0x8c
 8017f8c:	3302      	adds	r3, #2
 8017f8e:	9323      	str	r3, [sp, #140]	; 0x8c
 8017f90:	9b22      	ldr	r3, [sp, #136]	; 0x88
 8017f92:	3301      	adds	r3, #1
 8017f94:	2b07      	cmp	r3, #7
 8017f96:	9322      	str	r3, [sp, #136]	; 0x88
 8017f98:	f300 81dd 	bgt.w	8018356 <_vfprintf_r+0xa22>
 8017f9c:	3408      	adds	r4, #8
 8017f9e:	9b17      	ldr	r3, [sp, #92]	; 0x5c
 8017fa0:	2b80      	cmp	r3, #128	; 0x80
 8017fa2:	d114      	bne.n	8017fce <_vfprintf_r+0x69a>
 8017fa4:	9b0d      	ldr	r3, [sp, #52]	; 0x34
 8017fa6:	9a10      	ldr	r2, [sp, #64]	; 0x40
 8017fa8:	1a9f      	subs	r7, r3, r2
 8017faa:	2f00      	cmp	r7, #0
 8017fac:	dd0f      	ble.n	8017fce <_vfprintf_r+0x69a>
 8017fae:	4b90      	ldr	r3, [pc, #576]	; (80181f0 <_vfprintf_r+0x8bc>)
 8017fb0:	2f10      	cmp	r7, #16
 8017fb2:	6023      	str	r3, [r4, #0]
 8017fb4:	f300 81d9 	bgt.w	801836a <_vfprintf_r+0xa36>
 8017fb8:	9b23      	ldr	r3, [sp, #140]	; 0x8c
 8017fba:	6067      	str	r7, [r4, #4]
 8017fbc:	441f      	add	r7, r3
 8017fbe:	9b22      	ldr	r3, [sp, #136]	; 0x88
 8017fc0:	9723      	str	r7, [sp, #140]	; 0x8c
 8017fc2:	3301      	adds	r3, #1
 8017fc4:	2b07      	cmp	r3, #7
 8017fc6:	9322      	str	r3, [sp, #136]	; 0x88
 8017fc8:	f300 81e6 	bgt.w	8018398 <_vfprintf_r+0xa64>
 8017fcc:	3408      	adds	r4, #8
 8017fce:	eba6 060b 	sub.w	r6, r6, fp
 8017fd2:	2e00      	cmp	r6, #0
 8017fd4:	dd0f      	ble.n	8017ff6 <_vfprintf_r+0x6c2>
 8017fd6:	4f86      	ldr	r7, [pc, #536]	; (80181f0 <_vfprintf_r+0x8bc>)
 8017fd8:	2e10      	cmp	r6, #16
 8017fda:	6027      	str	r7, [r4, #0]
 8017fdc:	f300 81e6 	bgt.w	80183ac <_vfprintf_r+0xa78>
 8017fe0:	9b22      	ldr	r3, [sp, #136]	; 0x88
 8017fe2:	9823      	ldr	r0, [sp, #140]	; 0x8c
 8017fe4:	3301      	adds	r3, #1
 8017fe6:	6066      	str	r6, [r4, #4]
 8017fe8:	2b07      	cmp	r3, #7
 8017fea:	4406      	add	r6, r0
 8017fec:	9623      	str	r6, [sp, #140]	; 0x8c
 8017fee:	9322      	str	r3, [sp, #136]	; 0x88
 8017ff0:	f300 81f3 	bgt.w	80183da <_vfprintf_r+0xaa6>
 8017ff4:	3408      	adds	r4, #8
 8017ff6:	f41a 7f80 	tst.w	sl, #256	; 0x100
 8017ffa:	f040 81f8 	bne.w	80183ee <_vfprintf_r+0xaba>
 8017ffe:	9b23      	ldr	r3, [sp, #140]	; 0x8c
 8018000:	e884 0900 	stmia.w	r4, {r8, fp}
 8018004:	445b      	add	r3, fp
 8018006:	9323      	str	r3, [sp, #140]	; 0x8c
 8018008:	9b22      	ldr	r3, [sp, #136]	; 0x88
 801800a:	3301      	adds	r3, #1
 801800c:	2b07      	cmp	r3, #7
 801800e:	9322      	str	r3, [sp, #136]	; 0x88
 8018010:	f340 8428 	ble.w	8018864 <_vfprintf_r+0xf30>
 8018014:	aa21      	add	r2, sp, #132	; 0x84
 8018016:	4629      	mov	r1, r5
 8018018:	4648      	mov	r0, r9
 801801a:	f003 f802 	bl	801b022 <__sprint_r>
 801801e:	2800      	cmp	r0, #0
 8018020:	f040 8440 	bne.w	80188a4 <_vfprintf_r+0xf70>
 8018024:	ac2e      	add	r4, sp, #184	; 0xb8
 8018026:	f01a 0f04 	tst.w	sl, #4
 801802a:	f040 841e 	bne.w	801886a <_vfprintf_r+0xf36>
 801802e:	9b0c      	ldr	r3, [sp, #48]	; 0x30
 8018030:	9a0d      	ldr	r2, [sp, #52]	; 0x34
 8018032:	9910      	ldr	r1, [sp, #64]	; 0x40
 8018034:	428a      	cmp	r2, r1
 8018036:	bfac      	ite	ge
 8018038:	189b      	addge	r3, r3, r2
 801803a:	185b      	addlt	r3, r3, r1
 801803c:	930c      	str	r3, [sp, #48]	; 0x30
 801803e:	9b23      	ldr	r3, [sp, #140]	; 0x8c
 8018040:	b13b      	cbz	r3, 8018052 <_vfprintf_r+0x71e>
 8018042:	aa21      	add	r2, sp, #132	; 0x84
 8018044:	4629      	mov	r1, r5
 8018046:	4648      	mov	r0, r9
 8018048:	f002 ffeb 	bl	801b022 <__sprint_r>
 801804c:	2800      	cmp	r0, #0
 801804e:	f040 8429 	bne.w	80188a4 <_vfprintf_r+0xf70>
 8018052:	2300      	movs	r3, #0
 8018054:	9f08      	ldr	r7, [sp, #32]
 8018056:	9322      	str	r3, [sp, #136]	; 0x88
 8018058:	ac2e      	add	r4, sp, #184	; 0xb8
 801805a:	e4ea      	b.n	8017a32 <_vfprintf_r+0xfe>
 801805c:	9b06      	ldr	r3, [sp, #24]
 801805e:	2b65      	cmp	r3, #101	; 0x65
 8018060:	f77f af08 	ble.w	8017e74 <_vfprintf_r+0x540>
 8018064:	9b06      	ldr	r3, [sp, #24]
 8018066:	2b66      	cmp	r3, #102	; 0x66
 8018068:	d127      	bne.n	80180ba <_vfprintf_r+0x786>
 801806a:	9b1b      	ldr	r3, [sp, #108]	; 0x6c
 801806c:	2b00      	cmp	r3, #0
 801806e:	dd1b      	ble.n	80180a8 <_vfprintf_r+0x774>
 8018070:	f1bb 0f00 	cmp.w	fp, #0
 8018074:	d102      	bne.n	801807c <_vfprintf_r+0x748>
 8018076:	f01a 0f01 	tst.w	sl, #1
 801807a:	d002      	beq.n	8018082 <_vfprintf_r+0x74e>
 801807c:	9a0b      	ldr	r2, [sp, #44]	; 0x2c
 801807e:	4413      	add	r3, r2
 8018080:	445b      	add	r3, fp
 8018082:	9a1b      	ldr	r2, [sp, #108]	; 0x6c
 8018084:	469b      	mov	fp, r3
 8018086:	920a      	str	r2, [sp, #40]	; 0x28
 8018088:	e734      	b.n	8017ef4 <_vfprintf_r+0x5c0>
 801808a:	460a      	mov	r2, r1
 801808c:	e708      	b.n	8017ea0 <_vfprintf_r+0x56c>
 801808e:	f812 1b01 	ldrb.w	r1, [r2], #1
 8018092:	f803 1b01 	strb.w	r1, [r3], #1
 8018096:	e719      	b.n	8017ecc <_vfprintf_r+0x598>
 8018098:	2230      	movs	r2, #48	; 0x30
 801809a:	4413      	add	r3, r2
 801809c:	f88d 2076 	strb.w	r2, [sp, #118]	; 0x76
 80180a0:	f88d 3077 	strb.w	r3, [sp, #119]	; 0x77
 80180a4:	a91e      	add	r1, sp, #120	; 0x78
 80180a6:	e715      	b.n	8017ed4 <_vfprintf_r+0x5a0>
 80180a8:	f1bb 0f00 	cmp.w	fp, #0
 80180ac:	d102      	bne.n	80180b4 <_vfprintf_r+0x780>
 80180ae:	f01a 0f01 	tst.w	sl, #1
 80180b2:	d016      	beq.n	80180e2 <_vfprintf_r+0x7ae>
 80180b4:	9b0b      	ldr	r3, [sp, #44]	; 0x2c
 80180b6:	3301      	adds	r3, #1
 80180b8:	e7e2      	b.n	8018080 <_vfprintf_r+0x74c>
 80180ba:	9a1b      	ldr	r2, [sp, #108]	; 0x6c
 80180bc:	9b07      	ldr	r3, [sp, #28]
 80180be:	429a      	cmp	r2, r3
 80180c0:	db07      	blt.n	80180d2 <_vfprintf_r+0x79e>
 80180c2:	f01a 0f01 	tst.w	sl, #1
 80180c6:	d00e      	beq.n	80180e6 <_vfprintf_r+0x7b2>
 80180c8:	9b0b      	ldr	r3, [sp, #44]	; 0x2c
 80180ca:	4413      	add	r3, r2
 80180cc:	2267      	movs	r2, #103	; 0x67
 80180ce:	9206      	str	r2, [sp, #24]
 80180d0:	e7d7      	b.n	8018082 <_vfprintf_r+0x74e>
 80180d2:	9b07      	ldr	r3, [sp, #28]
 80180d4:	990b      	ldr	r1, [sp, #44]	; 0x2c
 80180d6:	2a00      	cmp	r2, #0
 80180d8:	440b      	add	r3, r1
 80180da:	dcf7      	bgt.n	80180cc <_vfprintf_r+0x798>
 80180dc:	f1c2 0201 	rsb	r2, r2, #1
 80180e0:	e7f3      	b.n	80180ca <_vfprintf_r+0x796>
 80180e2:	2301      	movs	r3, #1
 80180e4:	e7cd      	b.n	8018082 <_vfprintf_r+0x74e>
 80180e6:	4613      	mov	r3, r2
 80180e8:	e7f0      	b.n	80180cc <_vfprintf_r+0x798>
 80180ea:	b10b      	cbz	r3, 80180f0 <_vfprintf_r+0x7bc>
 80180ec:	f88d 2067 	strb.w	r2, [sp, #103]	; 0x67
 80180f0:	f01a 0f20 	tst.w	sl, #32
 80180f4:	f107 0304 	add.w	r3, r7, #4
 80180f8:	d008      	beq.n	801810c <_vfprintf_r+0x7d8>
 80180fa:	990c      	ldr	r1, [sp, #48]	; 0x30
 80180fc:	683a      	ldr	r2, [r7, #0]
 80180fe:	17cf      	asrs	r7, r1, #31
 8018100:	4608      	mov	r0, r1
 8018102:	4639      	mov	r1, r7
 8018104:	e9c2 0100 	strd	r0, r1, [r2]
 8018108:	461f      	mov	r7, r3
 801810a:	e492      	b.n	8017a32 <_vfprintf_r+0xfe>
 801810c:	f01a 0f10 	tst.w	sl, #16
 8018110:	d003      	beq.n	801811a <_vfprintf_r+0x7e6>
 8018112:	683a      	ldr	r2, [r7, #0]
 8018114:	990c      	ldr	r1, [sp, #48]	; 0x30
 8018116:	6011      	str	r1, [r2, #0]
 8018118:	e7f6      	b.n	8018108 <_vfprintf_r+0x7d4>
 801811a:	f01a 0f40 	tst.w	sl, #64	; 0x40
 801811e:	d0f8      	beq.n	8018112 <_vfprintf_r+0x7de>
 8018120:	683a      	ldr	r2, [r7, #0]
 8018122:	f8bd 1030 	ldrh.w	r1, [sp, #48]	; 0x30
 8018126:	8011      	strh	r1, [r2, #0]
 8018128:	e7ee      	b.n	8018108 <_vfprintf_r+0x7d4>
 801812a:	f04a 0a10 	orr.w	sl, sl, #16
 801812e:	f01a 0320 	ands.w	r3, sl, #32
 8018132:	d022      	beq.n	801817a <_vfprintf_r+0x846>
 8018134:	3707      	adds	r7, #7
 8018136:	f027 0707 	bic.w	r7, r7, #7
 801813a:	f107 0308 	add.w	r3, r7, #8
 801813e:	9308      	str	r3, [sp, #32]
 8018140:	e9d7 6700 	ldrd	r6, r7, [r7]
 8018144:	2300      	movs	r3, #0
 8018146:	2200      	movs	r2, #0
 8018148:	f88d 2067 	strb.w	r2, [sp, #103]	; 0x67
 801814c:	f1bb 3fff 	cmp.w	fp, #4294967295
 8018150:	f000 83eb 	beq.w	801892a <_vfprintf_r+0xff6>
 8018154:	f02a 0280 	bic.w	r2, sl, #128	; 0x80
 8018158:	920a      	str	r2, [sp, #40]	; 0x28
 801815a:	ea56 0207 	orrs.w	r2, r6, r7
 801815e:	f040 83ea 	bne.w	8018936 <_vfprintf_r+0x1002>
 8018162:	f1bb 0f00 	cmp.w	fp, #0
 8018166:	f000 80ac 	beq.w	80182c2 <_vfprintf_r+0x98e>
 801816a:	2b01      	cmp	r3, #1
 801816c:	d078      	beq.n	8018260 <_vfprintf_r+0x92c>
 801816e:	2b02      	cmp	r3, #2
 8018170:	f000 8093 	beq.w	801829a <_vfprintf_r+0x966>
 8018174:	2600      	movs	r6, #0
 8018176:	2700      	movs	r7, #0
 8018178:	e3e3      	b.n	8018942 <_vfprintf_r+0x100e>
 801817a:	1d3a      	adds	r2, r7, #4
 801817c:	f01a 0110 	ands.w	r1, sl, #16
 8018180:	9208      	str	r2, [sp, #32]
 8018182:	d002      	beq.n	801818a <_vfprintf_r+0x856>
 8018184:	683e      	ldr	r6, [r7, #0]
 8018186:	2700      	movs	r7, #0
 8018188:	e7dd      	b.n	8018146 <_vfprintf_r+0x812>
 801818a:	f01a 0340 	ands.w	r3, sl, #64	; 0x40
 801818e:	d0f9      	beq.n	8018184 <_vfprintf_r+0x850>
 8018190:	883e      	ldrh	r6, [r7, #0]
 8018192:	2700      	movs	r7, #0
 8018194:	e7d6      	b.n	8018144 <_vfprintf_r+0x810>
 8018196:	1d3b      	adds	r3, r7, #4
 8018198:	9308      	str	r3, [sp, #32]
 801819a:	2330      	movs	r3, #48	; 0x30
 801819c:	2278      	movs	r2, #120	; 0x78
 801819e:	f88d 3068 	strb.w	r3, [sp, #104]	; 0x68
 80181a2:	4b14      	ldr	r3, [pc, #80]	; (80181f4 <_vfprintf_r+0x8c0>)
 80181a4:	683e      	ldr	r6, [r7, #0]
 80181a6:	9315      	str	r3, [sp, #84]	; 0x54
 80181a8:	2700      	movs	r7, #0
 80181aa:	f04a 0a02 	orr.w	sl, sl, #2
 80181ae:	f88d 2069 	strb.w	r2, [sp, #105]	; 0x69
 80181b2:	2302      	movs	r3, #2
 80181b4:	9206      	str	r2, [sp, #24]
 80181b6:	e7c6      	b.n	8018146 <_vfprintf_r+0x812>
 80181b8:	2600      	movs	r6, #0
 80181ba:	1d3b      	adds	r3, r7, #4
 80181bc:	f1bb 3fff 	cmp.w	fp, #4294967295
 80181c0:	9308      	str	r3, [sp, #32]
 80181c2:	f8d7 8000 	ldr.w	r8, [r7]
 80181c6:	f88d 6067 	strb.w	r6, [sp, #103]	; 0x67
 80181ca:	d00a      	beq.n	80181e2 <_vfprintf_r+0x8ae>
 80181cc:	465a      	mov	r2, fp
 80181ce:	4631      	mov	r1, r6
 80181d0:	4640      	mov	r0, r8
 80181d2:	f002 f9d1 	bl	801a578 <memchr>
 80181d6:	2800      	cmp	r0, #0
 80181d8:	f000 8090 	beq.w	80182fc <_vfprintf_r+0x9c8>
 80181dc:	eba0 0b08 	sub.w	fp, r0, r8
 80181e0:	e5c0      	b.n	8017d64 <_vfprintf_r+0x430>
 80181e2:	4640      	mov	r0, r8
 80181e4:	f7f8 f82a 	bl	801023c <strlen>
 80181e8:	4683      	mov	fp, r0
 80181ea:	e5bb      	b.n	8017d64 <_vfprintf_r+0x430>
 80181ec:	0801bb83 	.word	0x0801bb83
 80181f0:	0801bb93 	.word	0x0801bb93
 80181f4:	0801bb2b 	.word	0x0801bb2b
 80181f8:	f04a 0a10 	orr.w	sl, sl, #16
 80181fc:	f01a 0f20 	tst.w	sl, #32
 8018200:	d009      	beq.n	8018216 <_vfprintf_r+0x8e2>
 8018202:	3707      	adds	r7, #7
 8018204:	f027 0707 	bic.w	r7, r7, #7
 8018208:	f107 0308 	add.w	r3, r7, #8
 801820c:	9308      	str	r3, [sp, #32]
 801820e:	e9d7 6700 	ldrd	r6, r7, [r7]
 8018212:	2301      	movs	r3, #1
 8018214:	e797      	b.n	8018146 <_vfprintf_r+0x812>
 8018216:	1d3b      	adds	r3, r7, #4
 8018218:	f01a 0f10 	tst.w	sl, #16
 801821c:	9308      	str	r3, [sp, #32]
 801821e:	d001      	beq.n	8018224 <_vfprintf_r+0x8f0>
 8018220:	683e      	ldr	r6, [r7, #0]
 8018222:	e003      	b.n	801822c <_vfprintf_r+0x8f8>
 8018224:	f01a 0f40 	tst.w	sl, #64	; 0x40
 8018228:	d0fa      	beq.n	8018220 <_vfprintf_r+0x8ec>
 801822a:	883e      	ldrh	r6, [r7, #0]
 801822c:	2700      	movs	r7, #0
 801822e:	e7f0      	b.n	8018212 <_vfprintf_r+0x8de>
 8018230:	b10b      	cbz	r3, 8018236 <_vfprintf_r+0x902>
 8018232:	f88d 2067 	strb.w	r2, [sp, #103]	; 0x67
 8018236:	4ba3      	ldr	r3, [pc, #652]	; (80184c4 <_vfprintf_r+0xb90>)
 8018238:	e4be      	b.n	8017bb8 <_vfprintf_r+0x284>
 801823a:	1d3b      	adds	r3, r7, #4
 801823c:	f01a 0f10 	tst.w	sl, #16
 8018240:	9308      	str	r3, [sp, #32]
 8018242:	d001      	beq.n	8018248 <_vfprintf_r+0x914>
 8018244:	683e      	ldr	r6, [r7, #0]
 8018246:	e003      	b.n	8018250 <_vfprintf_r+0x91c>
 8018248:	f01a 0f40 	tst.w	sl, #64	; 0x40
 801824c:	d0fa      	beq.n	8018244 <_vfprintf_r+0x910>
 801824e:	883e      	ldrh	r6, [r7, #0]
 8018250:	2700      	movs	r7, #0
 8018252:	e4be      	b.n	8017bd2 <_vfprintf_r+0x29e>
 8018254:	4643      	mov	r3, r8
 8018256:	e375      	b.n	8018944 <_vfprintf_r+0x1010>
 8018258:	2f00      	cmp	r7, #0
 801825a:	bf08      	it	eq
 801825c:	2e0a      	cmpeq	r6, #10
 801825e:	d205      	bcs.n	801826c <_vfprintf_r+0x938>
 8018260:	3630      	adds	r6, #48	; 0x30
 8018262:	f10d 08f8 	add.w	r8, sp, #248	; 0xf8
 8018266:	f808 6d41 	strb.w	r6, [r8, #-65]!
 801826a:	e386      	b.n	801897a <_vfprintf_r+0x1046>
 801826c:	f10d 08b8 	add.w	r8, sp, #184	; 0xb8
 8018270:	4630      	mov	r0, r6
 8018272:	4639      	mov	r1, r7
 8018274:	220a      	movs	r2, #10
 8018276:	2300      	movs	r3, #0
 8018278:	f7f8 fc78 	bl	8010b6c <__aeabi_uldivmod>
 801827c:	3230      	adds	r2, #48	; 0x30
 801827e:	f808 2d01 	strb.w	r2, [r8, #-1]!
 8018282:	2300      	movs	r3, #0
 8018284:	4630      	mov	r0, r6
 8018286:	4639      	mov	r1, r7
 8018288:	220a      	movs	r2, #10
 801828a:	f7f8 fc6f 	bl	8010b6c <__aeabi_uldivmod>
 801828e:	4606      	mov	r6, r0
 8018290:	460f      	mov	r7, r1
 8018292:	ea56 0307 	orrs.w	r3, r6, r7
 8018296:	d1eb      	bne.n	8018270 <_vfprintf_r+0x93c>
 8018298:	e36f      	b.n	801897a <_vfprintf_r+0x1046>
 801829a:	2600      	movs	r6, #0
 801829c:	2700      	movs	r7, #0
 801829e:	f10d 08b8 	add.w	r8, sp, #184	; 0xb8
 80182a2:	9a15      	ldr	r2, [sp, #84]	; 0x54
 80182a4:	f006 030f 	and.w	r3, r6, #15
 80182a8:	5cd3      	ldrb	r3, [r2, r3]
 80182aa:	093a      	lsrs	r2, r7, #4
 80182ac:	f808 3d01 	strb.w	r3, [r8, #-1]!
 80182b0:	0933      	lsrs	r3, r6, #4
 80182b2:	ea43 7307 	orr.w	r3, r3, r7, lsl #28
 80182b6:	461e      	mov	r6, r3
 80182b8:	4617      	mov	r7, r2
 80182ba:	ea56 0307 	orrs.w	r3, r6, r7
 80182be:	d1f0      	bne.n	80182a2 <_vfprintf_r+0x96e>
 80182c0:	e35b      	b.n	801897a <_vfprintf_r+0x1046>
 80182c2:	b943      	cbnz	r3, 80182d6 <_vfprintf_r+0x9a2>
 80182c4:	f01a 0f01 	tst.w	sl, #1
 80182c8:	d005      	beq.n	80182d6 <_vfprintf_r+0x9a2>
 80182ca:	2330      	movs	r3, #48	; 0x30
 80182cc:	f10d 08f8 	add.w	r8, sp, #248	; 0xf8
 80182d0:	f808 3d41 	strb.w	r3, [r8, #-65]!
 80182d4:	e351      	b.n	801897a <_vfprintf_r+0x1046>
 80182d6:	f10d 08b8 	add.w	r8, sp, #184	; 0xb8
 80182da:	e34e      	b.n	801897a <_vfprintf_r+0x1046>
 80182dc:	b10b      	cbz	r3, 80182e2 <_vfprintf_r+0x9ae>
 80182de:	f88d 2067 	strb.w	r2, [sp, #103]	; 0x67
 80182e2:	9b06      	ldr	r3, [sp, #24]
 80182e4:	2b00      	cmp	r3, #0
 80182e6:	f000 8301 	beq.w	80188ec <_vfprintf_r+0xfb8>
 80182ea:	2600      	movs	r6, #0
 80182ec:	f89d 3018 	ldrb.w	r3, [sp, #24]
 80182f0:	f88d 6067 	strb.w	r6, [sp, #103]	; 0x67
 80182f4:	f88d 3090 	strb.w	r3, [sp, #144]	; 0x90
 80182f8:	9708      	str	r7, [sp, #32]
 80182fa:	e4dc      	b.n	8017cb6 <_vfprintf_r+0x382>
 80182fc:	4606      	mov	r6, r0
 80182fe:	e531      	b.n	8017d64 <_vfprintf_r+0x430>
 8018300:	2310      	movs	r3, #16
 8018302:	6063      	str	r3, [r4, #4]
 8018304:	9b23      	ldr	r3, [sp, #140]	; 0x8c
 8018306:	3310      	adds	r3, #16
 8018308:	9323      	str	r3, [sp, #140]	; 0x8c
 801830a:	9b22      	ldr	r3, [sp, #136]	; 0x88
 801830c:	3301      	adds	r3, #1
 801830e:	2b07      	cmp	r3, #7
 8018310:	9322      	str	r3, [sp, #136]	; 0x88
 8018312:	dc02      	bgt.n	801831a <_vfprintf_r+0x9e6>
 8018314:	3408      	adds	r4, #8
 8018316:	3f10      	subs	r7, #16
 8018318:	e60f      	b.n	8017f3a <_vfprintf_r+0x606>
 801831a:	aa21      	add	r2, sp, #132	; 0x84
 801831c:	4629      	mov	r1, r5
 801831e:	4648      	mov	r0, r9
 8018320:	f002 fe7f 	bl	801b022 <__sprint_r>
 8018324:	2800      	cmp	r0, #0
 8018326:	f040 82bd 	bne.w	80188a4 <_vfprintf_r+0xf70>
 801832a:	ac2e      	add	r4, sp, #184	; 0xb8
 801832c:	e7f3      	b.n	8018316 <_vfprintf_r+0x9e2>
 801832e:	aa21      	add	r2, sp, #132	; 0x84
 8018330:	4629      	mov	r1, r5
 8018332:	4648      	mov	r0, r9
 8018334:	f002 fe75 	bl	801b022 <__sprint_r>
 8018338:	2800      	cmp	r0, #0
 801833a:	f040 82b3 	bne.w	80188a4 <_vfprintf_r+0xf70>
 801833e:	ac2e      	add	r4, sp, #184	; 0xb8
 8018340:	e60b      	b.n	8017f5a <_vfprintf_r+0x626>
 8018342:	aa21      	add	r2, sp, #132	; 0x84
 8018344:	4629      	mov	r1, r5
 8018346:	4648      	mov	r0, r9
 8018348:	f002 fe6b 	bl	801b022 <__sprint_r>
 801834c:	2800      	cmp	r0, #0
 801834e:	f040 82a9 	bne.w	80188a4 <_vfprintf_r+0xf70>
 8018352:	ac2e      	add	r4, sp, #184	; 0xb8
 8018354:	e613      	b.n	8017f7e <_vfprintf_r+0x64a>
 8018356:	aa21      	add	r2, sp, #132	; 0x84
 8018358:	4629      	mov	r1, r5
 801835a:	4648      	mov	r0, r9
 801835c:	f002 fe61 	bl	801b022 <__sprint_r>
 8018360:	2800      	cmp	r0, #0
 8018362:	f040 829f 	bne.w	80188a4 <_vfprintf_r+0xf70>
 8018366:	ac2e      	add	r4, sp, #184	; 0xb8
 8018368:	e619      	b.n	8017f9e <_vfprintf_r+0x66a>
 801836a:	2310      	movs	r3, #16
 801836c:	6063      	str	r3, [r4, #4]
 801836e:	9b23      	ldr	r3, [sp, #140]	; 0x8c
 8018370:	3310      	adds	r3, #16
 8018372:	9323      	str	r3, [sp, #140]	; 0x8c
 8018374:	9b22      	ldr	r3, [sp, #136]	; 0x88
 8018376:	3301      	adds	r3, #1
 8018378:	2b07      	cmp	r3, #7
 801837a:	9322      	str	r3, [sp, #136]	; 0x88
 801837c:	dc02      	bgt.n	8018384 <_vfprintf_r+0xa50>
 801837e:	3408      	adds	r4, #8
 8018380:	3f10      	subs	r7, #16
 8018382:	e614      	b.n	8017fae <_vfprintf_r+0x67a>
 8018384:	aa21      	add	r2, sp, #132	; 0x84
 8018386:	4629      	mov	r1, r5
 8018388:	4648      	mov	r0, r9
 801838a:	f002 fe4a 	bl	801b022 <__sprint_r>
 801838e:	2800      	cmp	r0, #0
 8018390:	f040 8288 	bne.w	80188a4 <_vfprintf_r+0xf70>
 8018394:	ac2e      	add	r4, sp, #184	; 0xb8
 8018396:	e7f3      	b.n	8018380 <_vfprintf_r+0xa4c>
 8018398:	aa21      	add	r2, sp, #132	; 0x84
 801839a:	4629      	mov	r1, r5
 801839c:	4648      	mov	r0, r9
 801839e:	f002 fe40 	bl	801b022 <__sprint_r>
 80183a2:	2800      	cmp	r0, #0
 80183a4:	f040 827e 	bne.w	80188a4 <_vfprintf_r+0xf70>
 80183a8:	ac2e      	add	r4, sp, #184	; 0xb8
 80183aa:	e610      	b.n	8017fce <_vfprintf_r+0x69a>
 80183ac:	2310      	movs	r3, #16
 80183ae:	6063      	str	r3, [r4, #4]
 80183b0:	9b23      	ldr	r3, [sp, #140]	; 0x8c
 80183b2:	3310      	adds	r3, #16
 80183b4:	9323      	str	r3, [sp, #140]	; 0x8c
 80183b6:	9b22      	ldr	r3, [sp, #136]	; 0x88
 80183b8:	3301      	adds	r3, #1
 80183ba:	2b07      	cmp	r3, #7
 80183bc:	9322      	str	r3, [sp, #136]	; 0x88
 80183be:	dc02      	bgt.n	80183c6 <_vfprintf_r+0xa92>
 80183c0:	3408      	adds	r4, #8
 80183c2:	3e10      	subs	r6, #16
 80183c4:	e608      	b.n	8017fd8 <_vfprintf_r+0x6a4>
 80183c6:	aa21      	add	r2, sp, #132	; 0x84
 80183c8:	4629      	mov	r1, r5
 80183ca:	4648      	mov	r0, r9
 80183cc:	f002 fe29 	bl	801b022 <__sprint_r>
 80183d0:	2800      	cmp	r0, #0
 80183d2:	f040 8267 	bne.w	80188a4 <_vfprintf_r+0xf70>
 80183d6:	ac2e      	add	r4, sp, #184	; 0xb8
 80183d8:	e7f3      	b.n	80183c2 <_vfprintf_r+0xa8e>
 80183da:	aa21      	add	r2, sp, #132	; 0x84
 80183dc:	4629      	mov	r1, r5
 80183de:	4648      	mov	r0, r9
 80183e0:	f002 fe1f 	bl	801b022 <__sprint_r>
 80183e4:	2800      	cmp	r0, #0
 80183e6:	f040 825d 	bne.w	80188a4 <_vfprintf_r+0xf70>
 80183ea:	ac2e      	add	r4, sp, #184	; 0xb8
 80183ec:	e603      	b.n	8017ff6 <_vfprintf_r+0x6c2>
 80183ee:	9b06      	ldr	r3, [sp, #24]
 80183f0:	2b65      	cmp	r3, #101	; 0x65
 80183f2:	f340 81b1 	ble.w	8018758 <_vfprintf_r+0xe24>
 80183f6:	9a12      	ldr	r2, [sp, #72]	; 0x48
 80183f8:	9b13      	ldr	r3, [sp, #76]	; 0x4c
 80183fa:	980e      	ldr	r0, [sp, #56]	; 0x38
 80183fc:	990f      	ldr	r1, [sp, #60]	; 0x3c
 80183fe:	f7f8 fb45 	bl	8010a8c <__aeabi_dcmpeq>
 8018402:	2800      	cmp	r0, #0
 8018404:	d064      	beq.n	80184d0 <_vfprintf_r+0xb9c>
 8018406:	4b30      	ldr	r3, [pc, #192]	; (80184c8 <_vfprintf_r+0xb94>)
 8018408:	6023      	str	r3, [r4, #0]
 801840a:	2301      	movs	r3, #1
 801840c:	6063      	str	r3, [r4, #4]
 801840e:	9b23      	ldr	r3, [sp, #140]	; 0x8c
 8018410:	3301      	adds	r3, #1
 8018412:	9323      	str	r3, [sp, #140]	; 0x8c
 8018414:	9b22      	ldr	r3, [sp, #136]	; 0x88
 8018416:	3301      	adds	r3, #1
 8018418:	2b07      	cmp	r3, #7
 801841a:	9322      	str	r3, [sp, #136]	; 0x88
 801841c:	dc26      	bgt.n	801846c <_vfprintf_r+0xb38>
 801841e:	3408      	adds	r4, #8
 8018420:	9b1b      	ldr	r3, [sp, #108]	; 0x6c
 8018422:	9a07      	ldr	r2, [sp, #28]
 8018424:	4293      	cmp	r3, r2
 8018426:	db03      	blt.n	8018430 <_vfprintf_r+0xafc>
 8018428:	f01a 0f01 	tst.w	sl, #1
 801842c:	f43f adfb 	beq.w	8018026 <_vfprintf_r+0x6f2>
 8018430:	9b11      	ldr	r3, [sp, #68]	; 0x44
 8018432:	9a0b      	ldr	r2, [sp, #44]	; 0x2c
 8018434:	6023      	str	r3, [r4, #0]
 8018436:	9b0b      	ldr	r3, [sp, #44]	; 0x2c
 8018438:	6063      	str	r3, [r4, #4]
 801843a:	9b23      	ldr	r3, [sp, #140]	; 0x8c
 801843c:	4413      	add	r3, r2
 801843e:	9323      	str	r3, [sp, #140]	; 0x8c
 8018440:	9b22      	ldr	r3, [sp, #136]	; 0x88
 8018442:	3301      	adds	r3, #1
 8018444:	2b07      	cmp	r3, #7
 8018446:	9322      	str	r3, [sp, #136]	; 0x88
 8018448:	dc1a      	bgt.n	8018480 <_vfprintf_r+0xb4c>
 801844a:	3408      	adds	r4, #8
 801844c:	9b07      	ldr	r3, [sp, #28]
 801844e:	1e5e      	subs	r6, r3, #1
 8018450:	2e00      	cmp	r6, #0
 8018452:	f77f ade8 	ble.w	8018026 <_vfprintf_r+0x6f2>
 8018456:	f04f 0810 	mov.w	r8, #16
 801845a:	4f1c      	ldr	r7, [pc, #112]	; (80184cc <_vfprintf_r+0xb98>)
 801845c:	2e10      	cmp	r6, #16
 801845e:	6027      	str	r7, [r4, #0]
 8018460:	dc18      	bgt.n	8018494 <_vfprintf_r+0xb60>
 8018462:	6066      	str	r6, [r4, #4]
 8018464:	9b23      	ldr	r3, [sp, #140]	; 0x8c
 8018466:	441e      	add	r6, r3
 8018468:	9623      	str	r6, [sp, #140]	; 0x8c
 801846a:	e5cd      	b.n	8018008 <_vfprintf_r+0x6d4>
 801846c:	aa21      	add	r2, sp, #132	; 0x84
 801846e:	4629      	mov	r1, r5
 8018470:	4648      	mov	r0, r9
 8018472:	f002 fdd6 	bl	801b022 <__sprint_r>
 8018476:	2800      	cmp	r0, #0
 8018478:	f040 8214 	bne.w	80188a4 <_vfprintf_r+0xf70>
 801847c:	ac2e      	add	r4, sp, #184	; 0xb8
 801847e:	e7cf      	b.n	8018420 <_vfprintf_r+0xaec>
 8018480:	aa21      	add	r2, sp, #132	; 0x84
 8018482:	4629      	mov	r1, r5
 8018484:	4648      	mov	r0, r9
 8018486:	f002 fdcc 	bl	801b022 <__sprint_r>
 801848a:	2800      	cmp	r0, #0
 801848c:	f040 820a 	bne.w	80188a4 <_vfprintf_r+0xf70>
 8018490:	ac2e      	add	r4, sp, #184	; 0xb8
 8018492:	e7db      	b.n	801844c <_vfprintf_r+0xb18>
 8018494:	9b23      	ldr	r3, [sp, #140]	; 0x8c
 8018496:	f8c4 8004 	str.w	r8, [r4, #4]
 801849a:	3310      	adds	r3, #16
 801849c:	9323      	str	r3, [sp, #140]	; 0x8c
 801849e:	9b22      	ldr	r3, [sp, #136]	; 0x88
 80184a0:	3301      	adds	r3, #1
 80184a2:	2b07      	cmp	r3, #7
 80184a4:	9322      	str	r3, [sp, #136]	; 0x88
 80184a6:	dc02      	bgt.n	80184ae <_vfprintf_r+0xb7a>
 80184a8:	3408      	adds	r4, #8
 80184aa:	3e10      	subs	r6, #16
 80184ac:	e7d6      	b.n	801845c <_vfprintf_r+0xb28>
 80184ae:	aa21      	add	r2, sp, #132	; 0x84
 80184b0:	4629      	mov	r1, r5
 80184b2:	4648      	mov	r0, r9
 80184b4:	f002 fdb5 	bl	801b022 <__sprint_r>
 80184b8:	2800      	cmp	r0, #0
 80184ba:	f040 81f3 	bne.w	80188a4 <_vfprintf_r+0xf70>
 80184be:	ac2e      	add	r4, sp, #184	; 0xb8
 80184c0:	e7f3      	b.n	80184aa <_vfprintf_r+0xb76>
 80184c2:	bf00      	nop
 80184c4:	0801bb2b 	.word	0x0801bb2b
 80184c8:	0801bb3c 	.word	0x0801bb3c
 80184cc:	0801bb93 	.word	0x0801bb93
 80184d0:	9b1b      	ldr	r3, [sp, #108]	; 0x6c
 80184d2:	2b00      	cmp	r3, #0
 80184d4:	dc7b      	bgt.n	80185ce <_vfprintf_r+0xc9a>
 80184d6:	4b9e      	ldr	r3, [pc, #632]	; (8018750 <_vfprintf_r+0xe1c>)
 80184d8:	6023      	str	r3, [r4, #0]
 80184da:	2301      	movs	r3, #1
 80184dc:	6063      	str	r3, [r4, #4]
 80184de:	9b23      	ldr	r3, [sp, #140]	; 0x8c
 80184e0:	3301      	adds	r3, #1
 80184e2:	9323      	str	r3, [sp, #140]	; 0x8c
 80184e4:	9b22      	ldr	r3, [sp, #136]	; 0x88
 80184e6:	3301      	adds	r3, #1
 80184e8:	2b07      	cmp	r3, #7
 80184ea:	9322      	str	r3, [sp, #136]	; 0x88
 80184ec:	dc45      	bgt.n	801857a <_vfprintf_r+0xc46>
 80184ee:	3408      	adds	r4, #8
 80184f0:	9b1b      	ldr	r3, [sp, #108]	; 0x6c
 80184f2:	b92b      	cbnz	r3, 8018500 <_vfprintf_r+0xbcc>
 80184f4:	9b07      	ldr	r3, [sp, #28]
 80184f6:	b91b      	cbnz	r3, 8018500 <_vfprintf_r+0xbcc>
 80184f8:	f01a 0f01 	tst.w	sl, #1
 80184fc:	f43f ad93 	beq.w	8018026 <_vfprintf_r+0x6f2>
 8018500:	9b11      	ldr	r3, [sp, #68]	; 0x44
 8018502:	9a0b      	ldr	r2, [sp, #44]	; 0x2c
 8018504:	6023      	str	r3, [r4, #0]
 8018506:	9b0b      	ldr	r3, [sp, #44]	; 0x2c
 8018508:	6063      	str	r3, [r4, #4]
 801850a:	9b23      	ldr	r3, [sp, #140]	; 0x8c
 801850c:	4413      	add	r3, r2
 801850e:	9323      	str	r3, [sp, #140]	; 0x8c
 8018510:	9b22      	ldr	r3, [sp, #136]	; 0x88
 8018512:	3301      	adds	r3, #1
 8018514:	2b07      	cmp	r3, #7
 8018516:	9322      	str	r3, [sp, #136]	; 0x88
 8018518:	dc39      	bgt.n	801858e <_vfprintf_r+0xc5a>
 801851a:	f104 0308 	add.w	r3, r4, #8
 801851e:	9e1b      	ldr	r6, [sp, #108]	; 0x6c
 8018520:	2e00      	cmp	r6, #0
 8018522:	da19      	bge.n	8018558 <_vfprintf_r+0xc24>
 8018524:	2410      	movs	r4, #16
 8018526:	4f8b      	ldr	r7, [pc, #556]	; (8018754 <_vfprintf_r+0xe20>)
 8018528:	4276      	negs	r6, r6
 801852a:	2e10      	cmp	r6, #16
 801852c:	601f      	str	r7, [r3, #0]
 801852e:	dc38      	bgt.n	80185a2 <_vfprintf_r+0xc6e>
 8018530:	9a23      	ldr	r2, [sp, #140]	; 0x8c
 8018532:	605e      	str	r6, [r3, #4]
 8018534:	4416      	add	r6, r2
 8018536:	9a22      	ldr	r2, [sp, #136]	; 0x88
 8018538:	9623      	str	r6, [sp, #140]	; 0x8c
 801853a:	3201      	adds	r2, #1
 801853c:	2a07      	cmp	r2, #7
 801853e:	f103 0308 	add.w	r3, r3, #8
 8018542:	9222      	str	r2, [sp, #136]	; 0x88
 8018544:	dd08      	ble.n	8018558 <_vfprintf_r+0xc24>
 8018546:	aa21      	add	r2, sp, #132	; 0x84
 8018548:	4629      	mov	r1, r5
 801854a:	4648      	mov	r0, r9
 801854c:	f002 fd69 	bl	801b022 <__sprint_r>
 8018550:	2800      	cmp	r0, #0
 8018552:	f040 81a7 	bne.w	80188a4 <_vfprintf_r+0xf70>
 8018556:	ab2e      	add	r3, sp, #184	; 0xb8
 8018558:	9a07      	ldr	r2, [sp, #28]
 801855a:	9907      	ldr	r1, [sp, #28]
 801855c:	605a      	str	r2, [r3, #4]
 801855e:	9a23      	ldr	r2, [sp, #140]	; 0x8c
 8018560:	f8c3 8000 	str.w	r8, [r3]
 8018564:	440a      	add	r2, r1
 8018566:	9223      	str	r2, [sp, #140]	; 0x8c
 8018568:	9a22      	ldr	r2, [sp, #136]	; 0x88
 801856a:	3201      	adds	r2, #1
 801856c:	2a07      	cmp	r2, #7
 801856e:	9222      	str	r2, [sp, #136]	; 0x88
 8018570:	f73f ad50 	bgt.w	8018014 <_vfprintf_r+0x6e0>
 8018574:	f103 0408 	add.w	r4, r3, #8
 8018578:	e555      	b.n	8018026 <_vfprintf_r+0x6f2>
 801857a:	aa21      	add	r2, sp, #132	; 0x84
 801857c:	4629      	mov	r1, r5
 801857e:	4648      	mov	r0, r9
 8018580:	f002 fd4f 	bl	801b022 <__sprint_r>
 8018584:	2800      	cmp	r0, #0
 8018586:	f040 818d 	bne.w	80188a4 <_vfprintf_r+0xf70>
 801858a:	ac2e      	add	r4, sp, #184	; 0xb8
 801858c:	e7b0      	b.n	80184f0 <_vfprintf_r+0xbbc>
 801858e:	aa21      	add	r2, sp, #132	; 0x84
 8018590:	4629      	mov	r1, r5
 8018592:	4648      	mov	r0, r9
 8018594:	f002 fd45 	bl	801b022 <__sprint_r>
 8018598:	2800      	cmp	r0, #0
 801859a:	f040 8183 	bne.w	80188a4 <_vfprintf_r+0xf70>
 801859e:	ab2e      	add	r3, sp, #184	; 0xb8
 80185a0:	e7bd      	b.n	801851e <_vfprintf_r+0xbea>
 80185a2:	9a23      	ldr	r2, [sp, #140]	; 0x8c
 80185a4:	605c      	str	r4, [r3, #4]
 80185a6:	3210      	adds	r2, #16
 80185a8:	9223      	str	r2, [sp, #140]	; 0x8c
 80185aa:	9a22      	ldr	r2, [sp, #136]	; 0x88
 80185ac:	3201      	adds	r2, #1
 80185ae:	2a07      	cmp	r2, #7
 80185b0:	9222      	str	r2, [sp, #136]	; 0x88
 80185b2:	dc02      	bgt.n	80185ba <_vfprintf_r+0xc86>
 80185b4:	3308      	adds	r3, #8
 80185b6:	3e10      	subs	r6, #16
 80185b8:	e7b7      	b.n	801852a <_vfprintf_r+0xbf6>
 80185ba:	aa21      	add	r2, sp, #132	; 0x84
 80185bc:	4629      	mov	r1, r5
 80185be:	4648      	mov	r0, r9
 80185c0:	f002 fd2f 	bl	801b022 <__sprint_r>
 80185c4:	2800      	cmp	r0, #0
 80185c6:	f040 816d 	bne.w	80188a4 <_vfprintf_r+0xf70>
 80185ca:	ab2e      	add	r3, sp, #184	; 0xb8
 80185cc:	e7f3      	b.n	80185b6 <_vfprintf_r+0xc82>
 80185ce:	9b0a      	ldr	r3, [sp, #40]	; 0x28
 80185d0:	9a07      	ldr	r2, [sp, #28]
 80185d2:	4293      	cmp	r3, r2
 80185d4:	bfa8      	it	ge
 80185d6:	4613      	movge	r3, r2
 80185d8:	2b00      	cmp	r3, #0
 80185da:	461e      	mov	r6, r3
 80185dc:	dd0b      	ble.n	80185f6 <_vfprintf_r+0xcc2>
 80185de:	6063      	str	r3, [r4, #4]
 80185e0:	9b23      	ldr	r3, [sp, #140]	; 0x8c
 80185e2:	f8c4 8000 	str.w	r8, [r4]
 80185e6:	4433      	add	r3, r6
 80185e8:	9323      	str	r3, [sp, #140]	; 0x8c
 80185ea:	9b22      	ldr	r3, [sp, #136]	; 0x88
 80185ec:	3301      	adds	r3, #1
 80185ee:	2b07      	cmp	r3, #7
 80185f0:	9322      	str	r3, [sp, #136]	; 0x88
 80185f2:	dc63      	bgt.n	80186bc <_vfprintf_r+0xd88>
 80185f4:	3408      	adds	r4, #8
 80185f6:	9b0a      	ldr	r3, [sp, #40]	; 0x28
 80185f8:	2e00      	cmp	r6, #0
 80185fa:	bfa8      	it	ge
 80185fc:	1b9b      	subge	r3, r3, r6
 80185fe:	2b00      	cmp	r3, #0
 8018600:	461e      	mov	r6, r3
 8018602:	dd0f      	ble.n	8018624 <_vfprintf_r+0xcf0>
 8018604:	f04f 0b10 	mov.w	fp, #16
 8018608:	4f52      	ldr	r7, [pc, #328]	; (8018754 <_vfprintf_r+0xe20>)
 801860a:	2e10      	cmp	r6, #16
 801860c:	6027      	str	r7, [r4, #0]
 801860e:	dc5f      	bgt.n	80186d0 <_vfprintf_r+0xd9c>
 8018610:	9b23      	ldr	r3, [sp, #140]	; 0x8c
 8018612:	6066      	str	r6, [r4, #4]
 8018614:	441e      	add	r6, r3
 8018616:	9b22      	ldr	r3, [sp, #136]	; 0x88
 8018618:	9623      	str	r6, [sp, #140]	; 0x8c
 801861a:	3301      	adds	r3, #1
 801861c:	2b07      	cmp	r3, #7
 801861e:	9322      	str	r3, [sp, #136]	; 0x88
 8018620:	dc6d      	bgt.n	80186fe <_vfprintf_r+0xdca>
 8018622:	3408      	adds	r4, #8
 8018624:	9b1b      	ldr	r3, [sp, #108]	; 0x6c
 8018626:	9a07      	ldr	r2, [sp, #28]
 8018628:	4293      	cmp	r3, r2
 801862a:	db02      	blt.n	8018632 <_vfprintf_r+0xcfe>
 801862c:	f01a 0f01 	tst.w	sl, #1
 8018630:	d00d      	beq.n	801864e <_vfprintf_r+0xd1a>
 8018632:	9b11      	ldr	r3, [sp, #68]	; 0x44
 8018634:	9a0b      	ldr	r2, [sp, #44]	; 0x2c
 8018636:	6023      	str	r3, [r4, #0]
 8018638:	9b0b      	ldr	r3, [sp, #44]	; 0x2c
 801863a:	6063      	str	r3, [r4, #4]
 801863c:	9b23      	ldr	r3, [sp, #140]	; 0x8c
 801863e:	4413      	add	r3, r2
 8018640:	9323      	str	r3, [sp, #140]	; 0x8c
 8018642:	9b22      	ldr	r3, [sp, #136]	; 0x88
 8018644:	3301      	adds	r3, #1
 8018646:	2b07      	cmp	r3, #7
 8018648:	9322      	str	r3, [sp, #136]	; 0x88
 801864a:	dc62      	bgt.n	8018712 <_vfprintf_r+0xdde>
 801864c:	3408      	adds	r4, #8
 801864e:	9b07      	ldr	r3, [sp, #28]
 8018650:	9a0a      	ldr	r2, [sp, #40]	; 0x28
 8018652:	1a9e      	subs	r6, r3, r2
 8018654:	9b1b      	ldr	r3, [sp, #108]	; 0x6c
 8018656:	9a07      	ldr	r2, [sp, #28]
 8018658:	1ad3      	subs	r3, r2, r3
 801865a:	429e      	cmp	r6, r3
 801865c:	bfa8      	it	ge
 801865e:	461e      	movge	r6, r3
 8018660:	2e00      	cmp	r6, #0
 8018662:	dd0c      	ble.n	801867e <_vfprintf_r+0xd4a>
 8018664:	9b0a      	ldr	r3, [sp, #40]	; 0x28
 8018666:	4443      	add	r3, r8
 8018668:	e884 0048 	stmia.w	r4, {r3, r6}
 801866c:	9b23      	ldr	r3, [sp, #140]	; 0x8c
 801866e:	4433      	add	r3, r6
 8018670:	9323      	str	r3, [sp, #140]	; 0x8c
 8018672:	9b22      	ldr	r3, [sp, #136]	; 0x88
 8018674:	3301      	adds	r3, #1
 8018676:	2b07      	cmp	r3, #7
 8018678:	9322      	str	r3, [sp, #136]	; 0x88
 801867a:	dc54      	bgt.n	8018726 <_vfprintf_r+0xdf2>
 801867c:	3408      	adds	r4, #8
 801867e:	9b1b      	ldr	r3, [sp, #108]	; 0x6c
 8018680:	9a07      	ldr	r2, [sp, #28]
 8018682:	2e00      	cmp	r6, #0
 8018684:	eba2 0303 	sub.w	r3, r2, r3
 8018688:	bfb4      	ite	lt
 801868a:	461e      	movlt	r6, r3
 801868c:	1b9e      	subge	r6, r3, r6
 801868e:	2e00      	cmp	r6, #0
 8018690:	f77f acc9 	ble.w	8018026 <_vfprintf_r+0x6f2>
 8018694:	f04f 0810 	mov.w	r8, #16
 8018698:	4f2e      	ldr	r7, [pc, #184]	; (8018754 <_vfprintf_r+0xe20>)
 801869a:	2e10      	cmp	r6, #16
 801869c:	6027      	str	r7, [r4, #0]
 801869e:	f77f aee0 	ble.w	8018462 <_vfprintf_r+0xb2e>
 80186a2:	9b23      	ldr	r3, [sp, #140]	; 0x8c
 80186a4:	f8c4 8004 	str.w	r8, [r4, #4]
 80186a8:	3310      	adds	r3, #16
 80186aa:	9323      	str	r3, [sp, #140]	; 0x8c
 80186ac:	9b22      	ldr	r3, [sp, #136]	; 0x88
 80186ae:	3301      	adds	r3, #1
 80186b0:	2b07      	cmp	r3, #7
 80186b2:	9322      	str	r3, [sp, #136]	; 0x88
 80186b4:	dc41      	bgt.n	801873a <_vfprintf_r+0xe06>
 80186b6:	3408      	adds	r4, #8
 80186b8:	3e10      	subs	r6, #16
 80186ba:	e7ee      	b.n	801869a <_vfprintf_r+0xd66>
 80186bc:	aa21      	add	r2, sp, #132	; 0x84
 80186be:	4629      	mov	r1, r5
 80186c0:	4648      	mov	r0, r9
 80186c2:	f002 fcae 	bl	801b022 <__sprint_r>
 80186c6:	2800      	cmp	r0, #0
 80186c8:	f040 80ec 	bne.w	80188a4 <_vfprintf_r+0xf70>
 80186cc:	ac2e      	add	r4, sp, #184	; 0xb8
 80186ce:	e792      	b.n	80185f6 <_vfprintf_r+0xcc2>
 80186d0:	9b23      	ldr	r3, [sp, #140]	; 0x8c
 80186d2:	f8c4 b004 	str.w	fp, [r4, #4]
 80186d6:	3310      	adds	r3, #16
 80186d8:	9323      	str	r3, [sp, #140]	; 0x8c
 80186da:	9b22      	ldr	r3, [sp, #136]	; 0x88
 80186dc:	3301      	adds	r3, #1
 80186de:	2b07      	cmp	r3, #7
 80186e0:	9322      	str	r3, [sp, #136]	; 0x88
 80186e2:	dc02      	bgt.n	80186ea <_vfprintf_r+0xdb6>
 80186e4:	3408      	adds	r4, #8
 80186e6:	3e10      	subs	r6, #16
 80186e8:	e78f      	b.n	801860a <_vfprintf_r+0xcd6>
 80186ea:	aa21      	add	r2, sp, #132	; 0x84
 80186ec:	4629      	mov	r1, r5
 80186ee:	4648      	mov	r0, r9
 80186f0:	f002 fc97 	bl	801b022 <__sprint_r>
 80186f4:	2800      	cmp	r0, #0
 80186f6:	f040 80d5 	bne.w	80188a4 <_vfprintf_r+0xf70>
 80186fa:	ac2e      	add	r4, sp, #184	; 0xb8
 80186fc:	e7f3      	b.n	80186e6 <_vfprintf_r+0xdb2>
 80186fe:	aa21      	add	r2, sp, #132	; 0x84
 8018700:	4629      	mov	r1, r5
 8018702:	4648      	mov	r0, r9
 8018704:	f002 fc8d 	bl	801b022 <__sprint_r>
 8018708:	2800      	cmp	r0, #0
 801870a:	f040 80cb 	bne.w	80188a4 <_vfprintf_r+0xf70>
 801870e:	ac2e      	add	r4, sp, #184	; 0xb8
 8018710:	e788      	b.n	8018624 <_vfprintf_r+0xcf0>
 8018712:	aa21      	add	r2, sp, #132	; 0x84
 8018714:	4629      	mov	r1, r5
 8018716:	4648      	mov	r0, r9
 8018718:	f002 fc83 	bl	801b022 <__sprint_r>
 801871c:	2800      	cmp	r0, #0
 801871e:	f040 80c1 	bne.w	80188a4 <_vfprintf_r+0xf70>
 8018722:	ac2e      	add	r4, sp, #184	; 0xb8
 8018724:	e793      	b.n	801864e <_vfprintf_r+0xd1a>
 8018726:	aa21      	add	r2, sp, #132	; 0x84
 8018728:	4629      	mov	r1, r5
 801872a:	4648      	mov	r0, r9
 801872c:	f002 fc79 	bl	801b022 <__sprint_r>
 8018730:	2800      	cmp	r0, #0
 8018732:	f040 80b7 	bne.w	80188a4 <_vfprintf_r+0xf70>
 8018736:	ac2e      	add	r4, sp, #184	; 0xb8
 8018738:	e7a1      	b.n	801867e <_vfprintf_r+0xd4a>
 801873a:	aa21      	add	r2, sp, #132	; 0x84
 801873c:	4629      	mov	r1, r5
 801873e:	4648      	mov	r0, r9
 8018740:	f002 fc6f 	bl	801b022 <__sprint_r>
 8018744:	2800      	cmp	r0, #0
 8018746:	f040 80ad 	bne.w	80188a4 <_vfprintf_r+0xf70>
 801874a:	ac2e      	add	r4, sp, #184	; 0xb8
 801874c:	e7b4      	b.n	80186b8 <_vfprintf_r+0xd84>
 801874e:	bf00      	nop
 8018750:	0801bb3c 	.word	0x0801bb3c
 8018754:	0801bb93 	.word	0x0801bb93
 8018758:	9b07      	ldr	r3, [sp, #28]
 801875a:	2b01      	cmp	r3, #1
 801875c:	dc02      	bgt.n	8018764 <_vfprintf_r+0xe30>
 801875e:	f01a 0f01 	tst.w	sl, #1
 8018762:	d076      	beq.n	8018852 <_vfprintf_r+0xf1e>
 8018764:	2301      	movs	r3, #1
 8018766:	6063      	str	r3, [r4, #4]
 8018768:	9b23      	ldr	r3, [sp, #140]	; 0x8c
 801876a:	f8c4 8000 	str.w	r8, [r4]
 801876e:	3301      	adds	r3, #1
 8018770:	9323      	str	r3, [sp, #140]	; 0x8c
 8018772:	9b22      	ldr	r3, [sp, #136]	; 0x88
 8018774:	3301      	adds	r3, #1
 8018776:	2b07      	cmp	r3, #7
 8018778:	9322      	str	r3, [sp, #136]	; 0x88
 801877a:	dc36      	bgt.n	80187ea <_vfprintf_r+0xeb6>
 801877c:	3408      	adds	r4, #8
 801877e:	9b11      	ldr	r3, [sp, #68]	; 0x44
 8018780:	9a0b      	ldr	r2, [sp, #44]	; 0x2c
 8018782:	6023      	str	r3, [r4, #0]
 8018784:	9b0b      	ldr	r3, [sp, #44]	; 0x2c
 8018786:	6063      	str	r3, [r4, #4]
 8018788:	9b23      	ldr	r3, [sp, #140]	; 0x8c
 801878a:	4413      	add	r3, r2
 801878c:	9323      	str	r3, [sp, #140]	; 0x8c
 801878e:	9b22      	ldr	r3, [sp, #136]	; 0x88
 8018790:	3301      	adds	r3, #1
 8018792:	2b07      	cmp	r3, #7
 8018794:	9322      	str	r3, [sp, #136]	; 0x88
 8018796:	dc31      	bgt.n	80187fc <_vfprintf_r+0xec8>
 8018798:	3408      	adds	r4, #8
 801879a:	9b13      	ldr	r3, [sp, #76]	; 0x4c
 801879c:	9a12      	ldr	r2, [sp, #72]	; 0x48
 801879e:	980e      	ldr	r0, [sp, #56]	; 0x38
 80187a0:	990f      	ldr	r1, [sp, #60]	; 0x3c
 80187a2:	f7f8 f973 	bl	8010a8c <__aeabi_dcmpeq>
 80187a6:	9b07      	ldr	r3, [sp, #28]
 80187a8:	1e5e      	subs	r6, r3, #1
 80187aa:	2800      	cmp	r0, #0
 80187ac:	d12f      	bne.n	801880e <_vfprintf_r+0xeda>
 80187ae:	f108 0301 	add.w	r3, r8, #1
 80187b2:	e884 0048 	stmia.w	r4, {r3, r6}
 80187b6:	9b23      	ldr	r3, [sp, #140]	; 0x8c
 80187b8:	9a07      	ldr	r2, [sp, #28]
 80187ba:	3b01      	subs	r3, #1
 80187bc:	4413      	add	r3, r2
 80187be:	9323      	str	r3, [sp, #140]	; 0x8c
 80187c0:	9b22      	ldr	r3, [sp, #136]	; 0x88
 80187c2:	3301      	adds	r3, #1
 80187c4:	2b07      	cmp	r3, #7
 80187c6:	9322      	str	r3, [sp, #136]	; 0x88
 80187c8:	dd4a      	ble.n	8018860 <_vfprintf_r+0xf2c>
 80187ca:	aa21      	add	r2, sp, #132	; 0x84
 80187cc:	4629      	mov	r1, r5
 80187ce:	4648      	mov	r0, r9
 80187d0:	f002 fc27 	bl	801b022 <__sprint_r>
 80187d4:	2800      	cmp	r0, #0
 80187d6:	d165      	bne.n	80188a4 <_vfprintf_r+0xf70>
 80187d8:	ac2e      	add	r4, sp, #184	; 0xb8
 80187da:	ab1d      	add	r3, sp, #116	; 0x74
 80187dc:	6023      	str	r3, [r4, #0]
 80187de:	9b14      	ldr	r3, [sp, #80]	; 0x50
 80187e0:	9a14      	ldr	r2, [sp, #80]	; 0x50
 80187e2:	6063      	str	r3, [r4, #4]
 80187e4:	9b23      	ldr	r3, [sp, #140]	; 0x8c
 80187e6:	4413      	add	r3, r2
 80187e8:	e40d      	b.n	8018006 <_vfprintf_r+0x6d2>
 80187ea:	aa21      	add	r2, sp, #132	; 0x84
 80187ec:	4629      	mov	r1, r5
 80187ee:	4648      	mov	r0, r9
 80187f0:	f002 fc17 	bl	801b022 <__sprint_r>
 80187f4:	2800      	cmp	r0, #0
 80187f6:	d155      	bne.n	80188a4 <_vfprintf_r+0xf70>
 80187f8:	ac2e      	add	r4, sp, #184	; 0xb8
 80187fa:	e7c0      	b.n	801877e <_vfprintf_r+0xe4a>
 80187fc:	aa21      	add	r2, sp, #132	; 0x84
 80187fe:	4629      	mov	r1, r5
 8018800:	4648      	mov	r0, r9
 8018802:	f002 fc0e 	bl	801b022 <__sprint_r>
 8018806:	2800      	cmp	r0, #0
 8018808:	d14c      	bne.n	80188a4 <_vfprintf_r+0xf70>
 801880a:	ac2e      	add	r4, sp, #184	; 0xb8
 801880c:	e7c5      	b.n	801879a <_vfprintf_r+0xe66>
 801880e:	2e00      	cmp	r6, #0
 8018810:	dde3      	ble.n	80187da <_vfprintf_r+0xea6>
 8018812:	f04f 0810 	mov.w	r8, #16
 8018816:	4f5e      	ldr	r7, [pc, #376]	; (8018990 <_vfprintf_r+0x105c>)
 8018818:	2e10      	cmp	r6, #16
 801881a:	6027      	str	r7, [r4, #0]
 801881c:	dc04      	bgt.n	8018828 <_vfprintf_r+0xef4>
 801881e:	9b23      	ldr	r3, [sp, #140]	; 0x8c
 8018820:	6066      	str	r6, [r4, #4]
 8018822:	441e      	add	r6, r3
 8018824:	9623      	str	r6, [sp, #140]	; 0x8c
 8018826:	e7cb      	b.n	80187c0 <_vfprintf_r+0xe8c>
 8018828:	9b23      	ldr	r3, [sp, #140]	; 0x8c
 801882a:	f8c4 8004 	str.w	r8, [r4, #4]
 801882e:	3310      	adds	r3, #16
 8018830:	9323      	str	r3, [sp, #140]	; 0x8c
 8018832:	9b22      	ldr	r3, [sp, #136]	; 0x88
 8018834:	3301      	adds	r3, #1
 8018836:	2b07      	cmp	r3, #7
 8018838:	9322      	str	r3, [sp, #136]	; 0x88
 801883a:	dc02      	bgt.n	8018842 <_vfprintf_r+0xf0e>
 801883c:	3408      	adds	r4, #8
 801883e:	3e10      	subs	r6, #16
 8018840:	e7ea      	b.n	8018818 <_vfprintf_r+0xee4>
 8018842:	aa21      	add	r2, sp, #132	; 0x84
 8018844:	4629      	mov	r1, r5
 8018846:	4648      	mov	r0, r9
 8018848:	f002 fbeb 	bl	801b022 <__sprint_r>
 801884c:	bb50      	cbnz	r0, 80188a4 <_vfprintf_r+0xf70>
 801884e:	ac2e      	add	r4, sp, #184	; 0xb8
 8018850:	e7f5      	b.n	801883e <_vfprintf_r+0xf0a>
 8018852:	2301      	movs	r3, #1
 8018854:	6063      	str	r3, [r4, #4]
 8018856:	9b23      	ldr	r3, [sp, #140]	; 0x8c
 8018858:	f8c4 8000 	str.w	r8, [r4]
 801885c:	3301      	adds	r3, #1
 801885e:	e7ae      	b.n	80187be <_vfprintf_r+0xe8a>
 8018860:	3408      	adds	r4, #8
 8018862:	e7ba      	b.n	80187da <_vfprintf_r+0xea6>
 8018864:	3408      	adds	r4, #8
 8018866:	f7ff bbde 	b.w	8018026 <_vfprintf_r+0x6f2>
 801886a:	9b0d      	ldr	r3, [sp, #52]	; 0x34
 801886c:	9a10      	ldr	r2, [sp, #64]	; 0x40
 801886e:	1a9e      	subs	r6, r3, r2
 8018870:	2e00      	cmp	r6, #0
 8018872:	f77f abdc 	ble.w	801802e <_vfprintf_r+0x6fa>
 8018876:	2710      	movs	r7, #16
 8018878:	4b46      	ldr	r3, [pc, #280]	; (8018994 <_vfprintf_r+0x1060>)
 801887a:	2e10      	cmp	r6, #16
 801887c:	6023      	str	r3, [r4, #0]
 801887e:	dc20      	bgt.n	80188c2 <_vfprintf_r+0xf8e>
 8018880:	9b23      	ldr	r3, [sp, #140]	; 0x8c
 8018882:	6066      	str	r6, [r4, #4]
 8018884:	441e      	add	r6, r3
 8018886:	9b22      	ldr	r3, [sp, #136]	; 0x88
 8018888:	9623      	str	r6, [sp, #140]	; 0x8c
 801888a:	3301      	adds	r3, #1
 801888c:	2b07      	cmp	r3, #7
 801888e:	9322      	str	r3, [sp, #136]	; 0x88
 8018890:	f77f abcd 	ble.w	801802e <_vfprintf_r+0x6fa>
 8018894:	aa21      	add	r2, sp, #132	; 0x84
 8018896:	4629      	mov	r1, r5
 8018898:	4648      	mov	r0, r9
 801889a:	f002 fbc2 	bl	801b022 <__sprint_r>
 801889e:	2800      	cmp	r0, #0
 80188a0:	f43f abc5 	beq.w	801802e <_vfprintf_r+0x6fa>
 80188a4:	6e6b      	ldr	r3, [r5, #100]	; 0x64
 80188a6:	07d9      	lsls	r1, r3, #31
 80188a8:	d405      	bmi.n	80188b6 <_vfprintf_r+0xf82>
 80188aa:	89ab      	ldrh	r3, [r5, #12]
 80188ac:	059a      	lsls	r2, r3, #22
 80188ae:	d402      	bmi.n	80188b6 <_vfprintf_r+0xf82>
 80188b0:	6da8      	ldr	r0, [r5, #88]	; 0x58
 80188b2:	f001 fbce 	bl	801a052 <__retarget_lock_release_recursive>
 80188b6:	89ab      	ldrh	r3, [r5, #12]
 80188b8:	065b      	lsls	r3, r3, #25
 80188ba:	f57f a8a8 	bpl.w	8017a0e <_vfprintf_r+0xda>
 80188be:	f7ff b87e 	b.w	80179be <_vfprintf_r+0x8a>
 80188c2:	9b23      	ldr	r3, [sp, #140]	; 0x8c
 80188c4:	6067      	str	r7, [r4, #4]
 80188c6:	3310      	adds	r3, #16
 80188c8:	9323      	str	r3, [sp, #140]	; 0x8c
 80188ca:	9b22      	ldr	r3, [sp, #136]	; 0x88
 80188cc:	3301      	adds	r3, #1
 80188ce:	2b07      	cmp	r3, #7
 80188d0:	9322      	str	r3, [sp, #136]	; 0x88
 80188d2:	dc02      	bgt.n	80188da <_vfprintf_r+0xfa6>
 80188d4:	3408      	adds	r4, #8
 80188d6:	3e10      	subs	r6, #16
 80188d8:	e7ce      	b.n	8018878 <_vfprintf_r+0xf44>
 80188da:	aa21      	add	r2, sp, #132	; 0x84
 80188dc:	4629      	mov	r1, r5
 80188de:	4648      	mov	r0, r9
 80188e0:	f002 fb9f 	bl	801b022 <__sprint_r>
 80188e4:	2800      	cmp	r0, #0
 80188e6:	d1dd      	bne.n	80188a4 <_vfprintf_r+0xf70>
 80188e8:	ac2e      	add	r4, sp, #184	; 0xb8
 80188ea:	e7f4      	b.n	80188d6 <_vfprintf_r+0xfa2>
 80188ec:	9b23      	ldr	r3, [sp, #140]	; 0x8c
 80188ee:	b913      	cbnz	r3, 80188f6 <_vfprintf_r+0xfc2>
 80188f0:	2300      	movs	r3, #0
 80188f2:	9322      	str	r3, [sp, #136]	; 0x88
 80188f4:	e7d6      	b.n	80188a4 <_vfprintf_r+0xf70>
 80188f6:	aa21      	add	r2, sp, #132	; 0x84
 80188f8:	4629      	mov	r1, r5
 80188fa:	4648      	mov	r0, r9
 80188fc:	f002 fb91 	bl	801b022 <__sprint_r>
 8018900:	2800      	cmp	r0, #0
 8018902:	d0f5      	beq.n	80188f0 <_vfprintf_r+0xfbc>
 8018904:	e7ce      	b.n	80188a4 <_vfprintf_r+0xf70>
 8018906:	9a0e      	ldr	r2, [sp, #56]	; 0x38
 8018908:	9b0f      	ldr	r3, [sp, #60]	; 0x3c
 801890a:	980e      	ldr	r0, [sp, #56]	; 0x38
 801890c:	990f      	ldr	r1, [sp, #60]	; 0x3c
 801890e:	f7f8 f8ef 	bl	8010af0 <__aeabi_dcmpun>
 8018912:	2800      	cmp	r0, #0
 8018914:	f43f aa28 	beq.w	8017d68 <_vfprintf_r+0x434>
 8018918:	4b1f      	ldr	r3, [pc, #124]	; (8018998 <_vfprintf_r+0x1064>)
 801891a:	4a20      	ldr	r2, [pc, #128]	; (801899c <_vfprintf_r+0x1068>)
 801891c:	f7ff ba18 	b.w	8017d50 <_vfprintf_r+0x41c>
 8018920:	9b1f      	ldr	r3, [sp, #124]	; 0x7c
 8018922:	1a1b      	subs	r3, r3, r0
 8018924:	9307      	str	r3, [sp, #28]
 8018926:	f7ff ba9c 	b.w	8017e62 <_vfprintf_r+0x52e>
 801892a:	ea56 0207 	orrs.w	r2, r6, r7
 801892e:	f8cd a028 	str.w	sl, [sp, #40]	; 0x28
 8018932:	f43f ac1a 	beq.w	801816a <_vfprintf_r+0x836>
 8018936:	2b01      	cmp	r3, #1
 8018938:	f43f ac8e 	beq.w	8018258 <_vfprintf_r+0x924>
 801893c:	2b02      	cmp	r3, #2
 801893e:	f43f acae 	beq.w	801829e <_vfprintf_r+0x96a>
 8018942:	ab2e      	add	r3, sp, #184	; 0xb8
 8018944:	08f1      	lsrs	r1, r6, #3
 8018946:	ea41 7147 	orr.w	r1, r1, r7, lsl #29
 801894a:	08f8      	lsrs	r0, r7, #3
 801894c:	f006 0207 	and.w	r2, r6, #7
 8018950:	4607      	mov	r7, r0
 8018952:	460e      	mov	r6, r1
 8018954:	3230      	adds	r2, #48	; 0x30
 8018956:	ea56 0107 	orrs.w	r1, r6, r7
 801895a:	f103 38ff 	add.w	r8, r3, #4294967295
 801895e:	f803 2c01 	strb.w	r2, [r3, #-1]
 8018962:	f47f ac77 	bne.w	8018254 <_vfprintf_r+0x920>
 8018966:	990a      	ldr	r1, [sp, #40]	; 0x28
 8018968:	07c8      	lsls	r0, r1, #31
 801896a:	d506      	bpl.n	801897a <_vfprintf_r+0x1046>
 801896c:	2a30      	cmp	r2, #48	; 0x30
 801896e:	d004      	beq.n	801897a <_vfprintf_r+0x1046>
 8018970:	2230      	movs	r2, #48	; 0x30
 8018972:	f808 2c01 	strb.w	r2, [r8, #-1]
 8018976:	f1a3 0802 	sub.w	r8, r3, #2
 801897a:	ab2e      	add	r3, sp, #184	; 0xb8
 801897c:	465e      	mov	r6, fp
 801897e:	eba3 0b08 	sub.w	fp, r3, r8
 8018982:	2300      	movs	r3, #0
 8018984:	f8dd a028 	ldr.w	sl, [sp, #40]	; 0x28
 8018988:	930a      	str	r3, [sp, #40]	; 0x28
 801898a:	f7ff babb 	b.w	8017f04 <_vfprintf_r+0x5d0>
 801898e:	bf00      	nop
 8018990:	0801bb93 	.word	0x0801bb93
 8018994:	0801bb83 	.word	0x0801bb83
 8018998:	0801bb12 	.word	0x0801bb12
 801899c:	0801bb16 	.word	0x0801bb16

080189a0 <__sbprintf>:
 80189a0:	b5f0      	push	{r4, r5, r6, r7, lr}
 80189a2:	460c      	mov	r4, r1
 80189a4:	461f      	mov	r7, r3
 80189a6:	6e63      	ldr	r3, [r4, #100]	; 0x64
 80189a8:	f2ad 4d6c 	subw	sp, sp, #1132	; 0x46c
 80189ac:	9319      	str	r3, [sp, #100]	; 0x64
 80189ae:	89e3      	ldrh	r3, [r4, #14]
 80189b0:	8989      	ldrh	r1, [r1, #12]
 80189b2:	f8ad 300e 	strh.w	r3, [sp, #14]
 80189b6:	6a23      	ldr	r3, [r4, #32]
 80189b8:	f021 0102 	bic.w	r1, r1, #2
 80189bc:	9308      	str	r3, [sp, #32]
 80189be:	6aa3      	ldr	r3, [r4, #40]	; 0x28
 80189c0:	f8ad 100c 	strh.w	r1, [sp, #12]
 80189c4:	a91a      	add	r1, sp, #104	; 0x68
 80189c6:	4615      	mov	r5, r2
 80189c8:	4606      	mov	r6, r0
 80189ca:	930a      	str	r3, [sp, #40]	; 0x28
 80189cc:	9100      	str	r1, [sp, #0]
 80189ce:	2300      	movs	r3, #0
 80189d0:	9104      	str	r1, [sp, #16]
 80189d2:	f44f 6180 	mov.w	r1, #1024	; 0x400
 80189d6:	a816      	add	r0, sp, #88	; 0x58
 80189d8:	9102      	str	r1, [sp, #8]
 80189da:	9105      	str	r1, [sp, #20]
 80189dc:	9306      	str	r3, [sp, #24]
 80189de:	f001 fb35 	bl	801a04c <__retarget_lock_init_recursive>
 80189e2:	462a      	mov	r2, r5
 80189e4:	463b      	mov	r3, r7
 80189e6:	4669      	mov	r1, sp
 80189e8:	4630      	mov	r0, r6
 80189ea:	f7fe ffa3 	bl	8017934 <_vfprintf_r>
 80189ee:	1e05      	subs	r5, r0, #0
 80189f0:	db07      	blt.n	8018a02 <__sbprintf+0x62>
 80189f2:	4669      	mov	r1, sp
 80189f4:	4630      	mov	r0, r6
 80189f6:	f000 ff75 	bl	80198e4 <_fflush_r>
 80189fa:	2800      	cmp	r0, #0
 80189fc:	bf18      	it	ne
 80189fe:	f04f 35ff 	movne.w	r5, #4294967295
 8018a02:	f8bd 300c 	ldrh.w	r3, [sp, #12]
 8018a06:	9816      	ldr	r0, [sp, #88]	; 0x58
 8018a08:	065b      	lsls	r3, r3, #25
 8018a0a:	bf42      	ittt	mi
 8018a0c:	89a3      	ldrhmi	r3, [r4, #12]
 8018a0e:	f043 0340 	orrmi.w	r3, r3, #64	; 0x40
 8018a12:	81a3      	strhmi	r3, [r4, #12]
 8018a14:	f001 fb1b 	bl	801a04e <__retarget_lock_close_recursive>
 8018a18:	4628      	mov	r0, r5
 8018a1a:	f20d 4d6c 	addw	sp, sp, #1132	; 0x46c
 8018a1e:	bdf0      	pop	{r4, r5, r6, r7, pc}

08018a20 <__swsetup_r>:
 8018a20:	4b32      	ldr	r3, [pc, #200]	; (8018aec <__swsetup_r+0xcc>)
 8018a22:	b570      	push	{r4, r5, r6, lr}
 8018a24:	681d      	ldr	r5, [r3, #0]
 8018a26:	4606      	mov	r6, r0
 8018a28:	460c      	mov	r4, r1
 8018a2a:	b125      	cbz	r5, 8018a36 <__swsetup_r+0x16>
 8018a2c:	69ab      	ldr	r3, [r5, #24]
 8018a2e:	b913      	cbnz	r3, 8018a36 <__swsetup_r+0x16>
 8018a30:	4628      	mov	r0, r5
 8018a32:	f000 ffeb 	bl	8019a0c <__sinit>
 8018a36:	4b2e      	ldr	r3, [pc, #184]	; (8018af0 <__swsetup_r+0xd0>)
 8018a38:	429c      	cmp	r4, r3
 8018a3a:	d10f      	bne.n	8018a5c <__swsetup_r+0x3c>
 8018a3c:	686c      	ldr	r4, [r5, #4]
 8018a3e:	f9b4 300c 	ldrsh.w	r3, [r4, #12]
 8018a42:	b29a      	uxth	r2, r3
 8018a44:	0715      	lsls	r5, r2, #28
 8018a46:	d42c      	bmi.n	8018aa2 <__swsetup_r+0x82>
 8018a48:	06d0      	lsls	r0, r2, #27
 8018a4a:	d411      	bmi.n	8018a70 <__swsetup_r+0x50>
 8018a4c:	2209      	movs	r2, #9
 8018a4e:	6032      	str	r2, [r6, #0]
 8018a50:	f043 0340 	orr.w	r3, r3, #64	; 0x40
 8018a54:	81a3      	strh	r3, [r4, #12]
 8018a56:	f04f 30ff 	mov.w	r0, #4294967295
 8018a5a:	bd70      	pop	{r4, r5, r6, pc}
 8018a5c:	4b25      	ldr	r3, [pc, #148]	; (8018af4 <__swsetup_r+0xd4>)
 8018a5e:	429c      	cmp	r4, r3
 8018a60:	d101      	bne.n	8018a66 <__swsetup_r+0x46>
 8018a62:	68ac      	ldr	r4, [r5, #8]
 8018a64:	e7eb      	b.n	8018a3e <__swsetup_r+0x1e>
 8018a66:	4b24      	ldr	r3, [pc, #144]	; (8018af8 <__swsetup_r+0xd8>)
 8018a68:	429c      	cmp	r4, r3
 8018a6a:	bf08      	it	eq
 8018a6c:	68ec      	ldreq	r4, [r5, #12]
 8018a6e:	e7e6      	b.n	8018a3e <__swsetup_r+0x1e>
 8018a70:	0751      	lsls	r1, r2, #29
 8018a72:	d512      	bpl.n	8018a9a <__swsetup_r+0x7a>
 8018a74:	6b61      	ldr	r1, [r4, #52]	; 0x34
 8018a76:	b141      	cbz	r1, 8018a8a <__swsetup_r+0x6a>
 8018a78:	f104 0344 	add.w	r3, r4, #68	; 0x44
 8018a7c:	4299      	cmp	r1, r3
 8018a7e:	d002      	beq.n	8018a86 <__swsetup_r+0x66>
 8018a80:	4630      	mov	r0, r6
 8018a82:	f001 f89b 	bl	8019bbc <_free_r>
 8018a86:	2300      	movs	r3, #0
 8018a88:	6363      	str	r3, [r4, #52]	; 0x34
 8018a8a:	89a3      	ldrh	r3, [r4, #12]
 8018a8c:	f023 0324 	bic.w	r3, r3, #36	; 0x24
 8018a90:	81a3      	strh	r3, [r4, #12]
 8018a92:	2300      	movs	r3, #0
 8018a94:	6063      	str	r3, [r4, #4]
 8018a96:	6923      	ldr	r3, [r4, #16]
 8018a98:	6023      	str	r3, [r4, #0]
 8018a9a:	89a3      	ldrh	r3, [r4, #12]
 8018a9c:	f043 0308 	orr.w	r3, r3, #8
 8018aa0:	81a3      	strh	r3, [r4, #12]
 8018aa2:	6923      	ldr	r3, [r4, #16]
 8018aa4:	b94b      	cbnz	r3, 8018aba <__swsetup_r+0x9a>
 8018aa6:	89a3      	ldrh	r3, [r4, #12]
 8018aa8:	f403 7320 	and.w	r3, r3, #640	; 0x280
 8018aac:	f5b3 7f00 	cmp.w	r3, #512	; 0x200
 8018ab0:	d003      	beq.n	8018aba <__swsetup_r+0x9a>
 8018ab2:	4621      	mov	r1, r4
 8018ab4:	4630      	mov	r0, r6
 8018ab6:	f001 faf9 	bl	801a0ac <__smakebuf_r>
 8018aba:	89a2      	ldrh	r2, [r4, #12]
 8018abc:	f012 0301 	ands.w	r3, r2, #1
 8018ac0:	d00c      	beq.n	8018adc <__swsetup_r+0xbc>
 8018ac2:	2300      	movs	r3, #0
 8018ac4:	60a3      	str	r3, [r4, #8]
 8018ac6:	6963      	ldr	r3, [r4, #20]
 8018ac8:	425b      	negs	r3, r3
 8018aca:	61a3      	str	r3, [r4, #24]
 8018acc:	6923      	ldr	r3, [r4, #16]
 8018ace:	b953      	cbnz	r3, 8018ae6 <__swsetup_r+0xc6>
 8018ad0:	f9b4 300c 	ldrsh.w	r3, [r4, #12]
 8018ad4:	f013 0080 	ands.w	r0, r3, #128	; 0x80
 8018ad8:	d1ba      	bne.n	8018a50 <__swsetup_r+0x30>
 8018ada:	bd70      	pop	{r4, r5, r6, pc}
 8018adc:	0792      	lsls	r2, r2, #30
 8018ade:	bf58      	it	pl
 8018ae0:	6963      	ldrpl	r3, [r4, #20]
 8018ae2:	60a3      	str	r3, [r4, #8]
 8018ae4:	e7f2      	b.n	8018acc <__swsetup_r+0xac>
 8018ae6:	2000      	movs	r0, #0
 8018ae8:	e7f7      	b.n	8018ada <__swsetup_r+0xba>
 8018aea:	bf00      	nop
 8018aec:	20000020 	.word	0x20000020
 8018af0:	0801bbd0 	.word	0x0801bbd0
 8018af4:	0801bbf0 	.word	0x0801bbf0
 8018af8:	0801bbb0 	.word	0x0801bbb0

08018afc <quorem>:
 8018afc:	e92d 4ff7 	stmdb	sp!, {r0, r1, r2, r4, r5, r6, r7, r8, r9, sl, fp, lr}
 8018b00:	6903      	ldr	r3, [r0, #16]
 8018b02:	690c      	ldr	r4, [r1, #16]
 8018b04:	4680      	mov	r8, r0
 8018b06:	429c      	cmp	r4, r3
 8018b08:	f300 8082 	bgt.w	8018c10 <quorem+0x114>
 8018b0c:	3c01      	subs	r4, #1
 8018b0e:	f101 0714 	add.w	r7, r1, #20
 8018b12:	f100 0614 	add.w	r6, r0, #20
 8018b16:	f857 5024 	ldr.w	r5, [r7, r4, lsl #2]
 8018b1a:	f856 0024 	ldr.w	r0, [r6, r4, lsl #2]
 8018b1e:	3501      	adds	r5, #1
 8018b20:	fbb0 f5f5 	udiv	r5, r0, r5
 8018b24:	ea4f 0e84 	mov.w	lr, r4, lsl #2
 8018b28:	eb06 030e 	add.w	r3, r6, lr
 8018b2c:	eb07 090e 	add.w	r9, r7, lr
 8018b30:	9301      	str	r3, [sp, #4]
 8018b32:	b38d      	cbz	r5, 8018b98 <quorem+0x9c>
 8018b34:	f04f 0a00 	mov.w	sl, #0
 8018b38:	4638      	mov	r0, r7
 8018b3a:	46b4      	mov	ip, r6
 8018b3c:	46d3      	mov	fp, sl
 8018b3e:	f850 2b04 	ldr.w	r2, [r0], #4
 8018b42:	b293      	uxth	r3, r2
 8018b44:	fb05 a303 	mla	r3, r5, r3, sl
 8018b48:	0c12      	lsrs	r2, r2, #16
 8018b4a:	ea4f 4a13 	mov.w	sl, r3, lsr #16
 8018b4e:	fb05 a202 	mla	r2, r5, r2, sl
 8018b52:	b29b      	uxth	r3, r3
 8018b54:	ebab 0303 	sub.w	r3, fp, r3
 8018b58:	f8bc b000 	ldrh.w	fp, [ip]
 8018b5c:	ea4f 4a12 	mov.w	sl, r2, lsr #16
 8018b60:	445b      	add	r3, fp
 8018b62:	fa1f fb82 	uxth.w	fp, r2
 8018b66:	f8dc 2000 	ldr.w	r2, [ip]
 8018b6a:	4581      	cmp	r9, r0
 8018b6c:	ebcb 4212 	rsb	r2, fp, r2, lsr #16
 8018b70:	eb02 4223 	add.w	r2, r2, r3, asr #16
 8018b74:	b29b      	uxth	r3, r3
 8018b76:	ea43 4302 	orr.w	r3, r3, r2, lsl #16
 8018b7a:	ea4f 4b22 	mov.w	fp, r2, asr #16
 8018b7e:	f84c 3b04 	str.w	r3, [ip], #4
 8018b82:	d2dc      	bcs.n	8018b3e <quorem+0x42>
 8018b84:	f856 300e 	ldr.w	r3, [r6, lr]
 8018b88:	b933      	cbnz	r3, 8018b98 <quorem+0x9c>
 8018b8a:	9b01      	ldr	r3, [sp, #4]
 8018b8c:	3b04      	subs	r3, #4
 8018b8e:	429e      	cmp	r6, r3
 8018b90:	461a      	mov	r2, r3
 8018b92:	d331      	bcc.n	8018bf8 <quorem+0xfc>
 8018b94:	f8c8 4010 	str.w	r4, [r8, #16]
 8018b98:	4640      	mov	r0, r8
 8018b9a:	f001 ff2a 	bl	801a9f2 <__mcmp>
 8018b9e:	2800      	cmp	r0, #0
 8018ba0:	db26      	blt.n	8018bf0 <quorem+0xf4>
 8018ba2:	4630      	mov	r0, r6
 8018ba4:	f04f 0e00 	mov.w	lr, #0
 8018ba8:	3501      	adds	r5, #1
 8018baa:	f857 1b04 	ldr.w	r1, [r7], #4
 8018bae:	f8d0 c000 	ldr.w	ip, [r0]
 8018bb2:	b28b      	uxth	r3, r1
 8018bb4:	ebae 0303 	sub.w	r3, lr, r3
 8018bb8:	fa1f f28c 	uxth.w	r2, ip
 8018bbc:	4413      	add	r3, r2
 8018bbe:	0c0a      	lsrs	r2, r1, #16
 8018bc0:	ebc2 421c 	rsb	r2, r2, ip, lsr #16
 8018bc4:	eb02 4223 	add.w	r2, r2, r3, asr #16
 8018bc8:	b29b      	uxth	r3, r3
 8018bca:	ea43 4302 	orr.w	r3, r3, r2, lsl #16
 8018bce:	45b9      	cmp	r9, r7
 8018bd0:	ea4f 4e22 	mov.w	lr, r2, asr #16
 8018bd4:	f840 3b04 	str.w	r3, [r0], #4
 8018bd8:	d2e7      	bcs.n	8018baa <quorem+0xae>
 8018bda:	f856 2024 	ldr.w	r2, [r6, r4, lsl #2]
 8018bde:	eb06 0384 	add.w	r3, r6, r4, lsl #2
 8018be2:	b92a      	cbnz	r2, 8018bf0 <quorem+0xf4>
 8018be4:	3b04      	subs	r3, #4
 8018be6:	429e      	cmp	r6, r3
 8018be8:	461a      	mov	r2, r3
 8018bea:	d30b      	bcc.n	8018c04 <quorem+0x108>
 8018bec:	f8c8 4010 	str.w	r4, [r8, #16]
 8018bf0:	4628      	mov	r0, r5
 8018bf2:	b003      	add	sp, #12
 8018bf4:	e8bd 8ff0 	ldmia.w	sp!, {r4, r5, r6, r7, r8, r9, sl, fp, pc}
 8018bf8:	6812      	ldr	r2, [r2, #0]
 8018bfa:	3b04      	subs	r3, #4
 8018bfc:	2a00      	cmp	r2, #0
 8018bfe:	d1c9      	bne.n	8018b94 <quorem+0x98>
 8018c00:	3c01      	subs	r4, #1
 8018c02:	e7c4      	b.n	8018b8e <quorem+0x92>
 8018c04:	6812      	ldr	r2, [r2, #0]
 8018c06:	3b04      	subs	r3, #4
 8018c08:	2a00      	cmp	r2, #0
 8018c0a:	d1ef      	bne.n	8018bec <quorem+0xf0>
 8018c0c:	3c01      	subs	r4, #1
 8018c0e:	e7ea      	b.n	8018be6 <quorem+0xea>
 8018c10:	2000      	movs	r0, #0
 8018c12:	e7ee      	b.n	8018bf2 <quorem+0xf6>
 8018c14:	0000      	movs	r0, r0
	...

08018c18 <_dtoa_r>:
 8018c18:	e92d 4ff0 	stmdb	sp!, {r4, r5, r6, r7, r8, r9, sl, fp, lr}
 8018c1c:	6a46      	ldr	r6, [r0, #36]	; 0x24
 8018c1e:	b095      	sub	sp, #84	; 0x54
 8018c20:	4604      	mov	r4, r0
 8018c22:	9d21      	ldr	r5, [sp, #132]	; 0x84
 8018c24:	e9cd 2302 	strd	r2, r3, [sp, #8]
 8018c28:	b93e      	cbnz	r6, 8018c3a <_dtoa_r+0x22>
 8018c2a:	2010      	movs	r0, #16
 8018c2c:	f001 fa7e 	bl	801a12c <malloc>
 8018c30:	6260      	str	r0, [r4, #36]	; 0x24
 8018c32:	6046      	str	r6, [r0, #4]
 8018c34:	6086      	str	r6, [r0, #8]
 8018c36:	6006      	str	r6, [r0, #0]
 8018c38:	60c6      	str	r6, [r0, #12]
 8018c3a:	6a63      	ldr	r3, [r4, #36]	; 0x24
 8018c3c:	6819      	ldr	r1, [r3, #0]
 8018c3e:	b151      	cbz	r1, 8018c56 <_dtoa_r+0x3e>
 8018c40:	685a      	ldr	r2, [r3, #4]
 8018c42:	2301      	movs	r3, #1
 8018c44:	4093      	lsls	r3, r2
 8018c46:	604a      	str	r2, [r1, #4]
 8018c48:	608b      	str	r3, [r1, #8]
 8018c4a:	4620      	mov	r0, r4
 8018c4c:	f001 fcfc 	bl	801a648 <_Bfree>
 8018c50:	2200      	movs	r2, #0
 8018c52:	6a63      	ldr	r3, [r4, #36]	; 0x24
 8018c54:	601a      	str	r2, [r3, #0]
 8018c56:	9b03      	ldr	r3, [sp, #12]
 8018c58:	2b00      	cmp	r3, #0
 8018c5a:	bfb7      	itett	lt
 8018c5c:	2301      	movlt	r3, #1
 8018c5e:	2300      	movge	r3, #0
 8018c60:	602b      	strlt	r3, [r5, #0]
 8018c62:	9b03      	ldrlt	r3, [sp, #12]
 8018c64:	bfae      	itee	ge
 8018c66:	602b      	strge	r3, [r5, #0]
 8018c68:	f023 4300 	biclt.w	r3, r3, #2147483648	; 0x80000000
 8018c6c:	9303      	strlt	r3, [sp, #12]
 8018c6e:	f8dd 900c 	ldr.w	r9, [sp, #12]
 8018c72:	4bab      	ldr	r3, [pc, #684]	; (8018f20 <_dtoa_r+0x308>)
 8018c74:	ea33 0309 	bics.w	r3, r3, r9
 8018c78:	d11b      	bne.n	8018cb2 <_dtoa_r+0x9a>
 8018c7a:	f242 730f 	movw	r3, #9999	; 0x270f
 8018c7e:	9a20      	ldr	r2, [sp, #128]	; 0x80
 8018c80:	6013      	str	r3, [r2, #0]
 8018c82:	9b02      	ldr	r3, [sp, #8]
 8018c84:	b923      	cbnz	r3, 8018c90 <_dtoa_r+0x78>
 8018c86:	f3c9 0013 	ubfx	r0, r9, #0, #20
 8018c8a:	2800      	cmp	r0, #0
 8018c8c:	f000 8583 	beq.w	8019796 <_dtoa_r+0xb7e>
 8018c90:	9b22      	ldr	r3, [sp, #136]	; 0x88
 8018c92:	b953      	cbnz	r3, 8018caa <_dtoa_r+0x92>
 8018c94:	4ba3      	ldr	r3, [pc, #652]	; (8018f24 <_dtoa_r+0x30c>)
 8018c96:	e021      	b.n	8018cdc <_dtoa_r+0xc4>
 8018c98:	4ba3      	ldr	r3, [pc, #652]	; (8018f28 <_dtoa_r+0x310>)
 8018c9a:	9306      	str	r3, [sp, #24]
 8018c9c:	3308      	adds	r3, #8
 8018c9e:	9a22      	ldr	r2, [sp, #136]	; 0x88
 8018ca0:	6013      	str	r3, [r2, #0]
 8018ca2:	9806      	ldr	r0, [sp, #24]
 8018ca4:	b015      	add	sp, #84	; 0x54
 8018ca6:	e8bd 8ff0 	ldmia.w	sp!, {r4, r5, r6, r7, r8, r9, sl, fp, pc}
 8018caa:	4b9e      	ldr	r3, [pc, #632]	; (8018f24 <_dtoa_r+0x30c>)
 8018cac:	9306      	str	r3, [sp, #24]
 8018cae:	3303      	adds	r3, #3
 8018cb0:	e7f5      	b.n	8018c9e <_dtoa_r+0x86>
 8018cb2:	e9dd 6702 	ldrd	r6, r7, [sp, #8]
 8018cb6:	2200      	movs	r2, #0
 8018cb8:	2300      	movs	r3, #0
 8018cba:	4630      	mov	r0, r6
 8018cbc:	4639      	mov	r1, r7
 8018cbe:	f7f7 fee5 	bl	8010a8c <__aeabi_dcmpeq>
 8018cc2:	4680      	mov	r8, r0
 8018cc4:	b160      	cbz	r0, 8018ce0 <_dtoa_r+0xc8>
 8018cc6:	2301      	movs	r3, #1
 8018cc8:	9a20      	ldr	r2, [sp, #128]	; 0x80
 8018cca:	6013      	str	r3, [r2, #0]
 8018ccc:	9b22      	ldr	r3, [sp, #136]	; 0x88
 8018cce:	2b00      	cmp	r3, #0
 8018cd0:	f000 855e 	beq.w	8019790 <_dtoa_r+0xb78>
 8018cd4:	4b95      	ldr	r3, [pc, #596]	; (8018f2c <_dtoa_r+0x314>)
 8018cd6:	9a22      	ldr	r2, [sp, #136]	; 0x88
 8018cd8:	6013      	str	r3, [r2, #0]
 8018cda:	3b01      	subs	r3, #1
 8018cdc:	9306      	str	r3, [sp, #24]
 8018cde:	e7e0      	b.n	8018ca2 <_dtoa_r+0x8a>
 8018ce0:	ab12      	add	r3, sp, #72	; 0x48
 8018ce2:	9301      	str	r3, [sp, #4]
 8018ce4:	ab13      	add	r3, sp, #76	; 0x4c
 8018ce6:	9300      	str	r3, [sp, #0]
 8018ce8:	4632      	mov	r2, r6
 8018cea:	463b      	mov	r3, r7
 8018cec:	4620      	mov	r0, r4
 8018cee:	f001 fef9 	bl	801aae4 <__d2b>
 8018cf2:	f3c9 550a 	ubfx	r5, r9, #20, #11
 8018cf6:	4682      	mov	sl, r0
 8018cf8:	2d00      	cmp	r5, #0
 8018cfa:	d07d      	beq.n	8018df8 <_dtoa_r+0x1e0>
 8018cfc:	4630      	mov	r0, r6
 8018cfe:	f3c7 0313 	ubfx	r3, r7, #0, #20
 8018d02:	f043 517f 	orr.w	r1, r3, #1069547520	; 0x3fc00000
 8018d06:	f441 1140 	orr.w	r1, r1, #3145728	; 0x300000
 8018d0a:	f2a5 35ff 	subw	r5, r5, #1023	; 0x3ff
 8018d0e:	f8cd 8040 	str.w	r8, [sp, #64]	; 0x40
 8018d12:	2200      	movs	r2, #0
 8018d14:	4b86      	ldr	r3, [pc, #536]	; (8018f30 <_dtoa_r+0x318>)
 8018d16:	f7f7 fa9d 	bl	8010254 <__aeabi_dsub>
 8018d1a:	a37b      	add	r3, pc, #492	; (adr r3, 8018f08 <_dtoa_r+0x2f0>)
 8018d1c:	e9d3 2300 	ldrd	r2, r3, [r3]
 8018d20:	f7f7 fc4c 	bl	80105bc <__aeabi_dmul>
 8018d24:	a37a      	add	r3, pc, #488	; (adr r3, 8018f10 <_dtoa_r+0x2f8>)
 8018d26:	e9d3 2300 	ldrd	r2, r3, [r3]
 8018d2a:	f7f7 fa95 	bl	8010258 <__adddf3>
 8018d2e:	4606      	mov	r6, r0
 8018d30:	4628      	mov	r0, r5
 8018d32:	460f      	mov	r7, r1
 8018d34:	f7f7 fbdc 	bl	80104f0 <__aeabi_i2d>
 8018d38:	a377      	add	r3, pc, #476	; (adr r3, 8018f18 <_dtoa_r+0x300>)
 8018d3a:	e9d3 2300 	ldrd	r2, r3, [r3]
 8018d3e:	f7f7 fc3d 	bl	80105bc <__aeabi_dmul>
 8018d42:	4602      	mov	r2, r0
 8018d44:	460b      	mov	r3, r1
 8018d46:	4630      	mov	r0, r6
 8018d48:	4639      	mov	r1, r7
 8018d4a:	f7f7 fa85 	bl	8010258 <__adddf3>
 8018d4e:	4606      	mov	r6, r0
 8018d50:	460f      	mov	r7, r1
 8018d52:	f7f7 fee3 	bl	8010b1c <__aeabi_d2iz>
 8018d56:	2200      	movs	r2, #0
 8018d58:	4683      	mov	fp, r0
 8018d5a:	2300      	movs	r3, #0
 8018d5c:	4630      	mov	r0, r6
 8018d5e:	4639      	mov	r1, r7
 8018d60:	f7f7 fe9e 	bl	8010aa0 <__aeabi_dcmplt>
 8018d64:	b158      	cbz	r0, 8018d7e <_dtoa_r+0x166>
 8018d66:	4658      	mov	r0, fp
 8018d68:	f7f7 fbc2 	bl	80104f0 <__aeabi_i2d>
 8018d6c:	4602      	mov	r2, r0
 8018d6e:	460b      	mov	r3, r1
 8018d70:	4630      	mov	r0, r6
 8018d72:	4639      	mov	r1, r7
 8018d74:	f7f7 fe8a 	bl	8010a8c <__aeabi_dcmpeq>
 8018d78:	b908      	cbnz	r0, 8018d7e <_dtoa_r+0x166>
 8018d7a:	f10b 3bff 	add.w	fp, fp, #4294967295
 8018d7e:	f1bb 0f16 	cmp.w	fp, #22
 8018d82:	d858      	bhi.n	8018e36 <_dtoa_r+0x21e>
 8018d84:	e9dd 2302 	ldrd	r2, r3, [sp, #8]
 8018d88:	496a      	ldr	r1, [pc, #424]	; (8018f34 <_dtoa_r+0x31c>)
 8018d8a:	eb01 01cb 	add.w	r1, r1, fp, lsl #3
 8018d8e:	e9d1 0100 	ldrd	r0, r1, [r1]
 8018d92:	f7f7 fea3 	bl	8010adc <__aeabi_dcmpgt>
 8018d96:	2800      	cmp	r0, #0
 8018d98:	d04f      	beq.n	8018e3a <_dtoa_r+0x222>
 8018d9a:	2300      	movs	r3, #0
 8018d9c:	f10b 3bff 	add.w	fp, fp, #4294967295
 8018da0:	930d      	str	r3, [sp, #52]	; 0x34
 8018da2:	9b12      	ldr	r3, [sp, #72]	; 0x48
 8018da4:	1b5d      	subs	r5, r3, r5
 8018da6:	1e6b      	subs	r3, r5, #1
 8018da8:	9307      	str	r3, [sp, #28]
 8018daa:	bf43      	ittte	mi
 8018dac:	2300      	movmi	r3, #0
 8018dae:	f1c5 0801 	rsbmi	r8, r5, #1
 8018db2:	9307      	strmi	r3, [sp, #28]
 8018db4:	f04f 0800 	movpl.w	r8, #0
 8018db8:	f1bb 0f00 	cmp.w	fp, #0
 8018dbc:	db3f      	blt.n	8018e3e <_dtoa_r+0x226>
 8018dbe:	9b07      	ldr	r3, [sp, #28]
 8018dc0:	f8cd b030 	str.w	fp, [sp, #48]	; 0x30
 8018dc4:	445b      	add	r3, fp
 8018dc6:	9307      	str	r3, [sp, #28]
 8018dc8:	2300      	movs	r3, #0
 8018dca:	9308      	str	r3, [sp, #32]
 8018dcc:	9b1e      	ldr	r3, [sp, #120]	; 0x78
 8018dce:	2b09      	cmp	r3, #9
 8018dd0:	f200 80b4 	bhi.w	8018f3c <_dtoa_r+0x324>
 8018dd4:	2b05      	cmp	r3, #5
 8018dd6:	bfc4      	itt	gt
 8018dd8:	3b04      	subgt	r3, #4
 8018dda:	931e      	strgt	r3, [sp, #120]	; 0x78
 8018ddc:	9b1e      	ldr	r3, [sp, #120]	; 0x78
 8018dde:	bfc8      	it	gt
 8018de0:	2600      	movgt	r6, #0
 8018de2:	f1a3 0302 	sub.w	r3, r3, #2
 8018de6:	bfd8      	it	le
 8018de8:	2601      	movle	r6, #1
 8018dea:	2b03      	cmp	r3, #3
 8018dec:	f200 80b2 	bhi.w	8018f54 <_dtoa_r+0x33c>
 8018df0:	e8df f003 	tbb	[pc, r3]
 8018df4:	782d8684 	.word	0x782d8684
 8018df8:	9b13      	ldr	r3, [sp, #76]	; 0x4c
 8018dfa:	9d12      	ldr	r5, [sp, #72]	; 0x48
 8018dfc:	441d      	add	r5, r3
 8018dfe:	f205 4332 	addw	r3, r5, #1074	; 0x432
 8018e02:	2b20      	cmp	r3, #32
 8018e04:	dd11      	ble.n	8018e2a <_dtoa_r+0x212>
 8018e06:	9a02      	ldr	r2, [sp, #8]
 8018e08:	f205 4012 	addw	r0, r5, #1042	; 0x412
 8018e0c:	f1c3 0340 	rsb	r3, r3, #64	; 0x40
 8018e10:	fa22 f000 	lsr.w	r0, r2, r0
 8018e14:	fa09 f303 	lsl.w	r3, r9, r3
 8018e18:	4318      	orrs	r0, r3
 8018e1a:	f7f7 fb59 	bl	80104d0 <__aeabi_ui2d>
 8018e1e:	2301      	movs	r3, #1
 8018e20:	f1a1 71f8 	sub.w	r1, r1, #32505856	; 0x1f00000
 8018e24:	3d01      	subs	r5, #1
 8018e26:	9310      	str	r3, [sp, #64]	; 0x40
 8018e28:	e773      	b.n	8018d12 <_dtoa_r+0xfa>
 8018e2a:	f1c3 0020 	rsb	r0, r3, #32
 8018e2e:	9b02      	ldr	r3, [sp, #8]
 8018e30:	fa03 f000 	lsl.w	r0, r3, r0
 8018e34:	e7f1      	b.n	8018e1a <_dtoa_r+0x202>
 8018e36:	2301      	movs	r3, #1
 8018e38:	e7b2      	b.n	8018da0 <_dtoa_r+0x188>
 8018e3a:	900d      	str	r0, [sp, #52]	; 0x34
 8018e3c:	e7b1      	b.n	8018da2 <_dtoa_r+0x18a>
 8018e3e:	f1cb 0300 	rsb	r3, fp, #0
 8018e42:	9308      	str	r3, [sp, #32]
 8018e44:	2300      	movs	r3, #0
 8018e46:	eba8 080b 	sub.w	r8, r8, fp
 8018e4a:	930c      	str	r3, [sp, #48]	; 0x30
 8018e4c:	e7be      	b.n	8018dcc <_dtoa_r+0x1b4>
 8018e4e:	2301      	movs	r3, #1
 8018e50:	9309      	str	r3, [sp, #36]	; 0x24
 8018e52:	9b1f      	ldr	r3, [sp, #124]	; 0x7c
 8018e54:	2b00      	cmp	r3, #0
 8018e56:	f340 8080 	ble.w	8018f5a <_dtoa_r+0x342>
 8018e5a:	4699      	mov	r9, r3
 8018e5c:	9304      	str	r3, [sp, #16]
 8018e5e:	2200      	movs	r2, #0
 8018e60:	2104      	movs	r1, #4
 8018e62:	6a65      	ldr	r5, [r4, #36]	; 0x24
 8018e64:	606a      	str	r2, [r5, #4]
 8018e66:	f101 0214 	add.w	r2, r1, #20
 8018e6a:	429a      	cmp	r2, r3
 8018e6c:	d97a      	bls.n	8018f64 <_dtoa_r+0x34c>
 8018e6e:	6869      	ldr	r1, [r5, #4]
 8018e70:	4620      	mov	r0, r4
 8018e72:	f001 fbb5 	bl	801a5e0 <_Balloc>
 8018e76:	6a63      	ldr	r3, [r4, #36]	; 0x24
 8018e78:	6028      	str	r0, [r5, #0]
 8018e7a:	681b      	ldr	r3, [r3, #0]
 8018e7c:	f1b9 0f0e 	cmp.w	r9, #14
 8018e80:	9306      	str	r3, [sp, #24]
 8018e82:	f200 80f0 	bhi.w	8019066 <_dtoa_r+0x44e>
 8018e86:	2e00      	cmp	r6, #0
 8018e88:	f000 80ed 	beq.w	8019066 <_dtoa_r+0x44e>
 8018e8c:	e9dd 2302 	ldrd	r2, r3, [sp, #8]
 8018e90:	f1bb 0f00 	cmp.w	fp, #0
 8018e94:	e9cd 230e 	strd	r2, r3, [sp, #56]	; 0x38
 8018e98:	dd79      	ble.n	8018f8e <_dtoa_r+0x376>
 8018e9a:	4a26      	ldr	r2, [pc, #152]	; (8018f34 <_dtoa_r+0x31c>)
 8018e9c:	f00b 030f 	and.w	r3, fp, #15
 8018ea0:	ea4f 162b 	mov.w	r6, fp, asr #4
 8018ea4:	eb02 03c3 	add.w	r3, r2, r3, lsl #3
 8018ea8:	06f0      	lsls	r0, r6, #27
 8018eaa:	e9d3 2300 	ldrd	r2, r3, [r3]
 8018eae:	e9cd 230a 	strd	r2, r3, [sp, #40]	; 0x28
 8018eb2:	d55c      	bpl.n	8018f6e <_dtoa_r+0x356>
 8018eb4:	e9dd 010e 	ldrd	r0, r1, [sp, #56]	; 0x38
 8018eb8:	4b1f      	ldr	r3, [pc, #124]	; (8018f38 <_dtoa_r+0x320>)
 8018eba:	2503      	movs	r5, #3
 8018ebc:	e9d3 2308 	ldrd	r2, r3, [r3, #32]
 8018ec0:	f7f7 fca6 	bl	8010810 <__aeabi_ddiv>
 8018ec4:	e9cd 0102 	strd	r0, r1, [sp, #8]
 8018ec8:	f006 060f 	and.w	r6, r6, #15
 8018ecc:	4f1a      	ldr	r7, [pc, #104]	; (8018f38 <_dtoa_r+0x320>)
 8018ece:	2e00      	cmp	r6, #0
 8018ed0:	d14f      	bne.n	8018f72 <_dtoa_r+0x35a>
 8018ed2:	e9dd 230a 	ldrd	r2, r3, [sp, #40]	; 0x28
 8018ed6:	e9dd 0102 	ldrd	r0, r1, [sp, #8]
 8018eda:	f7f7 fc99 	bl	8010810 <__aeabi_ddiv>
 8018ede:	e9cd 0102 	strd	r0, r1, [sp, #8]
 8018ee2:	e06e      	b.n	8018fc2 <_dtoa_r+0x3aa>
 8018ee4:	2301      	movs	r3, #1
 8018ee6:	9309      	str	r3, [sp, #36]	; 0x24
 8018ee8:	9b1f      	ldr	r3, [sp, #124]	; 0x7c
 8018eea:	445b      	add	r3, fp
 8018eec:	f103 0901 	add.w	r9, r3, #1
 8018ef0:	9304      	str	r3, [sp, #16]
 8018ef2:	464b      	mov	r3, r9
 8018ef4:	2b01      	cmp	r3, #1
 8018ef6:	bfb8      	it	lt
 8018ef8:	2301      	movlt	r3, #1
 8018efa:	e7b0      	b.n	8018e5e <_dtoa_r+0x246>
 8018efc:	2300      	movs	r3, #0
 8018efe:	e7a7      	b.n	8018e50 <_dtoa_r+0x238>
 8018f00:	2300      	movs	r3, #0
 8018f02:	e7f0      	b.n	8018ee6 <_dtoa_r+0x2ce>
 8018f04:	f3af 8000 	nop.w
 8018f08:	636f4361 	.word	0x636f4361
 8018f0c:	3fd287a7 	.word	0x3fd287a7
 8018f10:	8b60c8b3 	.word	0x8b60c8b3
 8018f14:	3fc68a28 	.word	0x3fc68a28
 8018f18:	509f79fb 	.word	0x509f79fb
 8018f1c:	3fd34413 	.word	0x3fd34413
 8018f20:	7ff00000 	.word	0x7ff00000
 8018f24:	0801bbac 	.word	0x0801bbac
 8018f28:	0801bba3 	.word	0x0801bba3
 8018f2c:	0801bb3d 	.word	0x0801bb3d
 8018f30:	3ff80000 	.word	0x3ff80000
 8018f34:	0801bc48 	.word	0x0801bc48
 8018f38:	0801bc20 	.word	0x0801bc20
 8018f3c:	2601      	movs	r6, #1
 8018f3e:	2300      	movs	r3, #0
 8018f40:	9609      	str	r6, [sp, #36]	; 0x24
 8018f42:	931e      	str	r3, [sp, #120]	; 0x78
 8018f44:	f04f 33ff 	mov.w	r3, #4294967295
 8018f48:	2200      	movs	r2, #0
 8018f4a:	9304      	str	r3, [sp, #16]
 8018f4c:	4699      	mov	r9, r3
 8018f4e:	2312      	movs	r3, #18
 8018f50:	921f      	str	r2, [sp, #124]	; 0x7c
 8018f52:	e784      	b.n	8018e5e <_dtoa_r+0x246>
 8018f54:	2301      	movs	r3, #1
 8018f56:	9309      	str	r3, [sp, #36]	; 0x24
 8018f58:	e7f4      	b.n	8018f44 <_dtoa_r+0x32c>
 8018f5a:	2301      	movs	r3, #1
 8018f5c:	9304      	str	r3, [sp, #16]
 8018f5e:	4699      	mov	r9, r3
 8018f60:	461a      	mov	r2, r3
 8018f62:	e7f5      	b.n	8018f50 <_dtoa_r+0x338>
 8018f64:	686a      	ldr	r2, [r5, #4]
 8018f66:	0049      	lsls	r1, r1, #1
 8018f68:	3201      	adds	r2, #1
 8018f6a:	606a      	str	r2, [r5, #4]
 8018f6c:	e77b      	b.n	8018e66 <_dtoa_r+0x24e>
 8018f6e:	2502      	movs	r5, #2
 8018f70:	e7ac      	b.n	8018ecc <_dtoa_r+0x2b4>
 8018f72:	07f1      	lsls	r1, r6, #31
 8018f74:	d508      	bpl.n	8018f88 <_dtoa_r+0x370>
 8018f76:	e9dd 010a 	ldrd	r0, r1, [sp, #40]	; 0x28
 8018f7a:	e9d7 2300 	ldrd	r2, r3, [r7]
 8018f7e:	f7f7 fb1d 	bl	80105bc <__aeabi_dmul>
 8018f82:	e9cd 010a 	strd	r0, r1, [sp, #40]	; 0x28
 8018f86:	3501      	adds	r5, #1
 8018f88:	1076      	asrs	r6, r6, #1
 8018f8a:	3708      	adds	r7, #8
 8018f8c:	e79f      	b.n	8018ece <_dtoa_r+0x2b6>
 8018f8e:	f000 80a5 	beq.w	80190dc <_dtoa_r+0x4c4>
 8018f92:	e9dd 010e 	ldrd	r0, r1, [sp, #56]	; 0x38
 8018f96:	f1cb 0600 	rsb	r6, fp, #0
 8018f9a:	4ba2      	ldr	r3, [pc, #648]	; (8019224 <_dtoa_r+0x60c>)
 8018f9c:	f006 020f 	and.w	r2, r6, #15
 8018fa0:	eb03 03c2 	add.w	r3, r3, r2, lsl #3
 8018fa4:	e9d3 2300 	ldrd	r2, r3, [r3]
 8018fa8:	f7f7 fb08 	bl	80105bc <__aeabi_dmul>
 8018fac:	2502      	movs	r5, #2
 8018fae:	2300      	movs	r3, #0
 8018fb0:	e9cd 0102 	strd	r0, r1, [sp, #8]
 8018fb4:	4f9c      	ldr	r7, [pc, #624]	; (8019228 <_dtoa_r+0x610>)
 8018fb6:	1136      	asrs	r6, r6, #4
 8018fb8:	2e00      	cmp	r6, #0
 8018fba:	f040 8084 	bne.w	80190c6 <_dtoa_r+0x4ae>
 8018fbe:	2b00      	cmp	r3, #0
 8018fc0:	d18d      	bne.n	8018ede <_dtoa_r+0x2c6>
 8018fc2:	9b0d      	ldr	r3, [sp, #52]	; 0x34
 8018fc4:	2b00      	cmp	r3, #0
 8018fc6:	f000 808b 	beq.w	80190e0 <_dtoa_r+0x4c8>
 8018fca:	e9dd 2302 	ldrd	r2, r3, [sp, #8]
 8018fce:	e9cd 230a 	strd	r2, r3, [sp, #40]	; 0x28
 8018fd2:	e9dd 010a 	ldrd	r0, r1, [sp, #40]	; 0x28
 8018fd6:	2200      	movs	r2, #0
 8018fd8:	4b94      	ldr	r3, [pc, #592]	; (801922c <_dtoa_r+0x614>)
 8018fda:	f7f7 fd61 	bl	8010aa0 <__aeabi_dcmplt>
 8018fde:	2800      	cmp	r0, #0
 8018fe0:	d07e      	beq.n	80190e0 <_dtoa_r+0x4c8>
 8018fe2:	f1b9 0f00 	cmp.w	r9, #0
 8018fe6:	d07b      	beq.n	80190e0 <_dtoa_r+0x4c8>
 8018fe8:	9b04      	ldr	r3, [sp, #16]
 8018fea:	2b00      	cmp	r3, #0
 8018fec:	dd37      	ble.n	801905e <_dtoa_r+0x446>
 8018fee:	e9dd 010a 	ldrd	r0, r1, [sp, #40]	; 0x28
 8018ff2:	2200      	movs	r2, #0
 8018ff4:	4b8e      	ldr	r3, [pc, #568]	; (8019230 <_dtoa_r+0x618>)
 8018ff6:	f7f7 fae1 	bl	80105bc <__aeabi_dmul>
 8018ffa:	e9cd 0102 	strd	r0, r1, [sp, #8]
 8018ffe:	9e04      	ldr	r6, [sp, #16]
 8019000:	f10b 37ff 	add.w	r7, fp, #4294967295
 8019004:	3501      	adds	r5, #1
 8019006:	4628      	mov	r0, r5
 8019008:	f7f7 fa72 	bl	80104f0 <__aeabi_i2d>
 801900c:	e9dd 2302 	ldrd	r2, r3, [sp, #8]
 8019010:	f7f7 fad4 	bl	80105bc <__aeabi_dmul>
 8019014:	4b87      	ldr	r3, [pc, #540]	; (8019234 <_dtoa_r+0x61c>)
 8019016:	2200      	movs	r2, #0
 8019018:	f7f7 f91e 	bl	8010258 <__adddf3>
 801901c:	e9cd 010a 	strd	r0, r1, [sp, #40]	; 0x28
 8019020:	9b0b      	ldr	r3, [sp, #44]	; 0x2c
 8019022:	f1a3 7550 	sub.w	r5, r3, #54525952	; 0x3400000
 8019026:	950b      	str	r5, [sp, #44]	; 0x2c
 8019028:	2e00      	cmp	r6, #0
 801902a:	d15c      	bne.n	80190e6 <_dtoa_r+0x4ce>
 801902c:	e9dd 0102 	ldrd	r0, r1, [sp, #8]
 8019030:	2200      	movs	r2, #0
 8019032:	4b81      	ldr	r3, [pc, #516]	; (8019238 <_dtoa_r+0x620>)
 8019034:	f7f7 f90e 	bl	8010254 <__aeabi_dsub>
 8019038:	9a0a      	ldr	r2, [sp, #40]	; 0x28
 801903a:	462b      	mov	r3, r5
 801903c:	e9cd 0102 	strd	r0, r1, [sp, #8]
 8019040:	f7f7 fd4c 	bl	8010adc <__aeabi_dcmpgt>
 8019044:	2800      	cmp	r0, #0
 8019046:	f040 82f7 	bne.w	8019638 <_dtoa_r+0xa20>
 801904a:	e9dd 0102 	ldrd	r0, r1, [sp, #8]
 801904e:	9a0a      	ldr	r2, [sp, #40]	; 0x28
 8019050:	f105 4300 	add.w	r3, r5, #2147483648	; 0x80000000
 8019054:	f7f7 fd24 	bl	8010aa0 <__aeabi_dcmplt>
 8019058:	2800      	cmp	r0, #0
 801905a:	f040 82eb 	bne.w	8019634 <_dtoa_r+0xa1c>
 801905e:	e9dd 230e 	ldrd	r2, r3, [sp, #56]	; 0x38
 8019062:	e9cd 2302 	strd	r2, r3, [sp, #8]
 8019066:	9b13      	ldr	r3, [sp, #76]	; 0x4c
 8019068:	2b00      	cmp	r3, #0
 801906a:	f2c0 8150 	blt.w	801930e <_dtoa_r+0x6f6>
 801906e:	f1bb 0f0e 	cmp.w	fp, #14
 8019072:	f300 814c 	bgt.w	801930e <_dtoa_r+0x6f6>
 8019076:	4b6b      	ldr	r3, [pc, #428]	; (8019224 <_dtoa_r+0x60c>)
 8019078:	eb03 03cb 	add.w	r3, r3, fp, lsl #3
 801907c:	e9d3 2300 	ldrd	r2, r3, [r3]
 8019080:	e9cd 2304 	strd	r2, r3, [sp, #16]
 8019084:	9b1f      	ldr	r3, [sp, #124]	; 0x7c
 8019086:	2b00      	cmp	r3, #0
 8019088:	f280 80da 	bge.w	8019240 <_dtoa_r+0x628>
 801908c:	f1b9 0f00 	cmp.w	r9, #0
 8019090:	f300 80d6 	bgt.w	8019240 <_dtoa_r+0x628>
 8019094:	f040 82cd 	bne.w	8019632 <_dtoa_r+0xa1a>
 8019098:	e9dd 0104 	ldrd	r0, r1, [sp, #16]
 801909c:	2200      	movs	r2, #0
 801909e:	4b66      	ldr	r3, [pc, #408]	; (8019238 <_dtoa_r+0x620>)
 80190a0:	f7f7 fa8c 	bl	80105bc <__aeabi_dmul>
 80190a4:	e9dd 2302 	ldrd	r2, r3, [sp, #8]
 80190a8:	f7f7 fd0e 	bl	8010ac8 <__aeabi_dcmpge>
 80190ac:	464e      	mov	r6, r9
 80190ae:	464f      	mov	r7, r9
 80190b0:	2800      	cmp	r0, #0
 80190b2:	f040 82a4 	bne.w	80195fe <_dtoa_r+0x9e6>
 80190b6:	9b06      	ldr	r3, [sp, #24]
 80190b8:	9a06      	ldr	r2, [sp, #24]
 80190ba:	1c5d      	adds	r5, r3, #1
 80190bc:	2331      	movs	r3, #49	; 0x31
 80190be:	f10b 0b01 	add.w	fp, fp, #1
 80190c2:	7013      	strb	r3, [r2, #0]
 80190c4:	e29f      	b.n	8019606 <_dtoa_r+0x9ee>
 80190c6:	07f2      	lsls	r2, r6, #31
 80190c8:	d505      	bpl.n	80190d6 <_dtoa_r+0x4be>
 80190ca:	e9d7 2300 	ldrd	r2, r3, [r7]
 80190ce:	f7f7 fa75 	bl	80105bc <__aeabi_dmul>
 80190d2:	2301      	movs	r3, #1
 80190d4:	3501      	adds	r5, #1
 80190d6:	1076      	asrs	r6, r6, #1
 80190d8:	3708      	adds	r7, #8
 80190da:	e76d      	b.n	8018fb8 <_dtoa_r+0x3a0>
 80190dc:	2502      	movs	r5, #2
 80190de:	e770      	b.n	8018fc2 <_dtoa_r+0x3aa>
 80190e0:	465f      	mov	r7, fp
 80190e2:	464e      	mov	r6, r9
 80190e4:	e78f      	b.n	8019006 <_dtoa_r+0x3ee>
 80190e6:	9a06      	ldr	r2, [sp, #24]
 80190e8:	4b4e      	ldr	r3, [pc, #312]	; (8019224 <_dtoa_r+0x60c>)
 80190ea:	4432      	add	r2, r6
 80190ec:	9211      	str	r2, [sp, #68]	; 0x44
 80190ee:	9a09      	ldr	r2, [sp, #36]	; 0x24
 80190f0:	1e71      	subs	r1, r6, #1
 80190f2:	2a00      	cmp	r2, #0
 80190f4:	d048      	beq.n	8019188 <_dtoa_r+0x570>
 80190f6:	eb03 03c1 	add.w	r3, r3, r1, lsl #3
 80190fa:	e9d3 2300 	ldrd	r2, r3, [r3]
 80190fe:	2000      	movs	r0, #0
 8019100:	494e      	ldr	r1, [pc, #312]	; (801923c <_dtoa_r+0x624>)
 8019102:	f7f7 fb85 	bl	8010810 <__aeabi_ddiv>
 8019106:	e9dd 230a 	ldrd	r2, r3, [sp, #40]	; 0x28
 801910a:	f7f7 f8a3 	bl	8010254 <__aeabi_dsub>
 801910e:	e9cd 010a 	strd	r0, r1, [sp, #40]	; 0x28
 8019112:	9d06      	ldr	r5, [sp, #24]
 8019114:	e9dd 0102 	ldrd	r0, r1, [sp, #8]
 8019118:	f7f7 fd00 	bl	8010b1c <__aeabi_d2iz>
 801911c:	4606      	mov	r6, r0
 801911e:	f7f7 f9e7 	bl	80104f0 <__aeabi_i2d>
 8019122:	4602      	mov	r2, r0
 8019124:	460b      	mov	r3, r1
 8019126:	e9dd 0102 	ldrd	r0, r1, [sp, #8]
 801912a:	f7f7 f893 	bl	8010254 <__aeabi_dsub>
 801912e:	e9dd 230a 	ldrd	r2, r3, [sp, #40]	; 0x28
 8019132:	3630      	adds	r6, #48	; 0x30
 8019134:	f805 6b01 	strb.w	r6, [r5], #1
 8019138:	e9cd 0102 	strd	r0, r1, [sp, #8]
 801913c:	f7f7 fcb0 	bl	8010aa0 <__aeabi_dcmplt>
 8019140:	2800      	cmp	r0, #0
 8019142:	d164      	bne.n	801920e <_dtoa_r+0x5f6>
 8019144:	e9dd 2302 	ldrd	r2, r3, [sp, #8]
 8019148:	2000      	movs	r0, #0
 801914a:	4938      	ldr	r1, [pc, #224]	; (801922c <_dtoa_r+0x614>)
 801914c:	f7f7 f882 	bl	8010254 <__aeabi_dsub>
 8019150:	e9dd 230a 	ldrd	r2, r3, [sp, #40]	; 0x28
 8019154:	f7f7 fca4 	bl	8010aa0 <__aeabi_dcmplt>
 8019158:	2800      	cmp	r0, #0
 801915a:	f040 80b9 	bne.w	80192d0 <_dtoa_r+0x6b8>
 801915e:	9b11      	ldr	r3, [sp, #68]	; 0x44
 8019160:	429d      	cmp	r5, r3
 8019162:	f43f af7c 	beq.w	801905e <_dtoa_r+0x446>
 8019166:	e9dd 010a 	ldrd	r0, r1, [sp, #40]	; 0x28
 801916a:	2200      	movs	r2, #0
 801916c:	4b30      	ldr	r3, [pc, #192]	; (8019230 <_dtoa_r+0x618>)
 801916e:	f7f7 fa25 	bl	80105bc <__aeabi_dmul>
 8019172:	2200      	movs	r2, #0
 8019174:	e9cd 010a 	strd	r0, r1, [sp, #40]	; 0x28
 8019178:	e9dd 0102 	ldrd	r0, r1, [sp, #8]
 801917c:	4b2c      	ldr	r3, [pc, #176]	; (8019230 <_dtoa_r+0x618>)
 801917e:	f7f7 fa1d 	bl	80105bc <__aeabi_dmul>
 8019182:	e9cd 0102 	strd	r0, r1, [sp, #8]
 8019186:	e7c5      	b.n	8019114 <_dtoa_r+0x4fc>
 8019188:	eb03 01c1 	add.w	r1, r3, r1, lsl #3
 801918c:	e9d1 0100 	ldrd	r0, r1, [r1]
 8019190:	e9dd 230a 	ldrd	r2, r3, [sp, #40]	; 0x28
 8019194:	f7f7 fa12 	bl	80105bc <__aeabi_dmul>
 8019198:	e9cd 010a 	strd	r0, r1, [sp, #40]	; 0x28
 801919c:	9d06      	ldr	r5, [sp, #24]
 801919e:	e9dd 0102 	ldrd	r0, r1, [sp, #8]
 80191a2:	f7f7 fcbb 	bl	8010b1c <__aeabi_d2iz>
 80191a6:	4606      	mov	r6, r0
 80191a8:	f7f7 f9a2 	bl	80104f0 <__aeabi_i2d>
 80191ac:	4602      	mov	r2, r0
 80191ae:	460b      	mov	r3, r1
 80191b0:	e9dd 0102 	ldrd	r0, r1, [sp, #8]
 80191b4:	f7f7 f84e 	bl	8010254 <__aeabi_dsub>
 80191b8:	3630      	adds	r6, #48	; 0x30
 80191ba:	9b11      	ldr	r3, [sp, #68]	; 0x44
 80191bc:	f805 6b01 	strb.w	r6, [r5], #1
 80191c0:	42ab      	cmp	r3, r5
 80191c2:	e9cd 0102 	strd	r0, r1, [sp, #8]
 80191c6:	f04f 0200 	mov.w	r2, #0
 80191ca:	d124      	bne.n	8019216 <_dtoa_r+0x5fe>
 80191cc:	4b1b      	ldr	r3, [pc, #108]	; (801923c <_dtoa_r+0x624>)
 80191ce:	e9dd 010a 	ldrd	r0, r1, [sp, #40]	; 0x28
 80191d2:	f7f7 f841 	bl	8010258 <__adddf3>
 80191d6:	4602      	mov	r2, r0
 80191d8:	460b      	mov	r3, r1
 80191da:	e9dd 0102 	ldrd	r0, r1, [sp, #8]
 80191de:	f7f7 fc7d 	bl	8010adc <__aeabi_dcmpgt>
 80191e2:	2800      	cmp	r0, #0
 80191e4:	d174      	bne.n	80192d0 <_dtoa_r+0x6b8>
 80191e6:	e9dd 230a 	ldrd	r2, r3, [sp, #40]	; 0x28
 80191ea:	2000      	movs	r0, #0
 80191ec:	4913      	ldr	r1, [pc, #76]	; (801923c <_dtoa_r+0x624>)
 80191ee:	f7f7 f831 	bl	8010254 <__aeabi_dsub>
 80191f2:	4602      	mov	r2, r0
 80191f4:	460b      	mov	r3, r1
 80191f6:	e9dd 0102 	ldrd	r0, r1, [sp, #8]
 80191fa:	f7f7 fc51 	bl	8010aa0 <__aeabi_dcmplt>
 80191fe:	2800      	cmp	r0, #0
 8019200:	f43f af2d 	beq.w	801905e <_dtoa_r+0x446>
 8019204:	f815 3c01 	ldrb.w	r3, [r5, #-1]
 8019208:	1e6a      	subs	r2, r5, #1
 801920a:	2b30      	cmp	r3, #48	; 0x30
 801920c:	d001      	beq.n	8019212 <_dtoa_r+0x5fa>
 801920e:	46bb      	mov	fp, r7
 8019210:	e04d      	b.n	80192ae <_dtoa_r+0x696>
 8019212:	4615      	mov	r5, r2
 8019214:	e7f6      	b.n	8019204 <_dtoa_r+0x5ec>
 8019216:	4b06      	ldr	r3, [pc, #24]	; (8019230 <_dtoa_r+0x618>)
 8019218:	f7f7 f9d0 	bl	80105bc <__aeabi_dmul>
 801921c:	e9cd 0102 	strd	r0, r1, [sp, #8]
 8019220:	e7bd      	b.n	801919e <_dtoa_r+0x586>
 8019222:	bf00      	nop
 8019224:	0801bc48 	.word	0x0801bc48
 8019228:	0801bc20 	.word	0x0801bc20
 801922c:	3ff00000 	.word	0x3ff00000
 8019230:	40240000 	.word	0x40240000
 8019234:	401c0000 	.word	0x401c0000
 8019238:	40140000 	.word	0x40140000
 801923c:	3fe00000 	.word	0x3fe00000
 8019240:	9d06      	ldr	r5, [sp, #24]
 8019242:	e9dd 6702 	ldrd	r6, r7, [sp, #8]
 8019246:	e9dd 2304 	ldrd	r2, r3, [sp, #16]
 801924a:	4630      	mov	r0, r6
 801924c:	4639      	mov	r1, r7
 801924e:	f7f7 fadf 	bl	8010810 <__aeabi_ddiv>
 8019252:	f7f7 fc63 	bl	8010b1c <__aeabi_d2iz>
 8019256:	4680      	mov	r8, r0
 8019258:	f7f7 f94a 	bl	80104f0 <__aeabi_i2d>
 801925c:	e9dd 2304 	ldrd	r2, r3, [sp, #16]
 8019260:	f7f7 f9ac 	bl	80105bc <__aeabi_dmul>
 8019264:	4602      	mov	r2, r0
 8019266:	460b      	mov	r3, r1
 8019268:	4630      	mov	r0, r6
 801926a:	4639      	mov	r1, r7
 801926c:	f7f6 fff2 	bl	8010254 <__aeabi_dsub>
 8019270:	f108 0630 	add.w	r6, r8, #48	; 0x30
 8019274:	f805 6b01 	strb.w	r6, [r5], #1
 8019278:	9e06      	ldr	r6, [sp, #24]
 801927a:	4602      	mov	r2, r0
 801927c:	1bae      	subs	r6, r5, r6
 801927e:	45b1      	cmp	r9, r6
 8019280:	460b      	mov	r3, r1
 8019282:	d137      	bne.n	80192f4 <_dtoa_r+0x6dc>
 8019284:	f7f6 ffe8 	bl	8010258 <__adddf3>
 8019288:	4606      	mov	r6, r0
 801928a:	460f      	mov	r7, r1
 801928c:	4602      	mov	r2, r0
 801928e:	460b      	mov	r3, r1
 8019290:	e9dd 0104 	ldrd	r0, r1, [sp, #16]
 8019294:	f7f7 fc04 	bl	8010aa0 <__aeabi_dcmplt>
 8019298:	b9c8      	cbnz	r0, 80192ce <_dtoa_r+0x6b6>
 801929a:	e9dd 0104 	ldrd	r0, r1, [sp, #16]
 801929e:	4632      	mov	r2, r6
 80192a0:	463b      	mov	r3, r7
 80192a2:	f7f7 fbf3 	bl	8010a8c <__aeabi_dcmpeq>
 80192a6:	b110      	cbz	r0, 80192ae <_dtoa_r+0x696>
 80192a8:	f018 0f01 	tst.w	r8, #1
 80192ac:	d10f      	bne.n	80192ce <_dtoa_r+0x6b6>
 80192ae:	4651      	mov	r1, sl
 80192b0:	4620      	mov	r0, r4
 80192b2:	f001 f9c9 	bl	801a648 <_Bfree>
 80192b6:	2300      	movs	r3, #0
 80192b8:	9a20      	ldr	r2, [sp, #128]	; 0x80
 80192ba:	702b      	strb	r3, [r5, #0]
 80192bc:	f10b 0301 	add.w	r3, fp, #1
 80192c0:	6013      	str	r3, [r2, #0]
 80192c2:	9b22      	ldr	r3, [sp, #136]	; 0x88
 80192c4:	2b00      	cmp	r3, #0
 80192c6:	f43f acec 	beq.w	8018ca2 <_dtoa_r+0x8a>
 80192ca:	601d      	str	r5, [r3, #0]
 80192cc:	e4e9      	b.n	8018ca2 <_dtoa_r+0x8a>
 80192ce:	465f      	mov	r7, fp
 80192d0:	f815 2c01 	ldrb.w	r2, [r5, #-1]
 80192d4:	1e6b      	subs	r3, r5, #1
 80192d6:	2a39      	cmp	r2, #57	; 0x39
 80192d8:	d106      	bne.n	80192e8 <_dtoa_r+0x6d0>
 80192da:	9a06      	ldr	r2, [sp, #24]
 80192dc:	429a      	cmp	r2, r3
 80192de:	d107      	bne.n	80192f0 <_dtoa_r+0x6d8>
 80192e0:	2330      	movs	r3, #48	; 0x30
 80192e2:	7013      	strb	r3, [r2, #0]
 80192e4:	4613      	mov	r3, r2
 80192e6:	3701      	adds	r7, #1
 80192e8:	781a      	ldrb	r2, [r3, #0]
 80192ea:	3201      	adds	r2, #1
 80192ec:	701a      	strb	r2, [r3, #0]
 80192ee:	e78e      	b.n	801920e <_dtoa_r+0x5f6>
 80192f0:	461d      	mov	r5, r3
 80192f2:	e7ed      	b.n	80192d0 <_dtoa_r+0x6b8>
 80192f4:	2200      	movs	r2, #0
 80192f6:	4bb5      	ldr	r3, [pc, #724]	; (80195cc <_dtoa_r+0x9b4>)
 80192f8:	f7f7 f960 	bl	80105bc <__aeabi_dmul>
 80192fc:	2200      	movs	r2, #0
 80192fe:	2300      	movs	r3, #0
 8019300:	4606      	mov	r6, r0
 8019302:	460f      	mov	r7, r1
 8019304:	f7f7 fbc2 	bl	8010a8c <__aeabi_dcmpeq>
 8019308:	2800      	cmp	r0, #0
 801930a:	d09c      	beq.n	8019246 <_dtoa_r+0x62e>
 801930c:	e7cf      	b.n	80192ae <_dtoa_r+0x696>
 801930e:	9a09      	ldr	r2, [sp, #36]	; 0x24
 8019310:	2a00      	cmp	r2, #0
 8019312:	f000 8129 	beq.w	8019568 <_dtoa_r+0x950>
 8019316:	9a1e      	ldr	r2, [sp, #120]	; 0x78
 8019318:	2a01      	cmp	r2, #1
 801931a:	f300 810e 	bgt.w	801953a <_dtoa_r+0x922>
 801931e:	9a10      	ldr	r2, [sp, #64]	; 0x40
 8019320:	2a00      	cmp	r2, #0
 8019322:	f000 8106 	beq.w	8019532 <_dtoa_r+0x91a>
 8019326:	f203 4333 	addw	r3, r3, #1075	; 0x433
 801932a:	4645      	mov	r5, r8
 801932c:	9e08      	ldr	r6, [sp, #32]
 801932e:	9a07      	ldr	r2, [sp, #28]
 8019330:	2101      	movs	r1, #1
 8019332:	441a      	add	r2, r3
 8019334:	4620      	mov	r0, r4
 8019336:	4498      	add	r8, r3
 8019338:	9207      	str	r2, [sp, #28]
 801933a:	f001 fa25 	bl	801a788 <__i2b>
 801933e:	4607      	mov	r7, r0
 8019340:	2d00      	cmp	r5, #0
 8019342:	dd0b      	ble.n	801935c <_dtoa_r+0x744>
 8019344:	9b07      	ldr	r3, [sp, #28]
 8019346:	2b00      	cmp	r3, #0
 8019348:	dd08      	ble.n	801935c <_dtoa_r+0x744>
 801934a:	42ab      	cmp	r3, r5
 801934c:	bfa8      	it	ge
 801934e:	462b      	movge	r3, r5
 8019350:	9a07      	ldr	r2, [sp, #28]
 8019352:	eba8 0803 	sub.w	r8, r8, r3
 8019356:	1aed      	subs	r5, r5, r3
 8019358:	1ad3      	subs	r3, r2, r3
 801935a:	9307      	str	r3, [sp, #28]
 801935c:	9b08      	ldr	r3, [sp, #32]
 801935e:	b1fb      	cbz	r3, 80193a0 <_dtoa_r+0x788>
 8019360:	9b09      	ldr	r3, [sp, #36]	; 0x24
 8019362:	2b00      	cmp	r3, #0
 8019364:	f000 8104 	beq.w	8019570 <_dtoa_r+0x958>
 8019368:	2e00      	cmp	r6, #0
 801936a:	dd11      	ble.n	8019390 <_dtoa_r+0x778>
 801936c:	4639      	mov	r1, r7
 801936e:	4632      	mov	r2, r6
 8019370:	4620      	mov	r0, r4
 8019372:	f001 fa9f 	bl	801a8b4 <__pow5mult>
 8019376:	4652      	mov	r2, sl
 8019378:	4601      	mov	r1, r0
 801937a:	4607      	mov	r7, r0
 801937c:	4620      	mov	r0, r4
 801937e:	f001 fa0c 	bl	801a79a <__multiply>
 8019382:	4651      	mov	r1, sl
 8019384:	900a      	str	r0, [sp, #40]	; 0x28
 8019386:	4620      	mov	r0, r4
 8019388:	f001 f95e 	bl	801a648 <_Bfree>
 801938c:	9b0a      	ldr	r3, [sp, #40]	; 0x28
 801938e:	469a      	mov	sl, r3
 8019390:	9b08      	ldr	r3, [sp, #32]
 8019392:	1b9a      	subs	r2, r3, r6
 8019394:	d004      	beq.n	80193a0 <_dtoa_r+0x788>
 8019396:	4651      	mov	r1, sl
 8019398:	4620      	mov	r0, r4
 801939a:	f001 fa8b 	bl	801a8b4 <__pow5mult>
 801939e:	4682      	mov	sl, r0
 80193a0:	2101      	movs	r1, #1
 80193a2:	4620      	mov	r0, r4
 80193a4:	f001 f9f0 	bl	801a788 <__i2b>
 80193a8:	9b0c      	ldr	r3, [sp, #48]	; 0x30
 80193aa:	4606      	mov	r6, r0
 80193ac:	2b00      	cmp	r3, #0
 80193ae:	f340 80e1 	ble.w	8019574 <_dtoa_r+0x95c>
 80193b2:	461a      	mov	r2, r3
 80193b4:	4601      	mov	r1, r0
 80193b6:	4620      	mov	r0, r4
 80193b8:	f001 fa7c 	bl	801a8b4 <__pow5mult>
 80193bc:	9b1e      	ldr	r3, [sp, #120]	; 0x78
 80193be:	4606      	mov	r6, r0
 80193c0:	2b01      	cmp	r3, #1
 80193c2:	f340 80da 	ble.w	801957a <_dtoa_r+0x962>
 80193c6:	2300      	movs	r3, #0
 80193c8:	9308      	str	r3, [sp, #32]
 80193ca:	6933      	ldr	r3, [r6, #16]
 80193cc:	eb06 0383 	add.w	r3, r6, r3, lsl #2
 80193d0:	6918      	ldr	r0, [r3, #16]
 80193d2:	f001 f98b 	bl	801a6ec <__hi0bits>
 80193d6:	f1c0 0020 	rsb	r0, r0, #32
 80193da:	9b07      	ldr	r3, [sp, #28]
 80193dc:	4418      	add	r0, r3
 80193de:	f010 001f 	ands.w	r0, r0, #31
 80193e2:	f000 80f0 	beq.w	80195c6 <_dtoa_r+0x9ae>
 80193e6:	f1c0 0320 	rsb	r3, r0, #32
 80193ea:	2b04      	cmp	r3, #4
 80193ec:	f340 80e2 	ble.w	80195b4 <_dtoa_r+0x99c>
 80193f0:	9b07      	ldr	r3, [sp, #28]
 80193f2:	f1c0 001c 	rsb	r0, r0, #28
 80193f6:	4480      	add	r8, r0
 80193f8:	4405      	add	r5, r0
 80193fa:	4403      	add	r3, r0
 80193fc:	9307      	str	r3, [sp, #28]
 80193fe:	f1b8 0f00 	cmp.w	r8, #0
 8019402:	dd05      	ble.n	8019410 <_dtoa_r+0x7f8>
 8019404:	4651      	mov	r1, sl
 8019406:	4642      	mov	r2, r8
 8019408:	4620      	mov	r0, r4
 801940a:	f001 faa1 	bl	801a950 <__lshift>
 801940e:	4682      	mov	sl, r0
 8019410:	9b07      	ldr	r3, [sp, #28]
 8019412:	2b00      	cmp	r3, #0
 8019414:	dd05      	ble.n	8019422 <_dtoa_r+0x80a>
 8019416:	4631      	mov	r1, r6
 8019418:	461a      	mov	r2, r3
 801941a:	4620      	mov	r0, r4
 801941c:	f001 fa98 	bl	801a950 <__lshift>
 8019420:	4606      	mov	r6, r0
 8019422:	9b0d      	ldr	r3, [sp, #52]	; 0x34
 8019424:	2b00      	cmp	r3, #0
 8019426:	f000 80d3 	beq.w	80195d0 <_dtoa_r+0x9b8>
 801942a:	4631      	mov	r1, r6
 801942c:	4650      	mov	r0, sl
 801942e:	f001 fae0 	bl	801a9f2 <__mcmp>
 8019432:	2800      	cmp	r0, #0
 8019434:	f280 80cc 	bge.w	80195d0 <_dtoa_r+0x9b8>
 8019438:	2300      	movs	r3, #0
 801943a:	4651      	mov	r1, sl
 801943c:	220a      	movs	r2, #10
 801943e:	4620      	mov	r0, r4
 8019440:	f001 f919 	bl	801a676 <__multadd>
 8019444:	9b09      	ldr	r3, [sp, #36]	; 0x24
 8019446:	f10b 3bff 	add.w	fp, fp, #4294967295
 801944a:	4682      	mov	sl, r0
 801944c:	2b00      	cmp	r3, #0
 801944e:	f000 81a9 	beq.w	80197a4 <_dtoa_r+0xb8c>
 8019452:	2300      	movs	r3, #0
 8019454:	4639      	mov	r1, r7
 8019456:	220a      	movs	r2, #10
 8019458:	4620      	mov	r0, r4
 801945a:	f001 f90c 	bl	801a676 <__multadd>
 801945e:	9b04      	ldr	r3, [sp, #16]
 8019460:	4607      	mov	r7, r0
 8019462:	2b00      	cmp	r3, #0
 8019464:	dc03      	bgt.n	801946e <_dtoa_r+0x856>
 8019466:	9b1e      	ldr	r3, [sp, #120]	; 0x78
 8019468:	2b02      	cmp	r3, #2
 801946a:	f300 80b9 	bgt.w	80195e0 <_dtoa_r+0x9c8>
 801946e:	2d00      	cmp	r5, #0
 8019470:	dd05      	ble.n	801947e <_dtoa_r+0x866>
 8019472:	4639      	mov	r1, r7
 8019474:	462a      	mov	r2, r5
 8019476:	4620      	mov	r0, r4
 8019478:	f001 fa6a 	bl	801a950 <__lshift>
 801947c:	4607      	mov	r7, r0
 801947e:	9b08      	ldr	r3, [sp, #32]
 8019480:	2b00      	cmp	r3, #0
 8019482:	f000 8110 	beq.w	80196a6 <_dtoa_r+0xa8e>
 8019486:	6879      	ldr	r1, [r7, #4]
 8019488:	4620      	mov	r0, r4
 801948a:	f001 f8a9 	bl	801a5e0 <_Balloc>
 801948e:	4605      	mov	r5, r0
 8019490:	693a      	ldr	r2, [r7, #16]
 8019492:	f107 010c 	add.w	r1, r7, #12
 8019496:	3202      	adds	r2, #2
 8019498:	0092      	lsls	r2, r2, #2
 801949a:	300c      	adds	r0, #12
 801949c:	f7fc ffe7 	bl	801646e <memcpy>
 80194a0:	2201      	movs	r2, #1
 80194a2:	4629      	mov	r1, r5
 80194a4:	4620      	mov	r0, r4
 80194a6:	f001 fa53 	bl	801a950 <__lshift>
 80194aa:	9707      	str	r7, [sp, #28]
 80194ac:	4607      	mov	r7, r0
 80194ae:	9b02      	ldr	r3, [sp, #8]
 80194b0:	f8dd 8018 	ldr.w	r8, [sp, #24]
 80194b4:	f003 0301 	and.w	r3, r3, #1
 80194b8:	9308      	str	r3, [sp, #32]
 80194ba:	4631      	mov	r1, r6
 80194bc:	4650      	mov	r0, sl
 80194be:	f7ff fb1d 	bl	8018afc <quorem>
 80194c2:	9907      	ldr	r1, [sp, #28]
 80194c4:	4605      	mov	r5, r0
 80194c6:	f100 0930 	add.w	r9, r0, #48	; 0x30
 80194ca:	4650      	mov	r0, sl
 80194cc:	f001 fa91 	bl	801a9f2 <__mcmp>
 80194d0:	463a      	mov	r2, r7
 80194d2:	9002      	str	r0, [sp, #8]
 80194d4:	4631      	mov	r1, r6
 80194d6:	4620      	mov	r0, r4
 80194d8:	f001 faa5 	bl	801aa26 <__mdiff>
 80194dc:	68c3      	ldr	r3, [r0, #12]
 80194de:	4602      	mov	r2, r0
 80194e0:	2b00      	cmp	r3, #0
 80194e2:	f040 80e2 	bne.w	80196aa <_dtoa_r+0xa92>
 80194e6:	4601      	mov	r1, r0
 80194e8:	9009      	str	r0, [sp, #36]	; 0x24
 80194ea:	4650      	mov	r0, sl
 80194ec:	f001 fa81 	bl	801a9f2 <__mcmp>
 80194f0:	4603      	mov	r3, r0
 80194f2:	9a09      	ldr	r2, [sp, #36]	; 0x24
 80194f4:	4611      	mov	r1, r2
 80194f6:	4620      	mov	r0, r4
 80194f8:	9309      	str	r3, [sp, #36]	; 0x24
 80194fa:	f001 f8a5 	bl	801a648 <_Bfree>
 80194fe:	9b09      	ldr	r3, [sp, #36]	; 0x24
 8019500:	2b00      	cmp	r3, #0
 8019502:	f040 80d4 	bne.w	80196ae <_dtoa_r+0xa96>
 8019506:	9a1e      	ldr	r2, [sp, #120]	; 0x78
 8019508:	2a00      	cmp	r2, #0
 801950a:	f040 80d0 	bne.w	80196ae <_dtoa_r+0xa96>
 801950e:	9a08      	ldr	r2, [sp, #32]
 8019510:	2a00      	cmp	r2, #0
 8019512:	f040 80cc 	bne.w	80196ae <_dtoa_r+0xa96>
 8019516:	f1b9 0f39 	cmp.w	r9, #57	; 0x39
 801951a:	f000 80e8 	beq.w	80196ee <_dtoa_r+0xad6>
 801951e:	9b02      	ldr	r3, [sp, #8]
 8019520:	2b00      	cmp	r3, #0
 8019522:	dd01      	ble.n	8019528 <_dtoa_r+0x910>
 8019524:	f105 0931 	add.w	r9, r5, #49	; 0x31
 8019528:	f108 0501 	add.w	r5, r8, #1
 801952c:	f888 9000 	strb.w	r9, [r8]
 8019530:	e06b      	b.n	801960a <_dtoa_r+0x9f2>
 8019532:	9b12      	ldr	r3, [sp, #72]	; 0x48
 8019534:	f1c3 0336 	rsb	r3, r3, #54	; 0x36
 8019538:	e6f7      	b.n	801932a <_dtoa_r+0x712>
 801953a:	9b08      	ldr	r3, [sp, #32]
 801953c:	f109 36ff 	add.w	r6, r9, #4294967295
 8019540:	42b3      	cmp	r3, r6
 8019542:	bfb7      	itett	lt
 8019544:	9b08      	ldrlt	r3, [sp, #32]
 8019546:	1b9e      	subge	r6, r3, r6
 8019548:	1af2      	sublt	r2, r6, r3
 801954a:	9b0c      	ldrlt	r3, [sp, #48]	; 0x30
 801954c:	bfbf      	itttt	lt
 801954e:	9608      	strlt	r6, [sp, #32]
 8019550:	189b      	addlt	r3, r3, r2
 8019552:	930c      	strlt	r3, [sp, #48]	; 0x30
 8019554:	2600      	movlt	r6, #0
 8019556:	f1b9 0f00 	cmp.w	r9, #0
 801955a:	bfb9      	ittee	lt
 801955c:	eba8 0509 	sublt.w	r5, r8, r9
 8019560:	2300      	movlt	r3, #0
 8019562:	4645      	movge	r5, r8
 8019564:	464b      	movge	r3, r9
 8019566:	e6e2      	b.n	801932e <_dtoa_r+0x716>
 8019568:	9e08      	ldr	r6, [sp, #32]
 801956a:	4645      	mov	r5, r8
 801956c:	9f09      	ldr	r7, [sp, #36]	; 0x24
 801956e:	e6e7      	b.n	8019340 <_dtoa_r+0x728>
 8019570:	9a08      	ldr	r2, [sp, #32]
 8019572:	e710      	b.n	8019396 <_dtoa_r+0x77e>
 8019574:	9b1e      	ldr	r3, [sp, #120]	; 0x78
 8019576:	2b01      	cmp	r3, #1
 8019578:	dc18      	bgt.n	80195ac <_dtoa_r+0x994>
 801957a:	9b02      	ldr	r3, [sp, #8]
 801957c:	b9b3      	cbnz	r3, 80195ac <_dtoa_r+0x994>
 801957e:	9b03      	ldr	r3, [sp, #12]
 8019580:	f3c3 0313 	ubfx	r3, r3, #0, #20
 8019584:	b9a3      	cbnz	r3, 80195b0 <_dtoa_r+0x998>
 8019586:	9b03      	ldr	r3, [sp, #12]
 8019588:	f023 4300 	bic.w	r3, r3, #2147483648	; 0x80000000
 801958c:	0d1b      	lsrs	r3, r3, #20
 801958e:	051b      	lsls	r3, r3, #20
 8019590:	b12b      	cbz	r3, 801959e <_dtoa_r+0x986>
 8019592:	9b07      	ldr	r3, [sp, #28]
 8019594:	f108 0801 	add.w	r8, r8, #1
 8019598:	3301      	adds	r3, #1
 801959a:	9307      	str	r3, [sp, #28]
 801959c:	2301      	movs	r3, #1
 801959e:	9308      	str	r3, [sp, #32]
 80195a0:	9b0c      	ldr	r3, [sp, #48]	; 0x30
 80195a2:	2b00      	cmp	r3, #0
 80195a4:	f47f af11 	bne.w	80193ca <_dtoa_r+0x7b2>
 80195a8:	2001      	movs	r0, #1
 80195aa:	e716      	b.n	80193da <_dtoa_r+0x7c2>
 80195ac:	2300      	movs	r3, #0
 80195ae:	e7f6      	b.n	801959e <_dtoa_r+0x986>
 80195b0:	9b02      	ldr	r3, [sp, #8]
 80195b2:	e7f4      	b.n	801959e <_dtoa_r+0x986>
 80195b4:	f43f af23 	beq.w	80193fe <_dtoa_r+0x7e6>
 80195b8:	9a07      	ldr	r2, [sp, #28]
 80195ba:	331c      	adds	r3, #28
 80195bc:	441a      	add	r2, r3
 80195be:	4498      	add	r8, r3
 80195c0:	441d      	add	r5, r3
 80195c2:	4613      	mov	r3, r2
 80195c4:	e71a      	b.n	80193fc <_dtoa_r+0x7e4>
 80195c6:	4603      	mov	r3, r0
 80195c8:	e7f6      	b.n	80195b8 <_dtoa_r+0x9a0>
 80195ca:	bf00      	nop
 80195cc:	40240000 	.word	0x40240000
 80195d0:	f1b9 0f00 	cmp.w	r9, #0
 80195d4:	dc33      	bgt.n	801963e <_dtoa_r+0xa26>
 80195d6:	9b1e      	ldr	r3, [sp, #120]	; 0x78
 80195d8:	2b02      	cmp	r3, #2
 80195da:	dd30      	ble.n	801963e <_dtoa_r+0xa26>
 80195dc:	f8cd 9010 	str.w	r9, [sp, #16]
 80195e0:	9b04      	ldr	r3, [sp, #16]
 80195e2:	b963      	cbnz	r3, 80195fe <_dtoa_r+0x9e6>
 80195e4:	4631      	mov	r1, r6
 80195e6:	2205      	movs	r2, #5
 80195e8:	4620      	mov	r0, r4
 80195ea:	f001 f844 	bl	801a676 <__multadd>
 80195ee:	4601      	mov	r1, r0
 80195f0:	4606      	mov	r6, r0
 80195f2:	4650      	mov	r0, sl
 80195f4:	f001 f9fd 	bl	801a9f2 <__mcmp>
 80195f8:	2800      	cmp	r0, #0
 80195fa:	f73f ad5c 	bgt.w	80190b6 <_dtoa_r+0x49e>
 80195fe:	9b1f      	ldr	r3, [sp, #124]	; 0x7c
 8019600:	9d06      	ldr	r5, [sp, #24]
 8019602:	ea6f 0b03 	mvn.w	fp, r3
 8019606:	2300      	movs	r3, #0
 8019608:	9307      	str	r3, [sp, #28]
 801960a:	4631      	mov	r1, r6
 801960c:	4620      	mov	r0, r4
 801960e:	f001 f81b 	bl	801a648 <_Bfree>
 8019612:	2f00      	cmp	r7, #0
 8019614:	f43f ae4b 	beq.w	80192ae <_dtoa_r+0x696>
 8019618:	9b07      	ldr	r3, [sp, #28]
 801961a:	b12b      	cbz	r3, 8019628 <_dtoa_r+0xa10>
 801961c:	42bb      	cmp	r3, r7
 801961e:	d003      	beq.n	8019628 <_dtoa_r+0xa10>
 8019620:	4619      	mov	r1, r3
 8019622:	4620      	mov	r0, r4
 8019624:	f001 f810 	bl	801a648 <_Bfree>
 8019628:	4639      	mov	r1, r7
 801962a:	4620      	mov	r0, r4
 801962c:	f001 f80c 	bl	801a648 <_Bfree>
 8019630:	e63d      	b.n	80192ae <_dtoa_r+0x696>
 8019632:	2600      	movs	r6, #0
 8019634:	4637      	mov	r7, r6
 8019636:	e7e2      	b.n	80195fe <_dtoa_r+0x9e6>
 8019638:	46bb      	mov	fp, r7
 801963a:	4637      	mov	r7, r6
 801963c:	e53b      	b.n	80190b6 <_dtoa_r+0x49e>
 801963e:	9b09      	ldr	r3, [sp, #36]	; 0x24
 8019640:	f8cd 9010 	str.w	r9, [sp, #16]
 8019644:	2b00      	cmp	r3, #0
 8019646:	f47f af12 	bne.w	801946e <_dtoa_r+0x856>
 801964a:	9d06      	ldr	r5, [sp, #24]
 801964c:	4631      	mov	r1, r6
 801964e:	4650      	mov	r0, sl
 8019650:	f7ff fa54 	bl	8018afc <quorem>
 8019654:	9b06      	ldr	r3, [sp, #24]
 8019656:	f100 0930 	add.w	r9, r0, #48	; 0x30
 801965a:	f805 9b01 	strb.w	r9, [r5], #1
 801965e:	9a04      	ldr	r2, [sp, #16]
 8019660:	1aeb      	subs	r3, r5, r3
 8019662:	429a      	cmp	r2, r3
 8019664:	f300 8081 	bgt.w	801976a <_dtoa_r+0xb52>
 8019668:	9b06      	ldr	r3, [sp, #24]
 801966a:	2a01      	cmp	r2, #1
 801966c:	bfac      	ite	ge
 801966e:	189b      	addge	r3, r3, r2
 8019670:	3301      	addlt	r3, #1
 8019672:	4698      	mov	r8, r3
 8019674:	2300      	movs	r3, #0
 8019676:	9307      	str	r3, [sp, #28]
 8019678:	4651      	mov	r1, sl
 801967a:	2201      	movs	r2, #1
 801967c:	4620      	mov	r0, r4
 801967e:	f001 f967 	bl	801a950 <__lshift>
 8019682:	4631      	mov	r1, r6
 8019684:	4682      	mov	sl, r0
 8019686:	f001 f9b4 	bl	801a9f2 <__mcmp>
 801968a:	2800      	cmp	r0, #0
 801968c:	dc34      	bgt.n	80196f8 <_dtoa_r+0xae0>
 801968e:	d102      	bne.n	8019696 <_dtoa_r+0xa7e>
 8019690:	f019 0f01 	tst.w	r9, #1
 8019694:	d130      	bne.n	80196f8 <_dtoa_r+0xae0>
 8019696:	4645      	mov	r5, r8
 8019698:	f815 3c01 	ldrb.w	r3, [r5, #-1]
 801969c:	1e6a      	subs	r2, r5, #1
 801969e:	2b30      	cmp	r3, #48	; 0x30
 80196a0:	d1b3      	bne.n	801960a <_dtoa_r+0x9f2>
 80196a2:	4615      	mov	r5, r2
 80196a4:	e7f8      	b.n	8019698 <_dtoa_r+0xa80>
 80196a6:	4638      	mov	r0, r7
 80196a8:	e6ff      	b.n	80194aa <_dtoa_r+0x892>
 80196aa:	2301      	movs	r3, #1
 80196ac:	e722      	b.n	80194f4 <_dtoa_r+0x8dc>
 80196ae:	9a02      	ldr	r2, [sp, #8]
 80196b0:	2a00      	cmp	r2, #0
 80196b2:	db04      	blt.n	80196be <_dtoa_r+0xaa6>
 80196b4:	d128      	bne.n	8019708 <_dtoa_r+0xaf0>
 80196b6:	9a1e      	ldr	r2, [sp, #120]	; 0x78
 80196b8:	bb32      	cbnz	r2, 8019708 <_dtoa_r+0xaf0>
 80196ba:	9a08      	ldr	r2, [sp, #32]
 80196bc:	bb22      	cbnz	r2, 8019708 <_dtoa_r+0xaf0>
 80196be:	2b00      	cmp	r3, #0
 80196c0:	f77f af32 	ble.w	8019528 <_dtoa_r+0x910>
 80196c4:	4651      	mov	r1, sl
 80196c6:	2201      	movs	r2, #1
 80196c8:	4620      	mov	r0, r4
 80196ca:	f001 f941 	bl	801a950 <__lshift>
 80196ce:	4631      	mov	r1, r6
 80196d0:	4682      	mov	sl, r0
 80196d2:	f001 f98e 	bl	801a9f2 <__mcmp>
 80196d6:	2800      	cmp	r0, #0
 80196d8:	dc05      	bgt.n	80196e6 <_dtoa_r+0xace>
 80196da:	f47f af25 	bne.w	8019528 <_dtoa_r+0x910>
 80196de:	f019 0f01 	tst.w	r9, #1
 80196e2:	f43f af21 	beq.w	8019528 <_dtoa_r+0x910>
 80196e6:	f1b9 0f39 	cmp.w	r9, #57	; 0x39
 80196ea:	f47f af1b 	bne.w	8019524 <_dtoa_r+0x90c>
 80196ee:	2339      	movs	r3, #57	; 0x39
 80196f0:	f108 0801 	add.w	r8, r8, #1
 80196f4:	f808 3c01 	strb.w	r3, [r8, #-1]
 80196f8:	4645      	mov	r5, r8
 80196fa:	f815 3c01 	ldrb.w	r3, [r5, #-1]
 80196fe:	1e6a      	subs	r2, r5, #1
 8019700:	2b39      	cmp	r3, #57	; 0x39
 8019702:	d03a      	beq.n	801977a <_dtoa_r+0xb62>
 8019704:	3301      	adds	r3, #1
 8019706:	e03f      	b.n	8019788 <_dtoa_r+0xb70>
 8019708:	2b00      	cmp	r3, #0
 801970a:	f108 0501 	add.w	r5, r8, #1
 801970e:	dd05      	ble.n	801971c <_dtoa_r+0xb04>
 8019710:	f1b9 0f39 	cmp.w	r9, #57	; 0x39
 8019714:	d0eb      	beq.n	80196ee <_dtoa_r+0xad6>
 8019716:	f109 0901 	add.w	r9, r9, #1
 801971a:	e707      	b.n	801952c <_dtoa_r+0x914>
 801971c:	9b06      	ldr	r3, [sp, #24]
 801971e:	9a04      	ldr	r2, [sp, #16]
 8019720:	1aeb      	subs	r3, r5, r3
 8019722:	4293      	cmp	r3, r2
 8019724:	46a8      	mov	r8, r5
 8019726:	f805 9c01 	strb.w	r9, [r5, #-1]
 801972a:	d0a5      	beq.n	8019678 <_dtoa_r+0xa60>
 801972c:	4651      	mov	r1, sl
 801972e:	2300      	movs	r3, #0
 8019730:	220a      	movs	r2, #10
 8019732:	4620      	mov	r0, r4
 8019734:	f000 ff9f 	bl	801a676 <__multadd>
 8019738:	9b07      	ldr	r3, [sp, #28]
 801973a:	4682      	mov	sl, r0
 801973c:	42bb      	cmp	r3, r7
 801973e:	f04f 020a 	mov.w	r2, #10
 8019742:	f04f 0300 	mov.w	r3, #0
 8019746:	9907      	ldr	r1, [sp, #28]
 8019748:	4620      	mov	r0, r4
 801974a:	d104      	bne.n	8019756 <_dtoa_r+0xb3e>
 801974c:	f000 ff93 	bl	801a676 <__multadd>
 8019750:	9007      	str	r0, [sp, #28]
 8019752:	4607      	mov	r7, r0
 8019754:	e6b1      	b.n	80194ba <_dtoa_r+0x8a2>
 8019756:	f000 ff8e 	bl	801a676 <__multadd>
 801975a:	2300      	movs	r3, #0
 801975c:	9007      	str	r0, [sp, #28]
 801975e:	220a      	movs	r2, #10
 8019760:	4639      	mov	r1, r7
 8019762:	4620      	mov	r0, r4
 8019764:	f000 ff87 	bl	801a676 <__multadd>
 8019768:	e7f3      	b.n	8019752 <_dtoa_r+0xb3a>
 801976a:	4651      	mov	r1, sl
 801976c:	2300      	movs	r3, #0
 801976e:	220a      	movs	r2, #10
 8019770:	4620      	mov	r0, r4
 8019772:	f000 ff80 	bl	801a676 <__multadd>
 8019776:	4682      	mov	sl, r0
 8019778:	e768      	b.n	801964c <_dtoa_r+0xa34>
 801977a:	9b06      	ldr	r3, [sp, #24]
 801977c:	4293      	cmp	r3, r2
 801977e:	d105      	bne.n	801978c <_dtoa_r+0xb74>
 8019780:	2331      	movs	r3, #49	; 0x31
 8019782:	9a06      	ldr	r2, [sp, #24]
 8019784:	f10b 0b01 	add.w	fp, fp, #1
 8019788:	7013      	strb	r3, [r2, #0]
 801978a:	e73e      	b.n	801960a <_dtoa_r+0x9f2>
 801978c:	4615      	mov	r5, r2
 801978e:	e7b4      	b.n	80196fa <_dtoa_r+0xae2>
 8019790:	4b09      	ldr	r3, [pc, #36]	; (80197b8 <_dtoa_r+0xba0>)
 8019792:	f7ff baa3 	b.w	8018cdc <_dtoa_r+0xc4>
 8019796:	9b22      	ldr	r3, [sp, #136]	; 0x88
 8019798:	2b00      	cmp	r3, #0
 801979a:	f47f aa7d 	bne.w	8018c98 <_dtoa_r+0x80>
 801979e:	4b07      	ldr	r3, [pc, #28]	; (80197bc <_dtoa_r+0xba4>)
 80197a0:	f7ff ba9c 	b.w	8018cdc <_dtoa_r+0xc4>
 80197a4:	9b04      	ldr	r3, [sp, #16]
 80197a6:	2b00      	cmp	r3, #0
 80197a8:	f73f af4f 	bgt.w	801964a <_dtoa_r+0xa32>
 80197ac:	9b1e      	ldr	r3, [sp, #120]	; 0x78
 80197ae:	2b02      	cmp	r3, #2
 80197b0:	f77f af4b 	ble.w	801964a <_dtoa_r+0xa32>
 80197b4:	e714      	b.n	80195e0 <_dtoa_r+0x9c8>
 80197b6:	bf00      	nop
 80197b8:	0801bb3c 	.word	0x0801bb3c
 80197bc:	0801bba3 	.word	0x0801bba3

080197c0 <__sflush_r>:
 80197c0:	f9b1 200c 	ldrsh.w	r2, [r1, #12]
 80197c4:	e92d 41f0 	stmdb	sp!, {r4, r5, r6, r7, r8, lr}
 80197c8:	b293      	uxth	r3, r2
 80197ca:	4605      	mov	r5, r0
 80197cc:	0718      	lsls	r0, r3, #28
 80197ce:	460c      	mov	r4, r1
 80197d0:	d461      	bmi.n	8019896 <__sflush_r+0xd6>
 80197d2:	684b      	ldr	r3, [r1, #4]
 80197d4:	f442 6200 	orr.w	r2, r2, #2048	; 0x800
 80197d8:	2b00      	cmp	r3, #0
 80197da:	818a      	strh	r2, [r1, #12]
 80197dc:	dc05      	bgt.n	80197ea <__sflush_r+0x2a>
 80197de:	6c0b      	ldr	r3, [r1, #64]	; 0x40
 80197e0:	2b00      	cmp	r3, #0
 80197e2:	dc02      	bgt.n	80197ea <__sflush_r+0x2a>
 80197e4:	2000      	movs	r0, #0
 80197e6:	e8bd 81f0 	ldmia.w	sp!, {r4, r5, r6, r7, r8, pc}
 80197ea:	6ae6      	ldr	r6, [r4, #44]	; 0x2c
 80197ec:	2e00      	cmp	r6, #0
 80197ee:	d0f9      	beq.n	80197e4 <__sflush_r+0x24>
 80197f0:	2300      	movs	r3, #0
 80197f2:	f412 5280 	ands.w	r2, r2, #4096	; 0x1000
 80197f6:	682f      	ldr	r7, [r5, #0]
 80197f8:	602b      	str	r3, [r5, #0]
 80197fa:	d037      	beq.n	801986c <__sflush_r+0xac>
 80197fc:	6d60      	ldr	r0, [r4, #84]	; 0x54
 80197fe:	89a3      	ldrh	r3, [r4, #12]
 8019800:	075a      	lsls	r2, r3, #29
 8019802:	d505      	bpl.n	8019810 <__sflush_r+0x50>
 8019804:	6863      	ldr	r3, [r4, #4]
 8019806:	1ac0      	subs	r0, r0, r3
 8019808:	6b63      	ldr	r3, [r4, #52]	; 0x34
 801980a:	b10b      	cbz	r3, 8019810 <__sflush_r+0x50>
 801980c:	6c23      	ldr	r3, [r4, #64]	; 0x40
 801980e:	1ac0      	subs	r0, r0, r3
 8019810:	2300      	movs	r3, #0
 8019812:	4602      	mov	r2, r0
 8019814:	6ae6      	ldr	r6, [r4, #44]	; 0x2c
 8019816:	6a21      	ldr	r1, [r4, #32]
 8019818:	4628      	mov	r0, r5
 801981a:	47b0      	blx	r6
 801981c:	1c43      	adds	r3, r0, #1
 801981e:	89a3      	ldrh	r3, [r4, #12]
 8019820:	d106      	bne.n	8019830 <__sflush_r+0x70>
 8019822:	6829      	ldr	r1, [r5, #0]
 8019824:	291d      	cmp	r1, #29
 8019826:	d84f      	bhi.n	80198c8 <__sflush_r+0x108>
 8019828:	4a2d      	ldr	r2, [pc, #180]	; (80198e0 <__sflush_r+0x120>)
 801982a:	40ca      	lsrs	r2, r1
 801982c:	07d6      	lsls	r6, r2, #31
 801982e:	d54b      	bpl.n	80198c8 <__sflush_r+0x108>
 8019830:	2200      	movs	r2, #0
 8019832:	f423 6300 	bic.w	r3, r3, #2048	; 0x800
 8019836:	b21b      	sxth	r3, r3
 8019838:	6062      	str	r2, [r4, #4]
 801983a:	6922      	ldr	r2, [r4, #16]
 801983c:	04d9      	lsls	r1, r3, #19
 801983e:	81a3      	strh	r3, [r4, #12]
 8019840:	6022      	str	r2, [r4, #0]
 8019842:	d504      	bpl.n	801984e <__sflush_r+0x8e>
 8019844:	1c42      	adds	r2, r0, #1
 8019846:	d101      	bne.n	801984c <__sflush_r+0x8c>
 8019848:	682b      	ldr	r3, [r5, #0]
 801984a:	b903      	cbnz	r3, 801984e <__sflush_r+0x8e>
 801984c:	6560      	str	r0, [r4, #84]	; 0x54
 801984e:	6b61      	ldr	r1, [r4, #52]	; 0x34
 8019850:	602f      	str	r7, [r5, #0]
 8019852:	2900      	cmp	r1, #0
 8019854:	d0c6      	beq.n	80197e4 <__sflush_r+0x24>
 8019856:	f104 0344 	add.w	r3, r4, #68	; 0x44
 801985a:	4299      	cmp	r1, r3
 801985c:	d002      	beq.n	8019864 <__sflush_r+0xa4>
 801985e:	4628      	mov	r0, r5
 8019860:	f000 f9ac 	bl	8019bbc <_free_r>
 8019864:	2000      	movs	r0, #0
 8019866:	6360      	str	r0, [r4, #52]	; 0x34
 8019868:	e8bd 81f0 	ldmia.w	sp!, {r4, r5, r6, r7, r8, pc}
 801986c:	6a21      	ldr	r1, [r4, #32]
 801986e:	2301      	movs	r3, #1
 8019870:	4628      	mov	r0, r5
 8019872:	47b0      	blx	r6
 8019874:	1c41      	adds	r1, r0, #1
 8019876:	d1c2      	bne.n	80197fe <__sflush_r+0x3e>
 8019878:	682b      	ldr	r3, [r5, #0]
 801987a:	2b00      	cmp	r3, #0
 801987c:	d0bf      	beq.n	80197fe <__sflush_r+0x3e>
 801987e:	2b1d      	cmp	r3, #29
 8019880:	d001      	beq.n	8019886 <__sflush_r+0xc6>
 8019882:	2b16      	cmp	r3, #22
 8019884:	d101      	bne.n	801988a <__sflush_r+0xca>
 8019886:	602f      	str	r7, [r5, #0]
 8019888:	e7ac      	b.n	80197e4 <__sflush_r+0x24>
 801988a:	89a3      	ldrh	r3, [r4, #12]
 801988c:	f043 0340 	orr.w	r3, r3, #64	; 0x40
 8019890:	81a3      	strh	r3, [r4, #12]
 8019892:	e8bd 81f0 	ldmia.w	sp!, {r4, r5, r6, r7, r8, pc}
 8019896:	690f      	ldr	r7, [r1, #16]
 8019898:	2f00      	cmp	r7, #0
 801989a:	d0a3      	beq.n	80197e4 <__sflush_r+0x24>
 801989c:	079b      	lsls	r3, r3, #30
 801989e:	bf18      	it	ne
 80198a0:	2300      	movne	r3, #0
 80198a2:	680e      	ldr	r6, [r1, #0]
 80198a4:	bf08      	it	eq
 80198a6:	694b      	ldreq	r3, [r1, #20]
 80198a8:	eba6 0807 	sub.w	r8, r6, r7
 80198ac:	600f      	str	r7, [r1, #0]
 80198ae:	608b      	str	r3, [r1, #8]
 80198b0:	f1b8 0f00 	cmp.w	r8, #0
 80198b4:	dd96      	ble.n	80197e4 <__sflush_r+0x24>
 80198b6:	4643      	mov	r3, r8
 80198b8:	463a      	mov	r2, r7
 80198ba:	6a21      	ldr	r1, [r4, #32]
 80198bc:	4628      	mov	r0, r5
 80198be:	6aa6      	ldr	r6, [r4, #40]	; 0x28
 80198c0:	47b0      	blx	r6
 80198c2:	2800      	cmp	r0, #0
 80198c4:	dc07      	bgt.n	80198d6 <__sflush_r+0x116>
 80198c6:	89a3      	ldrh	r3, [r4, #12]
 80198c8:	f043 0340 	orr.w	r3, r3, #64	; 0x40
 80198cc:	81a3      	strh	r3, [r4, #12]
 80198ce:	f04f 30ff 	mov.w	r0, #4294967295
 80198d2:	e8bd 81f0 	ldmia.w	sp!, {r4, r5, r6, r7, r8, pc}
 80198d6:	4407      	add	r7, r0
 80198d8:	eba8 0800 	sub.w	r8, r8, r0
 80198dc:	e7e8      	b.n	80198b0 <__sflush_r+0xf0>
 80198de:	bf00      	nop
 80198e0:	20400001 	.word	0x20400001

080198e4 <_fflush_r>:
 80198e4:	b538      	push	{r3, r4, r5, lr}
 80198e6:	690b      	ldr	r3, [r1, #16]
 80198e8:	4605      	mov	r5, r0
 80198ea:	460c      	mov	r4, r1
 80198ec:	b913      	cbnz	r3, 80198f4 <_fflush_r+0x10>
 80198ee:	2500      	movs	r5, #0
 80198f0:	4628      	mov	r0, r5
 80198f2:	bd38      	pop	{r3, r4, r5, pc}
 80198f4:	b118      	cbz	r0, 80198fe <_fflush_r+0x1a>
 80198f6:	6983      	ldr	r3, [r0, #24]
 80198f8:	b90b      	cbnz	r3, 80198fe <_fflush_r+0x1a>
 80198fa:	f000 f887 	bl	8019a0c <__sinit>
 80198fe:	4b14      	ldr	r3, [pc, #80]	; (8019950 <_fflush_r+0x6c>)
 8019900:	429c      	cmp	r4, r3
 8019902:	d11b      	bne.n	801993c <_fflush_r+0x58>
 8019904:	686c      	ldr	r4, [r5, #4]
 8019906:	f9b4 300c 	ldrsh.w	r3, [r4, #12]
 801990a:	2b00      	cmp	r3, #0
 801990c:	d0ef      	beq.n	80198ee <_fflush_r+0xa>
 801990e:	6e62      	ldr	r2, [r4, #100]	; 0x64
 8019910:	07d0      	lsls	r0, r2, #31
 8019912:	d404      	bmi.n	801991e <_fflush_r+0x3a>
 8019914:	0599      	lsls	r1, r3, #22
 8019916:	d402      	bmi.n	801991e <_fflush_r+0x3a>
 8019918:	6da0      	ldr	r0, [r4, #88]	; 0x58
 801991a:	f000 fb99 	bl	801a050 <__retarget_lock_acquire_recursive>
 801991e:	4628      	mov	r0, r5
 8019920:	4621      	mov	r1, r4
 8019922:	f7ff ff4d 	bl	80197c0 <__sflush_r>
 8019926:	6e63      	ldr	r3, [r4, #100]	; 0x64
 8019928:	4605      	mov	r5, r0
 801992a:	07da      	lsls	r2, r3, #31
 801992c:	d4e0      	bmi.n	80198f0 <_fflush_r+0xc>
 801992e:	89a3      	ldrh	r3, [r4, #12]
 8019930:	059b      	lsls	r3, r3, #22
 8019932:	d4dd      	bmi.n	80198f0 <_fflush_r+0xc>
 8019934:	6da0      	ldr	r0, [r4, #88]	; 0x58
 8019936:	f000 fb8c 	bl	801a052 <__retarget_lock_release_recursive>
 801993a:	e7d9      	b.n	80198f0 <_fflush_r+0xc>
 801993c:	4b05      	ldr	r3, [pc, #20]	; (8019954 <_fflush_r+0x70>)
 801993e:	429c      	cmp	r4, r3
 8019940:	d101      	bne.n	8019946 <_fflush_r+0x62>
 8019942:	68ac      	ldr	r4, [r5, #8]
 8019944:	e7df      	b.n	8019906 <_fflush_r+0x22>
 8019946:	4b04      	ldr	r3, [pc, #16]	; (8019958 <_fflush_r+0x74>)
 8019948:	429c      	cmp	r4, r3
 801994a:	bf08      	it	eq
 801994c:	68ec      	ldreq	r4, [r5, #12]
 801994e:	e7da      	b.n	8019906 <_fflush_r+0x22>
 8019950:	0801bbd0 	.word	0x0801bbd0
 8019954:	0801bbf0 	.word	0x0801bbf0
 8019958:	0801bbb0 	.word	0x0801bbb0

0801995c <_cleanup_r>:
 801995c:	4901      	ldr	r1, [pc, #4]	; (8019964 <_cleanup_r+0x8>)
 801995e:	f000 bb37 	b.w	8019fd0 <_fwalk_reent>
 8019962:	bf00      	nop
 8019964:	0801b149 	.word	0x0801b149

08019968 <std.isra.0>:
 8019968:	2300      	movs	r3, #0
 801996a:	b510      	push	{r4, lr}
 801996c:	4604      	mov	r4, r0
 801996e:	6003      	str	r3, [r0, #0]
 8019970:	6043      	str	r3, [r0, #4]
 8019972:	6083      	str	r3, [r0, #8]
 8019974:	8181      	strh	r1, [r0, #12]
 8019976:	6643      	str	r3, [r0, #100]	; 0x64
 8019978:	81c2      	strh	r2, [r0, #14]
 801997a:	6103      	str	r3, [r0, #16]
 801997c:	6143      	str	r3, [r0, #20]
 801997e:	6183      	str	r3, [r0, #24]
 8019980:	4619      	mov	r1, r3
 8019982:	2208      	movs	r2, #8
 8019984:	305c      	adds	r0, #92	; 0x5c
 8019986:	f7fc fd7d 	bl	8016484 <memset>
 801998a:	4b05      	ldr	r3, [pc, #20]	; (80199a0 <std.isra.0+0x38>)
 801998c:	6224      	str	r4, [r4, #32]
 801998e:	6263      	str	r3, [r4, #36]	; 0x24
 8019990:	4b04      	ldr	r3, [pc, #16]	; (80199a4 <std.isra.0+0x3c>)
 8019992:	62a3      	str	r3, [r4, #40]	; 0x28
 8019994:	4b04      	ldr	r3, [pc, #16]	; (80199a8 <std.isra.0+0x40>)
 8019996:	62e3      	str	r3, [r4, #44]	; 0x2c
 8019998:	4b04      	ldr	r3, [pc, #16]	; (80199ac <std.isra.0+0x44>)
 801999a:	6323      	str	r3, [r4, #48]	; 0x30
 801999c:	bd10      	pop	{r4, pc}
 801999e:	bf00      	nop
 80199a0:	0801aea9 	.word	0x0801aea9
 80199a4:	0801aecb 	.word	0x0801aecb
 80199a8:	0801af03 	.word	0x0801af03
 80199ac:	0801af27 	.word	0x0801af27

080199b0 <__sfmoreglue>:
 80199b0:	b570      	push	{r4, r5, r6, lr}
 80199b2:	2568      	movs	r5, #104	; 0x68
 80199b4:	1e4a      	subs	r2, r1, #1
 80199b6:	4355      	muls	r5, r2
 80199b8:	460e      	mov	r6, r1
 80199ba:	f105 0174 	add.w	r1, r5, #116	; 0x74
 80199be:	f000 fbbd 	bl	801a13c <_malloc_r>
 80199c2:	4604      	mov	r4, r0
 80199c4:	b140      	cbz	r0, 80199d8 <__sfmoreglue+0x28>
 80199c6:	2100      	movs	r1, #0
 80199c8:	e880 0042 	stmia.w	r0, {r1, r6}
 80199cc:	300c      	adds	r0, #12
 80199ce:	60a0      	str	r0, [r4, #8]
 80199d0:	f105 0268 	add.w	r2, r5, #104	; 0x68
 80199d4:	f7fc fd56 	bl	8016484 <memset>
 80199d8:	4620      	mov	r0, r4
 80199da:	bd70      	pop	{r4, r5, r6, pc}

080199dc <__sfp_lock_acquire>:
 80199dc:	4801      	ldr	r0, [pc, #4]	; (80199e4 <__sfp_lock_acquire+0x8>)
 80199de:	f000 bb37 	b.w	801a050 <__retarget_lock_acquire_recursive>
 80199e2:	bf00      	nop
 80199e4:	20002340 	.word	0x20002340

080199e8 <__sfp_lock_release>:
 80199e8:	4801      	ldr	r0, [pc, #4]	; (80199f0 <__sfp_lock_release+0x8>)
 80199ea:	f000 bb32 	b.w	801a052 <__retarget_lock_release_recursive>
 80199ee:	bf00      	nop
 80199f0:	20002340 	.word	0x20002340

080199f4 <__sinit_lock_acquire>:
 80199f4:	4801      	ldr	r0, [pc, #4]	; (80199fc <__sinit_lock_acquire+0x8>)
 80199f6:	f000 bb2b 	b.w	801a050 <__retarget_lock_acquire_recursive>
 80199fa:	bf00      	nop
 80199fc:	2000233b 	.word	0x2000233b

08019a00 <__sinit_lock_release>:
 8019a00:	4801      	ldr	r0, [pc, #4]	; (8019a08 <__sinit_lock_release+0x8>)
 8019a02:	f000 bb26 	b.w	801a052 <__retarget_lock_release_recursive>
 8019a06:	bf00      	nop
 8019a08:	2000233b 	.word	0x2000233b

08019a0c <__sinit>:
 8019a0c:	b510      	push	{r4, lr}
 8019a0e:	4604      	mov	r4, r0
 8019a10:	f7ff fff0 	bl	80199f4 <__sinit_lock_acquire>
 8019a14:	69a3      	ldr	r3, [r4, #24]
 8019a16:	b11b      	cbz	r3, 8019a20 <__sinit+0x14>
 8019a18:	e8bd 4010 	ldmia.w	sp!, {r4, lr}
 8019a1c:	f7ff bff0 	b.w	8019a00 <__sinit_lock_release>
 8019a20:	f8c4 30d8 	str.w	r3, [r4, #216]	; 0xd8
 8019a24:	f8c4 30dc 	str.w	r3, [r4, #220]	; 0xdc
 8019a28:	f8c4 30e0 	str.w	r3, [r4, #224]	; 0xe0
 8019a2c:	4b13      	ldr	r3, [pc, #76]	; (8019a7c <__sinit+0x70>)
 8019a2e:	4a14      	ldr	r2, [pc, #80]	; (8019a80 <__sinit+0x74>)
 8019a30:	681b      	ldr	r3, [r3, #0]
 8019a32:	62a2      	str	r2, [r4, #40]	; 0x28
 8019a34:	429c      	cmp	r4, r3
 8019a36:	bf08      	it	eq
 8019a38:	2301      	moveq	r3, #1
 8019a3a:	4620      	mov	r0, r4
 8019a3c:	bf08      	it	eq
 8019a3e:	61a3      	streq	r3, [r4, #24]
 8019a40:	f000 f820 	bl	8019a84 <__sfp>
 8019a44:	6060      	str	r0, [r4, #4]
 8019a46:	4620      	mov	r0, r4
 8019a48:	f000 f81c 	bl	8019a84 <__sfp>
 8019a4c:	60a0      	str	r0, [r4, #8]
 8019a4e:	4620      	mov	r0, r4
 8019a50:	f000 f818 	bl	8019a84 <__sfp>
 8019a54:	2200      	movs	r2, #0
 8019a56:	60e0      	str	r0, [r4, #12]
 8019a58:	2104      	movs	r1, #4
 8019a5a:	6860      	ldr	r0, [r4, #4]
 8019a5c:	f7ff ff84 	bl	8019968 <std.isra.0>
 8019a60:	2201      	movs	r2, #1
 8019a62:	2109      	movs	r1, #9
 8019a64:	68a0      	ldr	r0, [r4, #8]
 8019a66:	f7ff ff7f 	bl	8019968 <std.isra.0>
 8019a6a:	2202      	movs	r2, #2
 8019a6c:	2112      	movs	r1, #18
 8019a6e:	68e0      	ldr	r0, [r4, #12]
 8019a70:	f7ff ff7a 	bl	8019968 <std.isra.0>
 8019a74:	2301      	movs	r3, #1
 8019a76:	61a3      	str	r3, [r4, #24]
 8019a78:	e7ce      	b.n	8019a18 <__sinit+0xc>
 8019a7a:	bf00      	nop
 8019a7c:	0801bc10 	.word	0x0801bc10
 8019a80:	0801995d 	.word	0x0801995d

08019a84 <__sfp>:
 8019a84:	b5f8      	push	{r3, r4, r5, r6, r7, lr}
 8019a86:	4607      	mov	r7, r0
 8019a88:	f7ff ffa8 	bl	80199dc <__sfp_lock_acquire>
 8019a8c:	4b1f      	ldr	r3, [pc, #124]	; (8019b0c <__sfp+0x88>)
 8019a8e:	681e      	ldr	r6, [r3, #0]
 8019a90:	69b3      	ldr	r3, [r6, #24]
 8019a92:	b913      	cbnz	r3, 8019a9a <__sfp+0x16>
 8019a94:	4630      	mov	r0, r6
 8019a96:	f7ff ffb9 	bl	8019a0c <__sinit>
 8019a9a:	36d8      	adds	r6, #216	; 0xd8
 8019a9c:	68b4      	ldr	r4, [r6, #8]
 8019a9e:	6873      	ldr	r3, [r6, #4]
 8019aa0:	3b01      	subs	r3, #1
 8019aa2:	d503      	bpl.n	8019aac <__sfp+0x28>
 8019aa4:	6833      	ldr	r3, [r6, #0]
 8019aa6:	b133      	cbz	r3, 8019ab6 <__sfp+0x32>
 8019aa8:	6836      	ldr	r6, [r6, #0]
 8019aaa:	e7f7      	b.n	8019a9c <__sfp+0x18>
 8019aac:	f9b4 500c 	ldrsh.w	r5, [r4, #12]
 8019ab0:	b17d      	cbz	r5, 8019ad2 <__sfp+0x4e>
 8019ab2:	3468      	adds	r4, #104	; 0x68
 8019ab4:	e7f4      	b.n	8019aa0 <__sfp+0x1c>
 8019ab6:	2104      	movs	r1, #4
 8019ab8:	4638      	mov	r0, r7
 8019aba:	f7ff ff79 	bl	80199b0 <__sfmoreglue>
 8019abe:	4604      	mov	r4, r0
 8019ac0:	6030      	str	r0, [r6, #0]
 8019ac2:	2800      	cmp	r0, #0
 8019ac4:	d1f0      	bne.n	8019aa8 <__sfp+0x24>
 8019ac6:	f7ff ff8f 	bl	80199e8 <__sfp_lock_release>
 8019aca:	230c      	movs	r3, #12
 8019acc:	603b      	str	r3, [r7, #0]
 8019ace:	4620      	mov	r0, r4
 8019ad0:	bdf8      	pop	{r3, r4, r5, r6, r7, pc}
 8019ad2:	f64f 73ff 	movw	r3, #65535	; 0xffff
 8019ad6:	81e3      	strh	r3, [r4, #14]
 8019ad8:	2301      	movs	r3, #1
 8019ada:	f104 0058 	add.w	r0, r4, #88	; 0x58
 8019ade:	81a3      	strh	r3, [r4, #12]
 8019ae0:	6665      	str	r5, [r4, #100]	; 0x64
 8019ae2:	f000 fab3 	bl	801a04c <__retarget_lock_init_recursive>
 8019ae6:	f7ff ff7f 	bl	80199e8 <__sfp_lock_release>
 8019aea:	6025      	str	r5, [r4, #0]
 8019aec:	60a5      	str	r5, [r4, #8]
 8019aee:	6065      	str	r5, [r4, #4]
 8019af0:	6125      	str	r5, [r4, #16]
 8019af2:	6165      	str	r5, [r4, #20]
 8019af4:	61a5      	str	r5, [r4, #24]
 8019af6:	2208      	movs	r2, #8
 8019af8:	4629      	mov	r1, r5
 8019afa:	f104 005c 	add.w	r0, r4, #92	; 0x5c
 8019afe:	f7fc fcc1 	bl	8016484 <memset>
 8019b02:	6365      	str	r5, [r4, #52]	; 0x34
 8019b04:	63a5      	str	r5, [r4, #56]	; 0x38
 8019b06:	64a5      	str	r5, [r4, #72]	; 0x48
 8019b08:	64e5      	str	r5, [r4, #76]	; 0x4c
 8019b0a:	e7e0      	b.n	8019ace <__sfp+0x4a>
 8019b0c:	0801bc10 	.word	0x0801bc10

08019b10 <_malloc_trim_r>:
 8019b10:	e92d 43f8 	stmdb	sp!, {r3, r4, r5, r6, r7, r8, r9, lr}
 8019b14:	4689      	mov	r9, r1
 8019b16:	4f25      	ldr	r7, [pc, #148]	; (8019bac <_malloc_trim_r+0x9c>)
 8019b18:	4606      	mov	r6, r0
 8019b1a:	f000 fd55 	bl	801a5c8 <__malloc_lock>
 8019b1e:	68bb      	ldr	r3, [r7, #8]
 8019b20:	f8df 8094 	ldr.w	r8, [pc, #148]	; 8019bb8 <_malloc_trim_r+0xa8>
 8019b24:	685d      	ldr	r5, [r3, #4]
 8019b26:	f1a8 0411 	sub.w	r4, r8, #17
 8019b2a:	f025 0503 	bic.w	r5, r5, #3
 8019b2e:	eba4 0409 	sub.w	r4, r4, r9
 8019b32:	442c      	add	r4, r5
 8019b34:	fbb4 f4f8 	udiv	r4, r4, r8
 8019b38:	3c01      	subs	r4, #1
 8019b3a:	fb08 f404 	mul.w	r4, r8, r4
 8019b3e:	4544      	cmp	r4, r8
 8019b40:	da05      	bge.n	8019b4e <_malloc_trim_r+0x3e>
 8019b42:	4630      	mov	r0, r6
 8019b44:	f000 fd46 	bl	801a5d4 <__malloc_unlock>
 8019b48:	2000      	movs	r0, #0
 8019b4a:	e8bd 83f8 	ldmia.w	sp!, {r3, r4, r5, r6, r7, r8, r9, pc}
 8019b4e:	2100      	movs	r1, #0
 8019b50:	4630      	mov	r0, r6
 8019b52:	f001 f999 	bl	801ae88 <_sbrk_r>
 8019b56:	68bb      	ldr	r3, [r7, #8]
 8019b58:	442b      	add	r3, r5
 8019b5a:	4298      	cmp	r0, r3
 8019b5c:	d1f1      	bne.n	8019b42 <_malloc_trim_r+0x32>
 8019b5e:	4261      	negs	r1, r4
 8019b60:	4630      	mov	r0, r6
 8019b62:	f001 f991 	bl	801ae88 <_sbrk_r>
 8019b66:	3001      	adds	r0, #1
 8019b68:	d110      	bne.n	8019b8c <_malloc_trim_r+0x7c>
 8019b6a:	2100      	movs	r1, #0
 8019b6c:	4630      	mov	r0, r6
 8019b6e:	f001 f98b 	bl	801ae88 <_sbrk_r>
 8019b72:	68ba      	ldr	r2, [r7, #8]
 8019b74:	1a83      	subs	r3, r0, r2
 8019b76:	2b0f      	cmp	r3, #15
 8019b78:	dde3      	ble.n	8019b42 <_malloc_trim_r+0x32>
 8019b7a:	490d      	ldr	r1, [pc, #52]	; (8019bb0 <_malloc_trim_r+0xa0>)
 8019b7c:	f043 0301 	orr.w	r3, r3, #1
 8019b80:	6809      	ldr	r1, [r1, #0]
 8019b82:	6053      	str	r3, [r2, #4]
 8019b84:	1a40      	subs	r0, r0, r1
 8019b86:	490b      	ldr	r1, [pc, #44]	; (8019bb4 <_malloc_trim_r+0xa4>)
 8019b88:	6008      	str	r0, [r1, #0]
 8019b8a:	e7da      	b.n	8019b42 <_malloc_trim_r+0x32>
 8019b8c:	68bb      	ldr	r3, [r7, #8]
 8019b8e:	4a09      	ldr	r2, [pc, #36]	; (8019bb4 <_malloc_trim_r+0xa4>)
 8019b90:	1b2d      	subs	r5, r5, r4
 8019b92:	f045 0501 	orr.w	r5, r5, #1
 8019b96:	605d      	str	r5, [r3, #4]
 8019b98:	6813      	ldr	r3, [r2, #0]
 8019b9a:	4630      	mov	r0, r6
 8019b9c:	1b1c      	subs	r4, r3, r4
 8019b9e:	6014      	str	r4, [r2, #0]
 8019ba0:	f000 fd18 	bl	801a5d4 <__malloc_unlock>
 8019ba4:	2001      	movs	r0, #1
 8019ba6:	e8bd 83f8 	ldmia.w	sp!, {r3, r4, r5, r6, r7, r8, r9, pc}
 8019baa:	bf00      	nop
 8019bac:	20000280 	.word	0x20000280
 8019bb0:	20000688 	.word	0x20000688
 8019bb4:	20001a74 	.word	0x20001a74
 8019bb8:	00000080 	.word	0x00000080

08019bbc <_free_r>:
 8019bbc:	e92d 41f0 	stmdb	sp!, {r4, r5, r6, r7, r8, lr}
 8019bc0:	4604      	mov	r4, r0
 8019bc2:	4688      	mov	r8, r1
 8019bc4:	2900      	cmp	r1, #0
 8019bc6:	f000 80ab 	beq.w	8019d20 <_free_r+0x164>
 8019bca:	f000 fcfd 	bl	801a5c8 <__malloc_lock>
 8019bce:	f858 2c04 	ldr.w	r2, [r8, #-4]
 8019bd2:	4d54      	ldr	r5, [pc, #336]	; (8019d24 <_free_r+0x168>)
 8019bd4:	f022 0001 	bic.w	r0, r2, #1
 8019bd8:	f1a8 0308 	sub.w	r3, r8, #8
 8019bdc:	181f      	adds	r7, r3, r0
 8019bde:	68a9      	ldr	r1, [r5, #8]
 8019be0:	687e      	ldr	r6, [r7, #4]
 8019be2:	428f      	cmp	r7, r1
 8019be4:	f026 0603 	bic.w	r6, r6, #3
 8019be8:	f002 0201 	and.w	r2, r2, #1
 8019bec:	d11b      	bne.n	8019c26 <_free_r+0x6a>
 8019bee:	4430      	add	r0, r6
 8019bf0:	b93a      	cbnz	r2, 8019c02 <_free_r+0x46>
 8019bf2:	f858 2c08 	ldr.w	r2, [r8, #-8]
 8019bf6:	1a9b      	subs	r3, r3, r2
 8019bf8:	6899      	ldr	r1, [r3, #8]
 8019bfa:	4410      	add	r0, r2
 8019bfc:	68da      	ldr	r2, [r3, #12]
 8019bfe:	60ca      	str	r2, [r1, #12]
 8019c00:	6091      	str	r1, [r2, #8]
 8019c02:	f040 0201 	orr.w	r2, r0, #1
 8019c06:	605a      	str	r2, [r3, #4]
 8019c08:	60ab      	str	r3, [r5, #8]
 8019c0a:	4b47      	ldr	r3, [pc, #284]	; (8019d28 <_free_r+0x16c>)
 8019c0c:	681b      	ldr	r3, [r3, #0]
 8019c0e:	4298      	cmp	r0, r3
 8019c10:	d304      	bcc.n	8019c1c <_free_r+0x60>
 8019c12:	4b46      	ldr	r3, [pc, #280]	; (8019d2c <_free_r+0x170>)
 8019c14:	4620      	mov	r0, r4
 8019c16:	6819      	ldr	r1, [r3, #0]
 8019c18:	f7ff ff7a 	bl	8019b10 <_malloc_trim_r>
 8019c1c:	4620      	mov	r0, r4
 8019c1e:	e8bd 41f0 	ldmia.w	sp!, {r4, r5, r6, r7, r8, lr}
 8019c22:	f000 bcd7 	b.w	801a5d4 <__malloc_unlock>
 8019c26:	607e      	str	r6, [r7, #4]
 8019c28:	2a00      	cmp	r2, #0
 8019c2a:	d139      	bne.n	8019ca0 <_free_r+0xe4>
 8019c2c:	f858 1c08 	ldr.w	r1, [r8, #-8]
 8019c30:	f105 0e08 	add.w	lr, r5, #8
 8019c34:	1a5b      	subs	r3, r3, r1
 8019c36:	4408      	add	r0, r1
 8019c38:	6899      	ldr	r1, [r3, #8]
 8019c3a:	4571      	cmp	r1, lr
 8019c3c:	d032      	beq.n	8019ca4 <_free_r+0xe8>
 8019c3e:	f8d3 e00c 	ldr.w	lr, [r3, #12]
 8019c42:	f8c1 e00c 	str.w	lr, [r1, #12]
 8019c46:	f8ce 1008 	str.w	r1, [lr, #8]
 8019c4a:	19b9      	adds	r1, r7, r6
 8019c4c:	6849      	ldr	r1, [r1, #4]
 8019c4e:	07c9      	lsls	r1, r1, #31
 8019c50:	d40a      	bmi.n	8019c68 <_free_r+0xac>
 8019c52:	4430      	add	r0, r6
 8019c54:	68b9      	ldr	r1, [r7, #8]
 8019c56:	bb3a      	cbnz	r2, 8019ca8 <_free_r+0xec>
 8019c58:	4e35      	ldr	r6, [pc, #212]	; (8019d30 <_free_r+0x174>)
 8019c5a:	42b1      	cmp	r1, r6
 8019c5c:	d124      	bne.n	8019ca8 <_free_r+0xec>
 8019c5e:	2201      	movs	r2, #1
 8019c60:	616b      	str	r3, [r5, #20]
 8019c62:	612b      	str	r3, [r5, #16]
 8019c64:	60d9      	str	r1, [r3, #12]
 8019c66:	6099      	str	r1, [r3, #8]
 8019c68:	f040 0101 	orr.w	r1, r0, #1
 8019c6c:	6059      	str	r1, [r3, #4]
 8019c6e:	5018      	str	r0, [r3, r0]
 8019c70:	2a00      	cmp	r2, #0
 8019c72:	d1d3      	bne.n	8019c1c <_free_r+0x60>
 8019c74:	f5b0 7f00 	cmp.w	r0, #512	; 0x200
 8019c78:	d21a      	bcs.n	8019cb0 <_free_r+0xf4>
 8019c7a:	2201      	movs	r2, #1
 8019c7c:	08c0      	lsrs	r0, r0, #3
 8019c7e:	1081      	asrs	r1, r0, #2
 8019c80:	408a      	lsls	r2, r1
 8019c82:	6869      	ldr	r1, [r5, #4]
 8019c84:	3001      	adds	r0, #1
 8019c86:	430a      	orrs	r2, r1
 8019c88:	606a      	str	r2, [r5, #4]
 8019c8a:	f855 1030 	ldr.w	r1, [r5, r0, lsl #3]
 8019c8e:	eb05 02c0 	add.w	r2, r5, r0, lsl #3
 8019c92:	3a08      	subs	r2, #8
 8019c94:	60da      	str	r2, [r3, #12]
 8019c96:	6099      	str	r1, [r3, #8]
 8019c98:	f845 3030 	str.w	r3, [r5, r0, lsl #3]
 8019c9c:	60cb      	str	r3, [r1, #12]
 8019c9e:	e7bd      	b.n	8019c1c <_free_r+0x60>
 8019ca0:	2200      	movs	r2, #0
 8019ca2:	e7d2      	b.n	8019c4a <_free_r+0x8e>
 8019ca4:	2201      	movs	r2, #1
 8019ca6:	e7d0      	b.n	8019c4a <_free_r+0x8e>
 8019ca8:	68fe      	ldr	r6, [r7, #12]
 8019caa:	60ce      	str	r6, [r1, #12]
 8019cac:	60b1      	str	r1, [r6, #8]
 8019cae:	e7db      	b.n	8019c68 <_free_r+0xac>
 8019cb0:	0a42      	lsrs	r2, r0, #9
 8019cb2:	2a04      	cmp	r2, #4
 8019cb4:	d813      	bhi.n	8019cde <_free_r+0x122>
 8019cb6:	0982      	lsrs	r2, r0, #6
 8019cb8:	3238      	adds	r2, #56	; 0x38
 8019cba:	1c51      	adds	r1, r2, #1
 8019cbc:	f855 1031 	ldr.w	r1, [r5, r1, lsl #3]
 8019cc0:	eb05 06c2 	add.w	r6, r5, r2, lsl #3
 8019cc4:	428e      	cmp	r6, r1
 8019cc6:	d124      	bne.n	8019d12 <_free_r+0x156>
 8019cc8:	2001      	movs	r0, #1
 8019cca:	1092      	asrs	r2, r2, #2
 8019ccc:	fa00 f202 	lsl.w	r2, r0, r2
 8019cd0:	6868      	ldr	r0, [r5, #4]
 8019cd2:	4302      	orrs	r2, r0
 8019cd4:	606a      	str	r2, [r5, #4]
 8019cd6:	60de      	str	r6, [r3, #12]
 8019cd8:	6099      	str	r1, [r3, #8]
 8019cda:	60b3      	str	r3, [r6, #8]
 8019cdc:	e7de      	b.n	8019c9c <_free_r+0xe0>
 8019cde:	2a14      	cmp	r2, #20
 8019ce0:	d801      	bhi.n	8019ce6 <_free_r+0x12a>
 8019ce2:	325b      	adds	r2, #91	; 0x5b
 8019ce4:	e7e9      	b.n	8019cba <_free_r+0xfe>
 8019ce6:	2a54      	cmp	r2, #84	; 0x54
 8019ce8:	d802      	bhi.n	8019cf0 <_free_r+0x134>
 8019cea:	0b02      	lsrs	r2, r0, #12
 8019cec:	326e      	adds	r2, #110	; 0x6e
 8019cee:	e7e4      	b.n	8019cba <_free_r+0xfe>
 8019cf0:	f5b2 7faa 	cmp.w	r2, #340	; 0x154
 8019cf4:	d802      	bhi.n	8019cfc <_free_r+0x140>
 8019cf6:	0bc2      	lsrs	r2, r0, #15
 8019cf8:	3277      	adds	r2, #119	; 0x77
 8019cfa:	e7de      	b.n	8019cba <_free_r+0xfe>
 8019cfc:	f240 5154 	movw	r1, #1364	; 0x554
 8019d00:	428a      	cmp	r2, r1
 8019d02:	bf9a      	itte	ls
 8019d04:	0c82      	lsrls	r2, r0, #18
 8019d06:	327c      	addls	r2, #124	; 0x7c
 8019d08:	227e      	movhi	r2, #126	; 0x7e
 8019d0a:	e7d6      	b.n	8019cba <_free_r+0xfe>
 8019d0c:	6889      	ldr	r1, [r1, #8]
 8019d0e:	428e      	cmp	r6, r1
 8019d10:	d004      	beq.n	8019d1c <_free_r+0x160>
 8019d12:	684a      	ldr	r2, [r1, #4]
 8019d14:	f022 0203 	bic.w	r2, r2, #3
 8019d18:	4290      	cmp	r0, r2
 8019d1a:	d3f7      	bcc.n	8019d0c <_free_r+0x150>
 8019d1c:	68ce      	ldr	r6, [r1, #12]
 8019d1e:	e7da      	b.n	8019cd6 <_free_r+0x11a>
 8019d20:	e8bd 81f0 	ldmia.w	sp!, {r4, r5, r6, r7, r8, pc}
 8019d24:	20000280 	.word	0x20000280
 8019d28:	2000068c 	.word	0x2000068c
 8019d2c:	20001aa4 	.word	0x20001aa4
 8019d30:	20000288 	.word	0x20000288

08019d34 <__sfvwrite_r>:
 8019d34:	6893      	ldr	r3, [r2, #8]
 8019d36:	e92d 4ff7 	stmdb	sp!, {r0, r1, r2, r4, r5, r6, r7, r8, r9, sl, fp, lr}
 8019d3a:	4607      	mov	r7, r0
 8019d3c:	460c      	mov	r4, r1
 8019d3e:	4690      	mov	r8, r2
 8019d40:	b91b      	cbnz	r3, 8019d4a <__sfvwrite_r+0x16>
 8019d42:	2000      	movs	r0, #0
 8019d44:	b003      	add	sp, #12
 8019d46:	e8bd 8ff0 	ldmia.w	sp!, {r4, r5, r6, r7, r8, r9, sl, fp, pc}
 8019d4a:	898b      	ldrh	r3, [r1, #12]
 8019d4c:	0718      	lsls	r0, r3, #28
 8019d4e:	d526      	bpl.n	8019d9e <__sfvwrite_r+0x6a>
 8019d50:	690b      	ldr	r3, [r1, #16]
 8019d52:	b323      	cbz	r3, 8019d9e <__sfvwrite_r+0x6a>
 8019d54:	89a3      	ldrh	r3, [r4, #12]
 8019d56:	f8d8 6000 	ldr.w	r6, [r8]
 8019d5a:	f013 0902 	ands.w	r9, r3, #2
 8019d5e:	d02d      	beq.n	8019dbc <__sfvwrite_r+0x88>
 8019d60:	f04f 0a00 	mov.w	sl, #0
 8019d64:	46d1      	mov	r9, sl
 8019d66:	f8df b264 	ldr.w	fp, [pc, #612]	; 8019fcc <__sfvwrite_r+0x298>
 8019d6a:	f1b9 0f00 	cmp.w	r9, #0
 8019d6e:	d01f      	beq.n	8019db0 <__sfvwrite_r+0x7c>
 8019d70:	45d9      	cmp	r9, fp
 8019d72:	464b      	mov	r3, r9
 8019d74:	4652      	mov	r2, sl
 8019d76:	bf28      	it	cs
 8019d78:	465b      	movcs	r3, fp
 8019d7a:	6a21      	ldr	r1, [r4, #32]
 8019d7c:	4638      	mov	r0, r7
 8019d7e:	6aa5      	ldr	r5, [r4, #40]	; 0x28
 8019d80:	47a8      	blx	r5
 8019d82:	2800      	cmp	r0, #0
 8019d84:	f340 8089 	ble.w	8019e9a <__sfvwrite_r+0x166>
 8019d88:	f8d8 3008 	ldr.w	r3, [r8, #8]
 8019d8c:	4482      	add	sl, r0
 8019d8e:	eba9 0900 	sub.w	r9, r9, r0
 8019d92:	1a18      	subs	r0, r3, r0
 8019d94:	f8c8 0008 	str.w	r0, [r8, #8]
 8019d98:	2800      	cmp	r0, #0
 8019d9a:	d1e6      	bne.n	8019d6a <__sfvwrite_r+0x36>
 8019d9c:	e7d1      	b.n	8019d42 <__sfvwrite_r+0xe>
 8019d9e:	4621      	mov	r1, r4
 8019da0:	4638      	mov	r0, r7
 8019da2:	f7fe fe3d 	bl	8018a20 <__swsetup_r>
 8019da6:	2800      	cmp	r0, #0
 8019da8:	d0d4      	beq.n	8019d54 <__sfvwrite_r+0x20>
 8019daa:	f04f 30ff 	mov.w	r0, #4294967295
 8019dae:	e7c9      	b.n	8019d44 <__sfvwrite_r+0x10>
 8019db0:	f8d6 a000 	ldr.w	sl, [r6]
 8019db4:	f8d6 9004 	ldr.w	r9, [r6, #4]
 8019db8:	3608      	adds	r6, #8
 8019dba:	e7d6      	b.n	8019d6a <__sfvwrite_r+0x36>
 8019dbc:	f013 0301 	ands.w	r3, r3, #1
 8019dc0:	d043      	beq.n	8019e4a <__sfvwrite_r+0x116>
 8019dc2:	4648      	mov	r0, r9
 8019dc4:	46ca      	mov	sl, r9
 8019dc6:	46cb      	mov	fp, r9
 8019dc8:	f1bb 0f00 	cmp.w	fp, #0
 8019dcc:	f000 80d9 	beq.w	8019f82 <__sfvwrite_r+0x24e>
 8019dd0:	b950      	cbnz	r0, 8019de8 <__sfvwrite_r+0xb4>
 8019dd2:	465a      	mov	r2, fp
 8019dd4:	210a      	movs	r1, #10
 8019dd6:	4650      	mov	r0, sl
 8019dd8:	f000 fbce 	bl	801a578 <memchr>
 8019ddc:	2800      	cmp	r0, #0
 8019dde:	f000 80d5 	beq.w	8019f8c <__sfvwrite_r+0x258>
 8019de2:	3001      	adds	r0, #1
 8019de4:	eba0 090a 	sub.w	r9, r0, sl
 8019de8:	6820      	ldr	r0, [r4, #0]
 8019dea:	6921      	ldr	r1, [r4, #16]
 8019dec:	45d9      	cmp	r9, fp
 8019dee:	464b      	mov	r3, r9
 8019df0:	bf28      	it	cs
 8019df2:	465b      	movcs	r3, fp
 8019df4:	4288      	cmp	r0, r1
 8019df6:	6962      	ldr	r2, [r4, #20]
 8019df8:	f240 80cb 	bls.w	8019f92 <__sfvwrite_r+0x25e>
 8019dfc:	68a5      	ldr	r5, [r4, #8]
 8019dfe:	4415      	add	r5, r2
 8019e00:	42ab      	cmp	r3, r5
 8019e02:	f340 80c6 	ble.w	8019f92 <__sfvwrite_r+0x25e>
 8019e06:	4651      	mov	r1, sl
 8019e08:	462a      	mov	r2, r5
 8019e0a:	f000 fbc3 	bl	801a594 <memmove>
 8019e0e:	6823      	ldr	r3, [r4, #0]
 8019e10:	4621      	mov	r1, r4
 8019e12:	442b      	add	r3, r5
 8019e14:	6023      	str	r3, [r4, #0]
 8019e16:	4638      	mov	r0, r7
 8019e18:	f7ff fd64 	bl	80198e4 <_fflush_r>
 8019e1c:	2800      	cmp	r0, #0
 8019e1e:	d13c      	bne.n	8019e9a <__sfvwrite_r+0x166>
 8019e20:	ebb9 0905 	subs.w	r9, r9, r5
 8019e24:	f040 80cf 	bne.w	8019fc6 <__sfvwrite_r+0x292>
 8019e28:	4621      	mov	r1, r4
 8019e2a:	4638      	mov	r0, r7
 8019e2c:	f7ff fd5a 	bl	80198e4 <_fflush_r>
 8019e30:	2800      	cmp	r0, #0
 8019e32:	d132      	bne.n	8019e9a <__sfvwrite_r+0x166>
 8019e34:	f8d8 3008 	ldr.w	r3, [r8, #8]
 8019e38:	44aa      	add	sl, r5
 8019e3a:	ebab 0b05 	sub.w	fp, fp, r5
 8019e3e:	1b5d      	subs	r5, r3, r5
 8019e40:	f8c8 5008 	str.w	r5, [r8, #8]
 8019e44:	2d00      	cmp	r5, #0
 8019e46:	d1bf      	bne.n	8019dc8 <__sfvwrite_r+0x94>
 8019e48:	e77b      	b.n	8019d42 <__sfvwrite_r+0xe>
 8019e4a:	4699      	mov	r9, r3
 8019e4c:	469a      	mov	sl, r3
 8019e4e:	f1ba 0f00 	cmp.w	sl, #0
 8019e52:	d027      	beq.n	8019ea4 <__sfvwrite_r+0x170>
 8019e54:	89a2      	ldrh	r2, [r4, #12]
 8019e56:	68a5      	ldr	r5, [r4, #8]
 8019e58:	0591      	lsls	r1, r2, #22
 8019e5a:	d565      	bpl.n	8019f28 <__sfvwrite_r+0x1f4>
 8019e5c:	45aa      	cmp	sl, r5
 8019e5e:	d33b      	bcc.n	8019ed8 <__sfvwrite_r+0x1a4>
 8019e60:	f412 6f90 	tst.w	r2, #1152	; 0x480
 8019e64:	d036      	beq.n	8019ed4 <__sfvwrite_r+0x1a0>
 8019e66:	2002      	movs	r0, #2
 8019e68:	6921      	ldr	r1, [r4, #16]
 8019e6a:	6823      	ldr	r3, [r4, #0]
 8019e6c:	1a5b      	subs	r3, r3, r1
 8019e6e:	9301      	str	r3, [sp, #4]
 8019e70:	6963      	ldr	r3, [r4, #20]
 8019e72:	eb03 0343 	add.w	r3, r3, r3, lsl #1
 8019e76:	fb93 fbf0 	sdiv	fp, r3, r0
 8019e7a:	9b01      	ldr	r3, [sp, #4]
 8019e7c:	1c58      	adds	r0, r3, #1
 8019e7e:	4450      	add	r0, sl
 8019e80:	4583      	cmp	fp, r0
 8019e82:	bf38      	it	cc
 8019e84:	4683      	movcc	fp, r0
 8019e86:	0553      	lsls	r3, r2, #21
 8019e88:	d53e      	bpl.n	8019f08 <__sfvwrite_r+0x1d4>
 8019e8a:	4659      	mov	r1, fp
 8019e8c:	4638      	mov	r0, r7
 8019e8e:	f000 f955 	bl	801a13c <_malloc_r>
 8019e92:	4605      	mov	r5, r0
 8019e94:	b950      	cbnz	r0, 8019eac <__sfvwrite_r+0x178>
 8019e96:	230c      	movs	r3, #12
 8019e98:	603b      	str	r3, [r7, #0]
 8019e9a:	89a3      	ldrh	r3, [r4, #12]
 8019e9c:	f043 0340 	orr.w	r3, r3, #64	; 0x40
 8019ea0:	81a3      	strh	r3, [r4, #12]
 8019ea2:	e782      	b.n	8019daa <__sfvwrite_r+0x76>
 8019ea4:	e896 0600 	ldmia.w	r6, {r9, sl}
 8019ea8:	3608      	adds	r6, #8
 8019eaa:	e7d0      	b.n	8019e4e <__sfvwrite_r+0x11a>
 8019eac:	9a01      	ldr	r2, [sp, #4]
 8019eae:	6921      	ldr	r1, [r4, #16]
 8019eb0:	f7fc fadd 	bl	801646e <memcpy>
 8019eb4:	89a2      	ldrh	r2, [r4, #12]
 8019eb6:	f422 6290 	bic.w	r2, r2, #1152	; 0x480
 8019eba:	f042 0280 	orr.w	r2, r2, #128	; 0x80
 8019ebe:	81a2      	strh	r2, [r4, #12]
 8019ec0:	9b01      	ldr	r3, [sp, #4]
 8019ec2:	6125      	str	r5, [r4, #16]
 8019ec4:	441d      	add	r5, r3
 8019ec6:	6025      	str	r5, [r4, #0]
 8019ec8:	4655      	mov	r5, sl
 8019eca:	ebab 0303 	sub.w	r3, fp, r3
 8019ece:	f8c4 b014 	str.w	fp, [r4, #20]
 8019ed2:	60a3      	str	r3, [r4, #8]
 8019ed4:	45aa      	cmp	sl, r5
 8019ed6:	d200      	bcs.n	8019eda <__sfvwrite_r+0x1a6>
 8019ed8:	4655      	mov	r5, sl
 8019eda:	462a      	mov	r2, r5
 8019edc:	4649      	mov	r1, r9
 8019ede:	6820      	ldr	r0, [r4, #0]
 8019ee0:	f000 fb58 	bl	801a594 <memmove>
 8019ee4:	68a3      	ldr	r3, [r4, #8]
 8019ee6:	1b5b      	subs	r3, r3, r5
 8019ee8:	60a3      	str	r3, [r4, #8]
 8019eea:	6823      	ldr	r3, [r4, #0]
 8019eec:	441d      	add	r5, r3
 8019eee:	6025      	str	r5, [r4, #0]
 8019ef0:	4655      	mov	r5, sl
 8019ef2:	f8d8 3008 	ldr.w	r3, [r8, #8]
 8019ef6:	44a9      	add	r9, r5
 8019ef8:	ebaa 0a05 	sub.w	sl, sl, r5
 8019efc:	1b5d      	subs	r5, r3, r5
 8019efe:	f8c8 5008 	str.w	r5, [r8, #8]
 8019f02:	2d00      	cmp	r5, #0
 8019f04:	d1a3      	bne.n	8019e4e <__sfvwrite_r+0x11a>
 8019f06:	e71c      	b.n	8019d42 <__sfvwrite_r+0xe>
 8019f08:	465a      	mov	r2, fp
 8019f0a:	4638      	mov	r0, r7
 8019f0c:	f000 fe3a 	bl	801ab84 <_realloc_r>
 8019f10:	4605      	mov	r5, r0
 8019f12:	2800      	cmp	r0, #0
 8019f14:	d1d4      	bne.n	8019ec0 <__sfvwrite_r+0x18c>
 8019f16:	6921      	ldr	r1, [r4, #16]
 8019f18:	4638      	mov	r0, r7
 8019f1a:	f7ff fe4f 	bl	8019bbc <_free_r>
 8019f1e:	89a3      	ldrh	r3, [r4, #12]
 8019f20:	f023 0380 	bic.w	r3, r3, #128	; 0x80
 8019f24:	81a3      	strh	r3, [r4, #12]
 8019f26:	e7b6      	b.n	8019e96 <__sfvwrite_r+0x162>
 8019f28:	6820      	ldr	r0, [r4, #0]
 8019f2a:	6923      	ldr	r3, [r4, #16]
 8019f2c:	4298      	cmp	r0, r3
 8019f2e:	d802      	bhi.n	8019f36 <__sfvwrite_r+0x202>
 8019f30:	6962      	ldr	r2, [r4, #20]
 8019f32:	4592      	cmp	sl, r2
 8019f34:	d215      	bcs.n	8019f62 <__sfvwrite_r+0x22e>
 8019f36:	4555      	cmp	r5, sl
 8019f38:	bf28      	it	cs
 8019f3a:	4655      	movcs	r5, sl
 8019f3c:	4649      	mov	r1, r9
 8019f3e:	462a      	mov	r2, r5
 8019f40:	f000 fb28 	bl	801a594 <memmove>
 8019f44:	68a3      	ldr	r3, [r4, #8]
 8019f46:	6822      	ldr	r2, [r4, #0]
 8019f48:	1b5b      	subs	r3, r3, r5
 8019f4a:	442a      	add	r2, r5
 8019f4c:	60a3      	str	r3, [r4, #8]
 8019f4e:	6022      	str	r2, [r4, #0]
 8019f50:	2b00      	cmp	r3, #0
 8019f52:	d1ce      	bne.n	8019ef2 <__sfvwrite_r+0x1be>
 8019f54:	4621      	mov	r1, r4
 8019f56:	4638      	mov	r0, r7
 8019f58:	f7ff fcc4 	bl	80198e4 <_fflush_r>
 8019f5c:	2800      	cmp	r0, #0
 8019f5e:	d0c8      	beq.n	8019ef2 <__sfvwrite_r+0x1be>
 8019f60:	e79b      	b.n	8019e9a <__sfvwrite_r+0x166>
 8019f62:	f06f 4300 	mvn.w	r3, #2147483648	; 0x80000000
 8019f66:	4553      	cmp	r3, sl
 8019f68:	bf28      	it	cs
 8019f6a:	4653      	movcs	r3, sl
 8019f6c:	fb93 f3f2 	sdiv	r3, r3, r2
 8019f70:	6aa5      	ldr	r5, [r4, #40]	; 0x28
 8019f72:	4353      	muls	r3, r2
 8019f74:	6a21      	ldr	r1, [r4, #32]
 8019f76:	464a      	mov	r2, r9
 8019f78:	4638      	mov	r0, r7
 8019f7a:	47a8      	blx	r5
 8019f7c:	1e05      	subs	r5, r0, #0
 8019f7e:	dcb8      	bgt.n	8019ef2 <__sfvwrite_r+0x1be>
 8019f80:	e78b      	b.n	8019e9a <__sfvwrite_r+0x166>
 8019f82:	e896 0c00 	ldmia.w	r6, {sl, fp}
 8019f86:	2000      	movs	r0, #0
 8019f88:	3608      	adds	r6, #8
 8019f8a:	e71d      	b.n	8019dc8 <__sfvwrite_r+0x94>
 8019f8c:	f10b 0901 	add.w	r9, fp, #1
 8019f90:	e72a      	b.n	8019de8 <__sfvwrite_r+0xb4>
 8019f92:	4293      	cmp	r3, r2
 8019f94:	db09      	blt.n	8019faa <__sfvwrite_r+0x276>
 8019f96:	6aa5      	ldr	r5, [r4, #40]	; 0x28
 8019f98:	4613      	mov	r3, r2
 8019f9a:	6a21      	ldr	r1, [r4, #32]
 8019f9c:	4652      	mov	r2, sl
 8019f9e:	4638      	mov	r0, r7
 8019fa0:	47a8      	blx	r5
 8019fa2:	1e05      	subs	r5, r0, #0
 8019fa4:	f73f af3c 	bgt.w	8019e20 <__sfvwrite_r+0xec>
 8019fa8:	e777      	b.n	8019e9a <__sfvwrite_r+0x166>
 8019faa:	461a      	mov	r2, r3
 8019fac:	4651      	mov	r1, sl
 8019fae:	9301      	str	r3, [sp, #4]
 8019fb0:	f000 faf0 	bl	801a594 <memmove>
 8019fb4:	9b01      	ldr	r3, [sp, #4]
 8019fb6:	68a2      	ldr	r2, [r4, #8]
 8019fb8:	461d      	mov	r5, r3
 8019fba:	1ad2      	subs	r2, r2, r3
 8019fbc:	60a2      	str	r2, [r4, #8]
 8019fbe:	6822      	ldr	r2, [r4, #0]
 8019fc0:	441a      	add	r2, r3
 8019fc2:	6022      	str	r2, [r4, #0]
 8019fc4:	e72c      	b.n	8019e20 <__sfvwrite_r+0xec>
 8019fc6:	2001      	movs	r0, #1
 8019fc8:	e734      	b.n	8019e34 <__sfvwrite_r+0x100>
 8019fca:	bf00      	nop
 8019fcc:	7ffffc00 	.word	0x7ffffc00

08019fd0 <_fwalk_reent>:
 8019fd0:	e92d 43f8 	stmdb	sp!, {r3, r4, r5, r6, r7, r8, r9, lr}
 8019fd4:	4680      	mov	r8, r0
 8019fd6:	4689      	mov	r9, r1
 8019fd8:	2600      	movs	r6, #0
 8019fda:	f100 04d8 	add.w	r4, r0, #216	; 0xd8
 8019fde:	b914      	cbnz	r4, 8019fe6 <_fwalk_reent+0x16>
 8019fe0:	4630      	mov	r0, r6
 8019fe2:	e8bd 83f8 	ldmia.w	sp!, {r3, r4, r5, r6, r7, r8, r9, pc}
 8019fe6:	68a5      	ldr	r5, [r4, #8]
 8019fe8:	6867      	ldr	r7, [r4, #4]
 8019fea:	3f01      	subs	r7, #1
 8019fec:	d501      	bpl.n	8019ff2 <_fwalk_reent+0x22>
 8019fee:	6824      	ldr	r4, [r4, #0]
 8019ff0:	e7f5      	b.n	8019fde <_fwalk_reent+0xe>
 8019ff2:	89ab      	ldrh	r3, [r5, #12]
 8019ff4:	2b01      	cmp	r3, #1
 8019ff6:	d907      	bls.n	801a008 <_fwalk_reent+0x38>
 8019ff8:	f9b5 300e 	ldrsh.w	r3, [r5, #14]
 8019ffc:	3301      	adds	r3, #1
 8019ffe:	d003      	beq.n	801a008 <_fwalk_reent+0x38>
 801a000:	4629      	mov	r1, r5
 801a002:	4640      	mov	r0, r8
 801a004:	47c8      	blx	r9
 801a006:	4306      	orrs	r6, r0
 801a008:	3568      	adds	r5, #104	; 0x68
 801a00a:	e7ee      	b.n	8019fea <_fwalk_reent+0x1a>

0801a00c <__locale_mb_cur_max>:
 801a00c:	4b04      	ldr	r3, [pc, #16]	; (801a020 <__locale_mb_cur_max+0x14>)
 801a00e:	4a05      	ldr	r2, [pc, #20]	; (801a024 <__locale_mb_cur_max+0x18>)
 801a010:	681b      	ldr	r3, [r3, #0]
 801a012:	6a1b      	ldr	r3, [r3, #32]
 801a014:	2b00      	cmp	r3, #0
 801a016:	bf08      	it	eq
 801a018:	4613      	moveq	r3, r2
 801a01a:	f893 0128 	ldrb.w	r0, [r3, #296]	; 0x128
 801a01e:	4770      	bx	lr
 801a020:	20000020 	.word	0x20000020
 801a024:	20000114 	.word	0x20000114

0801a028 <__locale_ctype_ptr_l>:
 801a028:	f8d0 00ec 	ldr.w	r0, [r0, #236]	; 0xec
 801a02c:	4770      	bx	lr
	...

0801a030 <_localeconv_r>:
 801a030:	4b04      	ldr	r3, [pc, #16]	; (801a044 <_localeconv_r+0x14>)
 801a032:	681b      	ldr	r3, [r3, #0]
 801a034:	6a18      	ldr	r0, [r3, #32]
 801a036:	4b04      	ldr	r3, [pc, #16]	; (801a048 <_localeconv_r+0x18>)
 801a038:	2800      	cmp	r0, #0
 801a03a:	bf08      	it	eq
 801a03c:	4618      	moveq	r0, r3
 801a03e:	30f0      	adds	r0, #240	; 0xf0
 801a040:	4770      	bx	lr
 801a042:	bf00      	nop
 801a044:	20000020 	.word	0x20000020
 801a048:	20000114 	.word	0x20000114

0801a04c <__retarget_lock_init_recursive>:
 801a04c:	4770      	bx	lr

0801a04e <__retarget_lock_close_recursive>:
 801a04e:	4770      	bx	lr

0801a050 <__retarget_lock_acquire_recursive>:
 801a050:	4770      	bx	lr

0801a052 <__retarget_lock_release_recursive>:
 801a052:	4770      	bx	lr

0801a054 <__swhatbuf_r>:
 801a054:	b570      	push	{r4, r5, r6, lr}
 801a056:	460e      	mov	r6, r1
 801a058:	f9b1 100e 	ldrsh.w	r1, [r1, #14]
 801a05c:	b090      	sub	sp, #64	; 0x40
 801a05e:	2900      	cmp	r1, #0
 801a060:	4614      	mov	r4, r2
 801a062:	461d      	mov	r5, r3
 801a064:	da09      	bge.n	801a07a <__swhatbuf_r+0x26>
 801a066:	2200      	movs	r2, #0
 801a068:	89b3      	ldrh	r3, [r6, #12]
 801a06a:	602a      	str	r2, [r5, #0]
 801a06c:	f013 0080 	ands.w	r0, r3, #128	; 0x80
 801a070:	d116      	bne.n	801a0a0 <__swhatbuf_r+0x4c>
 801a072:	f44f 6380 	mov.w	r3, #1024	; 0x400
 801a076:	6023      	str	r3, [r4, #0]
 801a078:	e015      	b.n	801a0a6 <__swhatbuf_r+0x52>
 801a07a:	aa01      	add	r2, sp, #4
 801a07c:	f001 f93a 	bl	801b2f4 <_fstat_r>
 801a080:	2800      	cmp	r0, #0
 801a082:	dbf0      	blt.n	801a066 <__swhatbuf_r+0x12>
 801a084:	9a02      	ldr	r2, [sp, #8]
 801a086:	f44f 6000 	mov.w	r0, #2048	; 0x800
 801a08a:	f402 4270 	and.w	r2, r2, #61440	; 0xf000
 801a08e:	f5a2 5300 	sub.w	r3, r2, #8192	; 0x2000
 801a092:	425a      	negs	r2, r3
 801a094:	415a      	adcs	r2, r3
 801a096:	f44f 6380 	mov.w	r3, #1024	; 0x400
 801a09a:	602a      	str	r2, [r5, #0]
 801a09c:	6023      	str	r3, [r4, #0]
 801a09e:	e002      	b.n	801a0a6 <__swhatbuf_r+0x52>
 801a0a0:	2340      	movs	r3, #64	; 0x40
 801a0a2:	4610      	mov	r0, r2
 801a0a4:	6023      	str	r3, [r4, #0]
 801a0a6:	b010      	add	sp, #64	; 0x40
 801a0a8:	bd70      	pop	{r4, r5, r6, pc}
	...

0801a0ac <__smakebuf_r>:
 801a0ac:	898b      	ldrh	r3, [r1, #12]
 801a0ae:	b573      	push	{r0, r1, r4, r5, r6, lr}
 801a0b0:	079d      	lsls	r5, r3, #30
 801a0b2:	4606      	mov	r6, r0
 801a0b4:	460c      	mov	r4, r1
 801a0b6:	d507      	bpl.n	801a0c8 <__smakebuf_r+0x1c>
 801a0b8:	f104 0347 	add.w	r3, r4, #71	; 0x47
 801a0bc:	6023      	str	r3, [r4, #0]
 801a0be:	6123      	str	r3, [r4, #16]
 801a0c0:	2301      	movs	r3, #1
 801a0c2:	6163      	str	r3, [r4, #20]
 801a0c4:	b002      	add	sp, #8
 801a0c6:	bd70      	pop	{r4, r5, r6, pc}
 801a0c8:	ab01      	add	r3, sp, #4
 801a0ca:	466a      	mov	r2, sp
 801a0cc:	f7ff ffc2 	bl	801a054 <__swhatbuf_r>
 801a0d0:	9900      	ldr	r1, [sp, #0]
 801a0d2:	4605      	mov	r5, r0
 801a0d4:	4630      	mov	r0, r6
 801a0d6:	f000 f831 	bl	801a13c <_malloc_r>
 801a0da:	b948      	cbnz	r0, 801a0f0 <__smakebuf_r+0x44>
 801a0dc:	f9b4 300c 	ldrsh.w	r3, [r4, #12]
 801a0e0:	059a      	lsls	r2, r3, #22
 801a0e2:	d4ef      	bmi.n	801a0c4 <__smakebuf_r+0x18>
 801a0e4:	f023 0303 	bic.w	r3, r3, #3
 801a0e8:	f043 0302 	orr.w	r3, r3, #2
 801a0ec:	81a3      	strh	r3, [r4, #12]
 801a0ee:	e7e3      	b.n	801a0b8 <__smakebuf_r+0xc>
 801a0f0:	4b0d      	ldr	r3, [pc, #52]	; (801a128 <__smakebuf_r+0x7c>)
 801a0f2:	62b3      	str	r3, [r6, #40]	; 0x28
 801a0f4:	89a3      	ldrh	r3, [r4, #12]
 801a0f6:	6020      	str	r0, [r4, #0]
 801a0f8:	f043 0380 	orr.w	r3, r3, #128	; 0x80
 801a0fc:	81a3      	strh	r3, [r4, #12]
 801a0fe:	9b00      	ldr	r3, [sp, #0]
 801a100:	6120      	str	r0, [r4, #16]
 801a102:	6163      	str	r3, [r4, #20]
 801a104:	9b01      	ldr	r3, [sp, #4]
 801a106:	b15b      	cbz	r3, 801a120 <__smakebuf_r+0x74>
 801a108:	f9b4 100e 	ldrsh.w	r1, [r4, #14]
 801a10c:	4630      	mov	r0, r6
 801a10e:	f001 f903 	bl	801b318 <_isatty_r>
 801a112:	b128      	cbz	r0, 801a120 <__smakebuf_r+0x74>
 801a114:	89a3      	ldrh	r3, [r4, #12]
 801a116:	f023 0303 	bic.w	r3, r3, #3
 801a11a:	f043 0301 	orr.w	r3, r3, #1
 801a11e:	81a3      	strh	r3, [r4, #12]
 801a120:	89a3      	ldrh	r3, [r4, #12]
 801a122:	431d      	orrs	r5, r3
 801a124:	81a5      	strh	r5, [r4, #12]
 801a126:	e7cd      	b.n	801a0c4 <__smakebuf_r+0x18>
 801a128:	0801995d 	.word	0x0801995d

0801a12c <malloc>:
 801a12c:	4b02      	ldr	r3, [pc, #8]	; (801a138 <malloc+0xc>)
 801a12e:	4601      	mov	r1, r0
 801a130:	6818      	ldr	r0, [r3, #0]
 801a132:	f000 b803 	b.w	801a13c <_malloc_r>
 801a136:	bf00      	nop
 801a138:	20000020 	.word	0x20000020

0801a13c <_malloc_r>:
 801a13c:	e92d 4ff7 	stmdb	sp!, {r0, r1, r2, r4, r5, r6, r7, r8, r9, sl, fp, lr}
 801a140:	f101 040b 	add.w	r4, r1, #11
 801a144:	2c16      	cmp	r4, #22
 801a146:	4681      	mov	r9, r0
 801a148:	d907      	bls.n	801a15a <_malloc_r+0x1e>
 801a14a:	f034 0407 	bics.w	r4, r4, #7
 801a14e:	d505      	bpl.n	801a15c <_malloc_r+0x20>
 801a150:	230c      	movs	r3, #12
 801a152:	f8c9 3000 	str.w	r3, [r9]
 801a156:	2600      	movs	r6, #0
 801a158:	e131      	b.n	801a3be <_malloc_r+0x282>
 801a15a:	2410      	movs	r4, #16
 801a15c:	428c      	cmp	r4, r1
 801a15e:	d3f7      	bcc.n	801a150 <_malloc_r+0x14>
 801a160:	4648      	mov	r0, r9
 801a162:	f000 fa31 	bl	801a5c8 <__malloc_lock>
 801a166:	f5b4 7ffc 	cmp.w	r4, #504	; 0x1f8
 801a16a:	4d9b      	ldr	r5, [pc, #620]	; (801a3d8 <_malloc_r+0x29c>)
 801a16c:	d236      	bcs.n	801a1dc <_malloc_r+0xa0>
 801a16e:	f104 0208 	add.w	r2, r4, #8
 801a172:	442a      	add	r2, r5
 801a174:	6856      	ldr	r6, [r2, #4]
 801a176:	f1a2 0108 	sub.w	r1, r2, #8
 801a17a:	428e      	cmp	r6, r1
 801a17c:	ea4f 03d4 	mov.w	r3, r4, lsr #3
 801a180:	d102      	bne.n	801a188 <_malloc_r+0x4c>
 801a182:	68d6      	ldr	r6, [r2, #12]
 801a184:	42b2      	cmp	r2, r6
 801a186:	d010      	beq.n	801a1aa <_malloc_r+0x6e>
 801a188:	6873      	ldr	r3, [r6, #4]
 801a18a:	68f2      	ldr	r2, [r6, #12]
 801a18c:	68b1      	ldr	r1, [r6, #8]
 801a18e:	f023 0303 	bic.w	r3, r3, #3
 801a192:	60ca      	str	r2, [r1, #12]
 801a194:	4433      	add	r3, r6
 801a196:	6091      	str	r1, [r2, #8]
 801a198:	685a      	ldr	r2, [r3, #4]
 801a19a:	f042 0201 	orr.w	r2, r2, #1
 801a19e:	605a      	str	r2, [r3, #4]
 801a1a0:	4648      	mov	r0, r9
 801a1a2:	f000 fa17 	bl	801a5d4 <__malloc_unlock>
 801a1a6:	3608      	adds	r6, #8
 801a1a8:	e109      	b.n	801a3be <_malloc_r+0x282>
 801a1aa:	3302      	adds	r3, #2
 801a1ac:	4a8b      	ldr	r2, [pc, #556]	; (801a3dc <_malloc_r+0x2a0>)
 801a1ae:	692e      	ldr	r6, [r5, #16]
 801a1b0:	4611      	mov	r1, r2
 801a1b2:	4296      	cmp	r6, r2
 801a1b4:	d06d      	beq.n	801a292 <_malloc_r+0x156>
 801a1b6:	6870      	ldr	r0, [r6, #4]
 801a1b8:	f020 0003 	bic.w	r0, r0, #3
 801a1bc:	1b07      	subs	r7, r0, r4
 801a1be:	2f0f      	cmp	r7, #15
 801a1c0:	dd47      	ble.n	801a252 <_malloc_r+0x116>
 801a1c2:	1933      	adds	r3, r6, r4
 801a1c4:	f044 0401 	orr.w	r4, r4, #1
 801a1c8:	6074      	str	r4, [r6, #4]
 801a1ca:	616b      	str	r3, [r5, #20]
 801a1cc:	612b      	str	r3, [r5, #16]
 801a1ce:	60da      	str	r2, [r3, #12]
 801a1d0:	609a      	str	r2, [r3, #8]
 801a1d2:	f047 0201 	orr.w	r2, r7, #1
 801a1d6:	605a      	str	r2, [r3, #4]
 801a1d8:	5037      	str	r7, [r6, r0]
 801a1da:	e7e1      	b.n	801a1a0 <_malloc_r+0x64>
 801a1dc:	0a63      	lsrs	r3, r4, #9
 801a1de:	d02a      	beq.n	801a236 <_malloc_r+0xfa>
 801a1e0:	2b04      	cmp	r3, #4
 801a1e2:	d812      	bhi.n	801a20a <_malloc_r+0xce>
 801a1e4:	09a3      	lsrs	r3, r4, #6
 801a1e6:	3338      	adds	r3, #56	; 0x38
 801a1e8:	1c5a      	adds	r2, r3, #1
 801a1ea:	eb05 02c2 	add.w	r2, r5, r2, lsl #3
 801a1ee:	6856      	ldr	r6, [r2, #4]
 801a1f0:	f1a2 0008 	sub.w	r0, r2, #8
 801a1f4:	4286      	cmp	r6, r0
 801a1f6:	d006      	beq.n	801a206 <_malloc_r+0xca>
 801a1f8:	6872      	ldr	r2, [r6, #4]
 801a1fa:	f022 0203 	bic.w	r2, r2, #3
 801a1fe:	1b11      	subs	r1, r2, r4
 801a200:	290f      	cmp	r1, #15
 801a202:	dd1c      	ble.n	801a23e <_malloc_r+0x102>
 801a204:	3b01      	subs	r3, #1
 801a206:	3301      	adds	r3, #1
 801a208:	e7d0      	b.n	801a1ac <_malloc_r+0x70>
 801a20a:	2b14      	cmp	r3, #20
 801a20c:	d801      	bhi.n	801a212 <_malloc_r+0xd6>
 801a20e:	335b      	adds	r3, #91	; 0x5b
 801a210:	e7ea      	b.n	801a1e8 <_malloc_r+0xac>
 801a212:	2b54      	cmp	r3, #84	; 0x54
 801a214:	d802      	bhi.n	801a21c <_malloc_r+0xe0>
 801a216:	0b23      	lsrs	r3, r4, #12
 801a218:	336e      	adds	r3, #110	; 0x6e
 801a21a:	e7e5      	b.n	801a1e8 <_malloc_r+0xac>
 801a21c:	f5b3 7faa 	cmp.w	r3, #340	; 0x154
 801a220:	d802      	bhi.n	801a228 <_malloc_r+0xec>
 801a222:	0be3      	lsrs	r3, r4, #15
 801a224:	3377      	adds	r3, #119	; 0x77
 801a226:	e7df      	b.n	801a1e8 <_malloc_r+0xac>
 801a228:	f240 5254 	movw	r2, #1364	; 0x554
 801a22c:	4293      	cmp	r3, r2
 801a22e:	d804      	bhi.n	801a23a <_malloc_r+0xfe>
 801a230:	0ca3      	lsrs	r3, r4, #18
 801a232:	337c      	adds	r3, #124	; 0x7c
 801a234:	e7d8      	b.n	801a1e8 <_malloc_r+0xac>
 801a236:	233f      	movs	r3, #63	; 0x3f
 801a238:	e7d6      	b.n	801a1e8 <_malloc_r+0xac>
 801a23a:	237e      	movs	r3, #126	; 0x7e
 801a23c:	e7d4      	b.n	801a1e8 <_malloc_r+0xac>
 801a23e:	2900      	cmp	r1, #0
 801a240:	68f1      	ldr	r1, [r6, #12]
 801a242:	db04      	blt.n	801a24e <_malloc_r+0x112>
 801a244:	68b3      	ldr	r3, [r6, #8]
 801a246:	60d9      	str	r1, [r3, #12]
 801a248:	608b      	str	r3, [r1, #8]
 801a24a:	18b3      	adds	r3, r6, r2
 801a24c:	e7a4      	b.n	801a198 <_malloc_r+0x5c>
 801a24e:	460e      	mov	r6, r1
 801a250:	e7d0      	b.n	801a1f4 <_malloc_r+0xb8>
 801a252:	2f00      	cmp	r7, #0
 801a254:	616a      	str	r2, [r5, #20]
 801a256:	612a      	str	r2, [r5, #16]
 801a258:	db05      	blt.n	801a266 <_malloc_r+0x12a>
 801a25a:	4430      	add	r0, r6
 801a25c:	6843      	ldr	r3, [r0, #4]
 801a25e:	f043 0301 	orr.w	r3, r3, #1
 801a262:	6043      	str	r3, [r0, #4]
 801a264:	e79c      	b.n	801a1a0 <_malloc_r+0x64>
 801a266:	f5b0 7f00 	cmp.w	r0, #512	; 0x200
 801a26a:	d244      	bcs.n	801a2f6 <_malloc_r+0x1ba>
 801a26c:	2201      	movs	r2, #1
 801a26e:	08c0      	lsrs	r0, r0, #3
 801a270:	1087      	asrs	r7, r0, #2
 801a272:	fa02 f707 	lsl.w	r7, r2, r7
 801a276:	686a      	ldr	r2, [r5, #4]
 801a278:	3001      	adds	r0, #1
 801a27a:	433a      	orrs	r2, r7
 801a27c:	606a      	str	r2, [r5, #4]
 801a27e:	f855 7030 	ldr.w	r7, [r5, r0, lsl #3]
 801a282:	eb05 02c0 	add.w	r2, r5, r0, lsl #3
 801a286:	3a08      	subs	r2, #8
 801a288:	60f2      	str	r2, [r6, #12]
 801a28a:	60b7      	str	r7, [r6, #8]
 801a28c:	f845 6030 	str.w	r6, [r5, r0, lsl #3]
 801a290:	60fe      	str	r6, [r7, #12]
 801a292:	2001      	movs	r0, #1
 801a294:	109a      	asrs	r2, r3, #2
 801a296:	fa00 f202 	lsl.w	r2, r0, r2
 801a29a:	6868      	ldr	r0, [r5, #4]
 801a29c:	4282      	cmp	r2, r0
 801a29e:	f200 809f 	bhi.w	801a3e0 <_malloc_r+0x2a4>
 801a2a2:	4202      	tst	r2, r0
 801a2a4:	d106      	bne.n	801a2b4 <_malloc_r+0x178>
 801a2a6:	f023 0303 	bic.w	r3, r3, #3
 801a2aa:	0052      	lsls	r2, r2, #1
 801a2ac:	4202      	tst	r2, r0
 801a2ae:	f103 0304 	add.w	r3, r3, #4
 801a2b2:	d0fa      	beq.n	801a2aa <_malloc_r+0x16e>
 801a2b4:	eb05 0cc3 	add.w	ip, r5, r3, lsl #3
 801a2b8:	46e0      	mov	r8, ip
 801a2ba:	469e      	mov	lr, r3
 801a2bc:	f8d8 600c 	ldr.w	r6, [r8, #12]
 801a2c0:	4546      	cmp	r6, r8
 801a2c2:	d153      	bne.n	801a36c <_malloc_r+0x230>
 801a2c4:	f10e 0e01 	add.w	lr, lr, #1
 801a2c8:	f01e 0f03 	tst.w	lr, #3
 801a2cc:	f108 0808 	add.w	r8, r8, #8
 801a2d0:	d1f4      	bne.n	801a2bc <_malloc_r+0x180>
 801a2d2:	0798      	lsls	r0, r3, #30
 801a2d4:	d179      	bne.n	801a3ca <_malloc_r+0x28e>
 801a2d6:	686b      	ldr	r3, [r5, #4]
 801a2d8:	ea23 0302 	bic.w	r3, r3, r2
 801a2dc:	606b      	str	r3, [r5, #4]
 801a2de:	6868      	ldr	r0, [r5, #4]
 801a2e0:	0052      	lsls	r2, r2, #1
 801a2e2:	4282      	cmp	r2, r0
 801a2e4:	d87c      	bhi.n	801a3e0 <_malloc_r+0x2a4>
 801a2e6:	2a00      	cmp	r2, #0
 801a2e8:	d07a      	beq.n	801a3e0 <_malloc_r+0x2a4>
 801a2ea:	4673      	mov	r3, lr
 801a2ec:	4202      	tst	r2, r0
 801a2ee:	d1e1      	bne.n	801a2b4 <_malloc_r+0x178>
 801a2f0:	3304      	adds	r3, #4
 801a2f2:	0052      	lsls	r2, r2, #1
 801a2f4:	e7fa      	b.n	801a2ec <_malloc_r+0x1b0>
 801a2f6:	0a42      	lsrs	r2, r0, #9
 801a2f8:	2a04      	cmp	r2, #4
 801a2fa:	d815      	bhi.n	801a328 <_malloc_r+0x1ec>
 801a2fc:	0982      	lsrs	r2, r0, #6
 801a2fe:	3238      	adds	r2, #56	; 0x38
 801a300:	1c57      	adds	r7, r2, #1
 801a302:	f855 7037 	ldr.w	r7, [r5, r7, lsl #3]
 801a306:	eb05 0ec2 	add.w	lr, r5, r2, lsl #3
 801a30a:	45be      	cmp	lr, r7
 801a30c:	d126      	bne.n	801a35c <_malloc_r+0x220>
 801a30e:	2001      	movs	r0, #1
 801a310:	1092      	asrs	r2, r2, #2
 801a312:	fa00 f202 	lsl.w	r2, r0, r2
 801a316:	6868      	ldr	r0, [r5, #4]
 801a318:	4310      	orrs	r0, r2
 801a31a:	6068      	str	r0, [r5, #4]
 801a31c:	f8c6 e00c 	str.w	lr, [r6, #12]
 801a320:	60b7      	str	r7, [r6, #8]
 801a322:	f8ce 6008 	str.w	r6, [lr, #8]
 801a326:	e7b3      	b.n	801a290 <_malloc_r+0x154>
 801a328:	2a14      	cmp	r2, #20
 801a32a:	d801      	bhi.n	801a330 <_malloc_r+0x1f4>
 801a32c:	325b      	adds	r2, #91	; 0x5b
 801a32e:	e7e7      	b.n	801a300 <_malloc_r+0x1c4>
 801a330:	2a54      	cmp	r2, #84	; 0x54
 801a332:	d802      	bhi.n	801a33a <_malloc_r+0x1fe>
 801a334:	0b02      	lsrs	r2, r0, #12
 801a336:	326e      	adds	r2, #110	; 0x6e
 801a338:	e7e2      	b.n	801a300 <_malloc_r+0x1c4>
 801a33a:	f5b2 7faa 	cmp.w	r2, #340	; 0x154
 801a33e:	d802      	bhi.n	801a346 <_malloc_r+0x20a>
 801a340:	0bc2      	lsrs	r2, r0, #15
 801a342:	3277      	adds	r2, #119	; 0x77
 801a344:	e7dc      	b.n	801a300 <_malloc_r+0x1c4>
 801a346:	f240 5754 	movw	r7, #1364	; 0x554
 801a34a:	42ba      	cmp	r2, r7
 801a34c:	bf9a      	itte	ls
 801a34e:	0c82      	lsrls	r2, r0, #18
 801a350:	327c      	addls	r2, #124	; 0x7c
 801a352:	227e      	movhi	r2, #126	; 0x7e
 801a354:	e7d4      	b.n	801a300 <_malloc_r+0x1c4>
 801a356:	68bf      	ldr	r7, [r7, #8]
 801a358:	45be      	cmp	lr, r7
 801a35a:	d004      	beq.n	801a366 <_malloc_r+0x22a>
 801a35c:	687a      	ldr	r2, [r7, #4]
 801a35e:	f022 0203 	bic.w	r2, r2, #3
 801a362:	4290      	cmp	r0, r2
 801a364:	d3f7      	bcc.n	801a356 <_malloc_r+0x21a>
 801a366:	f8d7 e00c 	ldr.w	lr, [r7, #12]
 801a36a:	e7d7      	b.n	801a31c <_malloc_r+0x1e0>
 801a36c:	6870      	ldr	r0, [r6, #4]
 801a36e:	68f7      	ldr	r7, [r6, #12]
 801a370:	f020 0003 	bic.w	r0, r0, #3
 801a374:	eba0 0a04 	sub.w	sl, r0, r4
 801a378:	f1ba 0f0f 	cmp.w	sl, #15
 801a37c:	dd10      	ble.n	801a3a0 <_malloc_r+0x264>
 801a37e:	68b2      	ldr	r2, [r6, #8]
 801a380:	1933      	adds	r3, r6, r4
 801a382:	f044 0401 	orr.w	r4, r4, #1
 801a386:	6074      	str	r4, [r6, #4]
 801a388:	60d7      	str	r7, [r2, #12]
 801a38a:	60ba      	str	r2, [r7, #8]
 801a38c:	f04a 0201 	orr.w	r2, sl, #1
 801a390:	616b      	str	r3, [r5, #20]
 801a392:	612b      	str	r3, [r5, #16]
 801a394:	60d9      	str	r1, [r3, #12]
 801a396:	6099      	str	r1, [r3, #8]
 801a398:	605a      	str	r2, [r3, #4]
 801a39a:	f846 a000 	str.w	sl, [r6, r0]
 801a39e:	e6ff      	b.n	801a1a0 <_malloc_r+0x64>
 801a3a0:	f1ba 0f00 	cmp.w	sl, #0
 801a3a4:	db0f      	blt.n	801a3c6 <_malloc_r+0x28a>
 801a3a6:	4430      	add	r0, r6
 801a3a8:	6843      	ldr	r3, [r0, #4]
 801a3aa:	f043 0301 	orr.w	r3, r3, #1
 801a3ae:	6043      	str	r3, [r0, #4]
 801a3b0:	f856 3f08 	ldr.w	r3, [r6, #8]!
 801a3b4:	4648      	mov	r0, r9
 801a3b6:	60df      	str	r7, [r3, #12]
 801a3b8:	60bb      	str	r3, [r7, #8]
 801a3ba:	f000 f90b 	bl	801a5d4 <__malloc_unlock>
 801a3be:	4630      	mov	r0, r6
 801a3c0:	b003      	add	sp, #12
 801a3c2:	e8bd 8ff0 	ldmia.w	sp!, {r4, r5, r6, r7, r8, r9, sl, fp, pc}
 801a3c6:	463e      	mov	r6, r7
 801a3c8:	e77a      	b.n	801a2c0 <_malloc_r+0x184>
 801a3ca:	f85c 0908 	ldr.w	r0, [ip], #-8
 801a3ce:	3b01      	subs	r3, #1
 801a3d0:	4584      	cmp	ip, r0
 801a3d2:	f43f af7e 	beq.w	801a2d2 <_malloc_r+0x196>
 801a3d6:	e782      	b.n	801a2de <_malloc_r+0x1a2>
 801a3d8:	20000280 	.word	0x20000280
 801a3dc:	20000288 	.word	0x20000288
 801a3e0:	f8d5 b008 	ldr.w	fp, [r5, #8]
 801a3e4:	f8db 6004 	ldr.w	r6, [fp, #4]
 801a3e8:	f026 0603 	bic.w	r6, r6, #3
 801a3ec:	42b4      	cmp	r4, r6
 801a3ee:	d803      	bhi.n	801a3f8 <_malloc_r+0x2bc>
 801a3f0:	1b33      	subs	r3, r6, r4
 801a3f2:	2b0f      	cmp	r3, #15
 801a3f4:	f300 8095 	bgt.w	801a522 <_malloc_r+0x3e6>
 801a3f8:	4a4f      	ldr	r2, [pc, #316]	; (801a538 <_malloc_r+0x3fc>)
 801a3fa:	eb0b 0306 	add.w	r3, fp, r6
 801a3fe:	6817      	ldr	r7, [r2, #0]
 801a400:	4a4e      	ldr	r2, [pc, #312]	; (801a53c <_malloc_r+0x400>)
 801a402:	3710      	adds	r7, #16
 801a404:	6811      	ldr	r1, [r2, #0]
 801a406:	4427      	add	r7, r4
 801a408:	3101      	adds	r1, #1
 801a40a:	d005      	beq.n	801a418 <_malloc_r+0x2dc>
 801a40c:	494c      	ldr	r1, [pc, #304]	; (801a540 <_malloc_r+0x404>)
 801a40e:	3901      	subs	r1, #1
 801a410:	440f      	add	r7, r1
 801a412:	3101      	adds	r1, #1
 801a414:	4249      	negs	r1, r1
 801a416:	400f      	ands	r7, r1
 801a418:	4639      	mov	r1, r7
 801a41a:	4648      	mov	r0, r9
 801a41c:	9201      	str	r2, [sp, #4]
 801a41e:	9300      	str	r3, [sp, #0]
 801a420:	f000 fd32 	bl	801ae88 <_sbrk_r>
 801a424:	f1b0 3fff 	cmp.w	r0, #4294967295
 801a428:	4680      	mov	r8, r0
 801a42a:	d055      	beq.n	801a4d8 <_malloc_r+0x39c>
 801a42c:	9b00      	ldr	r3, [sp, #0]
 801a42e:	9a01      	ldr	r2, [sp, #4]
 801a430:	4283      	cmp	r3, r0
 801a432:	d901      	bls.n	801a438 <_malloc_r+0x2fc>
 801a434:	45ab      	cmp	fp, r5
 801a436:	d14f      	bne.n	801a4d8 <_malloc_r+0x39c>
 801a438:	4842      	ldr	r0, [pc, #264]	; (801a544 <_malloc_r+0x408>)
 801a43a:	4543      	cmp	r3, r8
 801a43c:	6801      	ldr	r1, [r0, #0]
 801a43e:	4682      	mov	sl, r0
 801a440:	eb07 0e01 	add.w	lr, r7, r1
 801a444:	f8c0 e000 	str.w	lr, [r0]
 801a448:	493f      	ldr	r1, [pc, #252]	; (801a548 <_malloc_r+0x40c>)
 801a44a:	d113      	bne.n	801a474 <_malloc_r+0x338>
 801a44c:	420b      	tst	r3, r1
 801a44e:	d111      	bne.n	801a474 <_malloc_r+0x338>
 801a450:	68ab      	ldr	r3, [r5, #8]
 801a452:	443e      	add	r6, r7
 801a454:	f046 0601 	orr.w	r6, r6, #1
 801a458:	605e      	str	r6, [r3, #4]
 801a45a:	4a3c      	ldr	r2, [pc, #240]	; (801a54c <_malloc_r+0x410>)
 801a45c:	f8da 3000 	ldr.w	r3, [sl]
 801a460:	6811      	ldr	r1, [r2, #0]
 801a462:	428b      	cmp	r3, r1
 801a464:	bf88      	it	hi
 801a466:	6013      	strhi	r3, [r2, #0]
 801a468:	4a39      	ldr	r2, [pc, #228]	; (801a550 <_malloc_r+0x414>)
 801a46a:	6811      	ldr	r1, [r2, #0]
 801a46c:	428b      	cmp	r3, r1
 801a46e:	bf88      	it	hi
 801a470:	6013      	strhi	r3, [r2, #0]
 801a472:	e031      	b.n	801a4d8 <_malloc_r+0x39c>
 801a474:	6810      	ldr	r0, [r2, #0]
 801a476:	3001      	adds	r0, #1
 801a478:	bf1b      	ittet	ne
 801a47a:	eba8 0303 	subne.w	r3, r8, r3
 801a47e:	4473      	addne	r3, lr
 801a480:	f8c2 8000 	streq.w	r8, [r2]
 801a484:	f8ca 3000 	strne.w	r3, [sl]
 801a488:	f018 0007 	ands.w	r0, r8, #7
 801a48c:	bf1c      	itt	ne
 801a48e:	f1c0 0008 	rsbne	r0, r0, #8
 801a492:	4480      	addne	r8, r0
 801a494:	4b2a      	ldr	r3, [pc, #168]	; (801a540 <_malloc_r+0x404>)
 801a496:	4447      	add	r7, r8
 801a498:	4418      	add	r0, r3
 801a49a:	400f      	ands	r7, r1
 801a49c:	1bc7      	subs	r7, r0, r7
 801a49e:	4639      	mov	r1, r7
 801a4a0:	4648      	mov	r0, r9
 801a4a2:	f000 fcf1 	bl	801ae88 <_sbrk_r>
 801a4a6:	1c43      	adds	r3, r0, #1
 801a4a8:	bf04      	itt	eq
 801a4aa:	4640      	moveq	r0, r8
 801a4ac:	2700      	moveq	r7, #0
 801a4ae:	f8da 3000 	ldr.w	r3, [sl]
 801a4b2:	eba0 0008 	sub.w	r0, r0, r8
 801a4b6:	443b      	add	r3, r7
 801a4b8:	4407      	add	r7, r0
 801a4ba:	f047 0701 	orr.w	r7, r7, #1
 801a4be:	45ab      	cmp	fp, r5
 801a4c0:	f8c5 8008 	str.w	r8, [r5, #8]
 801a4c4:	f8ca 3000 	str.w	r3, [sl]
 801a4c8:	f8c8 7004 	str.w	r7, [r8, #4]
 801a4cc:	d0c5      	beq.n	801a45a <_malloc_r+0x31e>
 801a4ce:	2e0f      	cmp	r6, #15
 801a4d0:	d810      	bhi.n	801a4f4 <_malloc_r+0x3b8>
 801a4d2:	2301      	movs	r3, #1
 801a4d4:	f8c8 3004 	str.w	r3, [r8, #4]
 801a4d8:	68ab      	ldr	r3, [r5, #8]
 801a4da:	685a      	ldr	r2, [r3, #4]
 801a4dc:	f022 0203 	bic.w	r2, r2, #3
 801a4e0:	4294      	cmp	r4, r2
 801a4e2:	eba2 0304 	sub.w	r3, r2, r4
 801a4e6:	d801      	bhi.n	801a4ec <_malloc_r+0x3b0>
 801a4e8:	2b0f      	cmp	r3, #15
 801a4ea:	dc1a      	bgt.n	801a522 <_malloc_r+0x3e6>
 801a4ec:	4648      	mov	r0, r9
 801a4ee:	f000 f871 	bl	801a5d4 <__malloc_unlock>
 801a4f2:	e630      	b.n	801a156 <_malloc_r+0x1a>
 801a4f4:	2205      	movs	r2, #5
 801a4f6:	f8db 3004 	ldr.w	r3, [fp, #4]
 801a4fa:	3e0c      	subs	r6, #12
 801a4fc:	f026 0607 	bic.w	r6, r6, #7
 801a500:	f003 0301 	and.w	r3, r3, #1
 801a504:	4333      	orrs	r3, r6
 801a506:	f8cb 3004 	str.w	r3, [fp, #4]
 801a50a:	2e0f      	cmp	r6, #15
 801a50c:	eb0b 0306 	add.w	r3, fp, r6
 801a510:	605a      	str	r2, [r3, #4]
 801a512:	609a      	str	r2, [r3, #8]
 801a514:	d9a1      	bls.n	801a45a <_malloc_r+0x31e>
 801a516:	f10b 0108 	add.w	r1, fp, #8
 801a51a:	4648      	mov	r0, r9
 801a51c:	f7ff fb4e 	bl	8019bbc <_free_r>
 801a520:	e79b      	b.n	801a45a <_malloc_r+0x31e>
 801a522:	68ae      	ldr	r6, [r5, #8]
 801a524:	f044 0201 	orr.w	r2, r4, #1
 801a528:	f043 0301 	orr.w	r3, r3, #1
 801a52c:	4434      	add	r4, r6
 801a52e:	6072      	str	r2, [r6, #4]
 801a530:	60ac      	str	r4, [r5, #8]
 801a532:	6063      	str	r3, [r4, #4]
 801a534:	e634      	b.n	801a1a0 <_malloc_r+0x64>
 801a536:	bf00      	nop
 801a538:	20001aa4 	.word	0x20001aa4
 801a53c:	20000688 	.word	0x20000688
 801a540:	00000080 	.word	0x00000080
 801a544:	20001a74 	.word	0x20001a74
 801a548:	0000007f 	.word	0x0000007f
 801a54c:	20001a9c 	.word	0x20001a9c
 801a550:	20001aa0 	.word	0x20001aa0

0801a554 <__ascii_mbtowc>:
 801a554:	b082      	sub	sp, #8
 801a556:	b901      	cbnz	r1, 801a55a <__ascii_mbtowc+0x6>
 801a558:	a901      	add	r1, sp, #4
 801a55a:	b142      	cbz	r2, 801a56e <__ascii_mbtowc+0x1a>
 801a55c:	b14b      	cbz	r3, 801a572 <__ascii_mbtowc+0x1e>
 801a55e:	7813      	ldrb	r3, [r2, #0]
 801a560:	600b      	str	r3, [r1, #0]
 801a562:	7812      	ldrb	r2, [r2, #0]
 801a564:	1c10      	adds	r0, r2, #0
 801a566:	bf18      	it	ne
 801a568:	2001      	movne	r0, #1
 801a56a:	b002      	add	sp, #8
 801a56c:	4770      	bx	lr
 801a56e:	4610      	mov	r0, r2
 801a570:	e7fb      	b.n	801a56a <__ascii_mbtowc+0x16>
 801a572:	f06f 0001 	mvn.w	r0, #1
 801a576:	e7f8      	b.n	801a56a <__ascii_mbtowc+0x16>

0801a578 <memchr>:
 801a578:	b510      	push	{r4, lr}
 801a57a:	b2c9      	uxtb	r1, r1
 801a57c:	4402      	add	r2, r0
 801a57e:	4290      	cmp	r0, r2
 801a580:	4603      	mov	r3, r0
 801a582:	d101      	bne.n	801a588 <memchr+0x10>
 801a584:	2000      	movs	r0, #0
 801a586:	bd10      	pop	{r4, pc}
 801a588:	781c      	ldrb	r4, [r3, #0]
 801a58a:	3001      	adds	r0, #1
 801a58c:	428c      	cmp	r4, r1
 801a58e:	d1f6      	bne.n	801a57e <memchr+0x6>
 801a590:	4618      	mov	r0, r3
 801a592:	bd10      	pop	{r4, pc}

0801a594 <memmove>:
 801a594:	4288      	cmp	r0, r1
 801a596:	b510      	push	{r4, lr}
 801a598:	eb01 0302 	add.w	r3, r1, r2
 801a59c:	d803      	bhi.n	801a5a6 <memmove+0x12>
 801a59e:	1e42      	subs	r2, r0, #1
 801a5a0:	4299      	cmp	r1, r3
 801a5a2:	d10c      	bne.n	801a5be <memmove+0x2a>
 801a5a4:	bd10      	pop	{r4, pc}
 801a5a6:	4298      	cmp	r0, r3
 801a5a8:	d2f9      	bcs.n	801a59e <memmove+0xa>
 801a5aa:	1881      	adds	r1, r0, r2
 801a5ac:	1ad2      	subs	r2, r2, r3
 801a5ae:	42d3      	cmn	r3, r2
 801a5b0:	d100      	bne.n	801a5b4 <memmove+0x20>
 801a5b2:	bd10      	pop	{r4, pc}
 801a5b4:	f813 4d01 	ldrb.w	r4, [r3, #-1]!
 801a5b8:	f801 4d01 	strb.w	r4, [r1, #-1]!
 801a5bc:	e7f7      	b.n	801a5ae <memmove+0x1a>
 801a5be:	f811 4b01 	ldrb.w	r4, [r1], #1
 801a5c2:	f802 4f01 	strb.w	r4, [r2, #1]!
 801a5c6:	e7eb      	b.n	801a5a0 <memmove+0xc>

0801a5c8 <__malloc_lock>:
 801a5c8:	4801      	ldr	r0, [pc, #4]	; (801a5d0 <__malloc_lock+0x8>)
 801a5ca:	f7ff bd41 	b.w	801a050 <__retarget_lock_acquire_recursive>
 801a5ce:	bf00      	nop
 801a5d0:	2000233c 	.word	0x2000233c

0801a5d4 <__malloc_unlock>:
 801a5d4:	4801      	ldr	r0, [pc, #4]	; (801a5dc <__malloc_unlock+0x8>)
 801a5d6:	f7ff bd3c 	b.w	801a052 <__retarget_lock_release_recursive>
 801a5da:	bf00      	nop
 801a5dc:	2000233c 	.word	0x2000233c

0801a5e0 <_Balloc>:
 801a5e0:	b570      	push	{r4, r5, r6, lr}
 801a5e2:	6a45      	ldr	r5, [r0, #36]	; 0x24
 801a5e4:	4604      	mov	r4, r0
 801a5e6:	460e      	mov	r6, r1
 801a5e8:	b93d      	cbnz	r5, 801a5fa <_Balloc+0x1a>
 801a5ea:	2010      	movs	r0, #16
 801a5ec:	f7ff fd9e 	bl	801a12c <malloc>
 801a5f0:	6260      	str	r0, [r4, #36]	; 0x24
 801a5f2:	6045      	str	r5, [r0, #4]
 801a5f4:	6085      	str	r5, [r0, #8]
 801a5f6:	6005      	str	r5, [r0, #0]
 801a5f8:	60c5      	str	r5, [r0, #12]
 801a5fa:	6a65      	ldr	r5, [r4, #36]	; 0x24
 801a5fc:	68eb      	ldr	r3, [r5, #12]
 801a5fe:	b183      	cbz	r3, 801a622 <_Balloc+0x42>
 801a600:	6a63      	ldr	r3, [r4, #36]	; 0x24
 801a602:	68db      	ldr	r3, [r3, #12]
 801a604:	f853 0026 	ldr.w	r0, [r3, r6, lsl #2]
 801a608:	b9b8      	cbnz	r0, 801a63a <_Balloc+0x5a>
 801a60a:	2101      	movs	r1, #1
 801a60c:	fa01 f506 	lsl.w	r5, r1, r6
 801a610:	1d6a      	adds	r2, r5, #5
 801a612:	0092      	lsls	r2, r2, #2
 801a614:	4620      	mov	r0, r4
 801a616:	f000 fd59 	bl	801b0cc <_calloc_r>
 801a61a:	b160      	cbz	r0, 801a636 <_Balloc+0x56>
 801a61c:	6046      	str	r6, [r0, #4]
 801a61e:	6085      	str	r5, [r0, #8]
 801a620:	e00e      	b.n	801a640 <_Balloc+0x60>
 801a622:	2221      	movs	r2, #33	; 0x21
 801a624:	2104      	movs	r1, #4
 801a626:	4620      	mov	r0, r4
 801a628:	f000 fd50 	bl	801b0cc <_calloc_r>
 801a62c:	6a63      	ldr	r3, [r4, #36]	; 0x24
 801a62e:	60e8      	str	r0, [r5, #12]
 801a630:	68db      	ldr	r3, [r3, #12]
 801a632:	2b00      	cmp	r3, #0
 801a634:	d1e4      	bne.n	801a600 <_Balloc+0x20>
 801a636:	2000      	movs	r0, #0
 801a638:	bd70      	pop	{r4, r5, r6, pc}
 801a63a:	6802      	ldr	r2, [r0, #0]
 801a63c:	f843 2026 	str.w	r2, [r3, r6, lsl #2]
 801a640:	2300      	movs	r3, #0
 801a642:	6103      	str	r3, [r0, #16]
 801a644:	60c3      	str	r3, [r0, #12]
 801a646:	bd70      	pop	{r4, r5, r6, pc}

0801a648 <_Bfree>:
 801a648:	b570      	push	{r4, r5, r6, lr}
 801a64a:	6a44      	ldr	r4, [r0, #36]	; 0x24
 801a64c:	4606      	mov	r6, r0
 801a64e:	460d      	mov	r5, r1
 801a650:	b93c      	cbnz	r4, 801a662 <_Bfree+0x1a>
 801a652:	2010      	movs	r0, #16
 801a654:	f7ff fd6a 	bl	801a12c <malloc>
 801a658:	6270      	str	r0, [r6, #36]	; 0x24
 801a65a:	6044      	str	r4, [r0, #4]
 801a65c:	6084      	str	r4, [r0, #8]
 801a65e:	6004      	str	r4, [r0, #0]
 801a660:	60c4      	str	r4, [r0, #12]
 801a662:	b13d      	cbz	r5, 801a674 <_Bfree+0x2c>
 801a664:	6a73      	ldr	r3, [r6, #36]	; 0x24
 801a666:	686a      	ldr	r2, [r5, #4]
 801a668:	68db      	ldr	r3, [r3, #12]
 801a66a:	f853 1022 	ldr.w	r1, [r3, r2, lsl #2]
 801a66e:	6029      	str	r1, [r5, #0]
 801a670:	f843 5022 	str.w	r5, [r3, r2, lsl #2]
 801a674:	bd70      	pop	{r4, r5, r6, pc}

0801a676 <__multadd>:
 801a676:	e92d 41f0 	stmdb	sp!, {r4, r5, r6, r7, r8, lr}
 801a67a:	461f      	mov	r7, r3
 801a67c:	4606      	mov	r6, r0
 801a67e:	460c      	mov	r4, r1
 801a680:	2300      	movs	r3, #0
 801a682:	690d      	ldr	r5, [r1, #16]
 801a684:	f101 0e14 	add.w	lr, r1, #20
 801a688:	f8de 0000 	ldr.w	r0, [lr]
 801a68c:	3301      	adds	r3, #1
 801a68e:	b281      	uxth	r1, r0
 801a690:	fb02 7101 	mla	r1, r2, r1, r7
 801a694:	0c00      	lsrs	r0, r0, #16
 801a696:	0c0f      	lsrs	r7, r1, #16
 801a698:	fb02 7000 	mla	r0, r2, r0, r7
 801a69c:	b289      	uxth	r1, r1
 801a69e:	eb01 4100 	add.w	r1, r1, r0, lsl #16
 801a6a2:	429d      	cmp	r5, r3
 801a6a4:	ea4f 4710 	mov.w	r7, r0, lsr #16
 801a6a8:	f84e 1b04 	str.w	r1, [lr], #4
 801a6ac:	dcec      	bgt.n	801a688 <__multadd+0x12>
 801a6ae:	b1d7      	cbz	r7, 801a6e6 <__multadd+0x70>
 801a6b0:	68a3      	ldr	r3, [r4, #8]
 801a6b2:	429d      	cmp	r5, r3
 801a6b4:	db12      	blt.n	801a6dc <__multadd+0x66>
 801a6b6:	6861      	ldr	r1, [r4, #4]
 801a6b8:	4630      	mov	r0, r6
 801a6ba:	3101      	adds	r1, #1
 801a6bc:	f7ff ff90 	bl	801a5e0 <_Balloc>
 801a6c0:	4680      	mov	r8, r0
 801a6c2:	6922      	ldr	r2, [r4, #16]
 801a6c4:	f104 010c 	add.w	r1, r4, #12
 801a6c8:	3202      	adds	r2, #2
 801a6ca:	0092      	lsls	r2, r2, #2
 801a6cc:	300c      	adds	r0, #12
 801a6ce:	f7fb fece 	bl	801646e <memcpy>
 801a6d2:	4621      	mov	r1, r4
 801a6d4:	4630      	mov	r0, r6
 801a6d6:	f7ff ffb7 	bl	801a648 <_Bfree>
 801a6da:	4644      	mov	r4, r8
 801a6dc:	eb04 0385 	add.w	r3, r4, r5, lsl #2
 801a6e0:	3501      	adds	r5, #1
 801a6e2:	615f      	str	r7, [r3, #20]
 801a6e4:	6125      	str	r5, [r4, #16]
 801a6e6:	4620      	mov	r0, r4
 801a6e8:	e8bd 81f0 	ldmia.w	sp!, {r4, r5, r6, r7, r8, pc}

0801a6ec <__hi0bits>:
 801a6ec:	0c02      	lsrs	r2, r0, #16
 801a6ee:	0412      	lsls	r2, r2, #16
 801a6f0:	4603      	mov	r3, r0
 801a6f2:	b9b2      	cbnz	r2, 801a722 <__hi0bits+0x36>
 801a6f4:	0403      	lsls	r3, r0, #16
 801a6f6:	2010      	movs	r0, #16
 801a6f8:	f013 4f7f 	tst.w	r3, #4278190080	; 0xff000000
 801a6fc:	bf04      	itt	eq
 801a6fe:	021b      	lsleq	r3, r3, #8
 801a700:	3008      	addeq	r0, #8
 801a702:	f013 4f70 	tst.w	r3, #4026531840	; 0xf0000000
 801a706:	bf04      	itt	eq
 801a708:	011b      	lsleq	r3, r3, #4
 801a70a:	3004      	addeq	r0, #4
 801a70c:	f013 4f40 	tst.w	r3, #3221225472	; 0xc0000000
 801a710:	bf04      	itt	eq
 801a712:	009b      	lsleq	r3, r3, #2
 801a714:	3002      	addeq	r0, #2
 801a716:	2b00      	cmp	r3, #0
 801a718:	db06      	blt.n	801a728 <__hi0bits+0x3c>
 801a71a:	005b      	lsls	r3, r3, #1
 801a71c:	d503      	bpl.n	801a726 <__hi0bits+0x3a>
 801a71e:	3001      	adds	r0, #1
 801a720:	4770      	bx	lr
 801a722:	2000      	movs	r0, #0
 801a724:	e7e8      	b.n	801a6f8 <__hi0bits+0xc>
 801a726:	2020      	movs	r0, #32
 801a728:	4770      	bx	lr

0801a72a <__lo0bits>:
 801a72a:	6803      	ldr	r3, [r0, #0]
 801a72c:	4601      	mov	r1, r0
 801a72e:	f013 0207 	ands.w	r2, r3, #7
 801a732:	d00b      	beq.n	801a74c <__lo0bits+0x22>
 801a734:	07da      	lsls	r2, r3, #31
 801a736:	d423      	bmi.n	801a780 <__lo0bits+0x56>
 801a738:	0798      	lsls	r0, r3, #30
 801a73a:	bf49      	itett	mi
 801a73c:	085b      	lsrmi	r3, r3, #1
 801a73e:	089b      	lsrpl	r3, r3, #2
 801a740:	2001      	movmi	r0, #1
 801a742:	600b      	strmi	r3, [r1, #0]
 801a744:	bf5c      	itt	pl
 801a746:	600b      	strpl	r3, [r1, #0]
 801a748:	2002      	movpl	r0, #2
 801a74a:	4770      	bx	lr
 801a74c:	b298      	uxth	r0, r3
 801a74e:	b9a8      	cbnz	r0, 801a77c <__lo0bits+0x52>
 801a750:	2010      	movs	r0, #16
 801a752:	0c1b      	lsrs	r3, r3, #16
 801a754:	f013 0fff 	tst.w	r3, #255	; 0xff
 801a758:	bf04      	itt	eq
 801a75a:	0a1b      	lsreq	r3, r3, #8
 801a75c:	3008      	addeq	r0, #8
 801a75e:	071a      	lsls	r2, r3, #28
 801a760:	bf04      	itt	eq
 801a762:	091b      	lsreq	r3, r3, #4
 801a764:	3004      	addeq	r0, #4
 801a766:	079a      	lsls	r2, r3, #30
 801a768:	bf04      	itt	eq
 801a76a:	089b      	lsreq	r3, r3, #2
 801a76c:	3002      	addeq	r0, #2
 801a76e:	07da      	lsls	r2, r3, #31
 801a770:	d402      	bmi.n	801a778 <__lo0bits+0x4e>
 801a772:	085b      	lsrs	r3, r3, #1
 801a774:	d006      	beq.n	801a784 <__lo0bits+0x5a>
 801a776:	3001      	adds	r0, #1
 801a778:	600b      	str	r3, [r1, #0]
 801a77a:	4770      	bx	lr
 801a77c:	4610      	mov	r0, r2
 801a77e:	e7e9      	b.n	801a754 <__lo0bits+0x2a>
 801a780:	2000      	movs	r0, #0
 801a782:	4770      	bx	lr
 801a784:	2020      	movs	r0, #32
 801a786:	4770      	bx	lr

0801a788 <__i2b>:
 801a788:	b510      	push	{r4, lr}
 801a78a:	460c      	mov	r4, r1
 801a78c:	2101      	movs	r1, #1
 801a78e:	f7ff ff27 	bl	801a5e0 <_Balloc>
 801a792:	2201      	movs	r2, #1
 801a794:	6144      	str	r4, [r0, #20]
 801a796:	6102      	str	r2, [r0, #16]
 801a798:	bd10      	pop	{r4, pc}

0801a79a <__multiply>:
 801a79a:	e92d 4ff7 	stmdb	sp!, {r0, r1, r2, r4, r5, r6, r7, r8, r9, sl, fp, lr}
 801a79e:	4614      	mov	r4, r2
 801a7a0:	690a      	ldr	r2, [r1, #16]
 801a7a2:	6923      	ldr	r3, [r4, #16]
 801a7a4:	4689      	mov	r9, r1
 801a7a6:	429a      	cmp	r2, r3
 801a7a8:	bfbe      	ittt	lt
 801a7aa:	460b      	movlt	r3, r1
 801a7ac:	46a1      	movlt	r9, r4
 801a7ae:	461c      	movlt	r4, r3
 801a7b0:	f8d9 7010 	ldr.w	r7, [r9, #16]
 801a7b4:	f8d4 a010 	ldr.w	sl, [r4, #16]
 801a7b8:	f8d9 3008 	ldr.w	r3, [r9, #8]
 801a7bc:	f8d9 1004 	ldr.w	r1, [r9, #4]
 801a7c0:	eb07 060a 	add.w	r6, r7, sl
 801a7c4:	429e      	cmp	r6, r3
 801a7c6:	bfc8      	it	gt
 801a7c8:	3101      	addgt	r1, #1
 801a7ca:	f7ff ff09 	bl	801a5e0 <_Balloc>
 801a7ce:	f100 0514 	add.w	r5, r0, #20
 801a7d2:	462b      	mov	r3, r5
 801a7d4:	2200      	movs	r2, #0
 801a7d6:	eb05 0886 	add.w	r8, r5, r6, lsl #2
 801a7da:	4543      	cmp	r3, r8
 801a7dc:	d316      	bcc.n	801a80c <__multiply+0x72>
 801a7de:	f104 0214 	add.w	r2, r4, #20
 801a7e2:	f109 0114 	add.w	r1, r9, #20
 801a7e6:	eb02 038a 	add.w	r3, r2, sl, lsl #2
 801a7ea:	eb01 0787 	add.w	r7, r1, r7, lsl #2
 801a7ee:	9301      	str	r3, [sp, #4]
 801a7f0:	9c01      	ldr	r4, [sp, #4]
 801a7f2:	4613      	mov	r3, r2
 801a7f4:	4294      	cmp	r4, r2
 801a7f6:	d80c      	bhi.n	801a812 <__multiply+0x78>
 801a7f8:	2e00      	cmp	r6, #0
 801a7fa:	dd03      	ble.n	801a804 <__multiply+0x6a>
 801a7fc:	f858 3d04 	ldr.w	r3, [r8, #-4]!
 801a800:	2b00      	cmp	r3, #0
 801a802:	d054      	beq.n	801a8ae <__multiply+0x114>
 801a804:	6106      	str	r6, [r0, #16]
 801a806:	b003      	add	sp, #12
 801a808:	e8bd 8ff0 	ldmia.w	sp!, {r4, r5, r6, r7, r8, r9, sl, fp, pc}
 801a80c:	f843 2b04 	str.w	r2, [r3], #4
 801a810:	e7e3      	b.n	801a7da <__multiply+0x40>
 801a812:	f8b3 a000 	ldrh.w	sl, [r3]
 801a816:	3204      	adds	r2, #4
 801a818:	f1ba 0f00 	cmp.w	sl, #0
 801a81c:	d020      	beq.n	801a860 <__multiply+0xc6>
 801a81e:	46ae      	mov	lr, r5
 801a820:	4689      	mov	r9, r1
 801a822:	f04f 0c00 	mov.w	ip, #0
 801a826:	f859 4b04 	ldr.w	r4, [r9], #4
 801a82a:	f8be b000 	ldrh.w	fp, [lr]
 801a82e:	b2a3      	uxth	r3, r4
 801a830:	fb0a b303 	mla	r3, sl, r3, fp
 801a834:	ea4f 4b14 	mov.w	fp, r4, lsr #16
 801a838:	f8de 4000 	ldr.w	r4, [lr]
 801a83c:	4463      	add	r3, ip
 801a83e:	ea4f 4c14 	mov.w	ip, r4, lsr #16
 801a842:	fb0a c40b 	mla	r4, sl, fp, ip
 801a846:	eb04 4413 	add.w	r4, r4, r3, lsr #16
 801a84a:	b29b      	uxth	r3, r3
 801a84c:	ea43 4304 	orr.w	r3, r3, r4, lsl #16
 801a850:	454f      	cmp	r7, r9
 801a852:	ea4f 4c14 	mov.w	ip, r4, lsr #16
 801a856:	f84e 3b04 	str.w	r3, [lr], #4
 801a85a:	d8e4      	bhi.n	801a826 <__multiply+0x8c>
 801a85c:	f8ce c000 	str.w	ip, [lr]
 801a860:	f832 9c02 	ldrh.w	r9, [r2, #-2]
 801a864:	f1b9 0f00 	cmp.w	r9, #0
 801a868:	d01f      	beq.n	801a8aa <__multiply+0x110>
 801a86a:	46ae      	mov	lr, r5
 801a86c:	468c      	mov	ip, r1
 801a86e:	f04f 0a00 	mov.w	sl, #0
 801a872:	682b      	ldr	r3, [r5, #0]
 801a874:	f8bc 4000 	ldrh.w	r4, [ip]
 801a878:	f8be b002 	ldrh.w	fp, [lr, #2]
 801a87c:	b29b      	uxth	r3, r3
 801a87e:	fb09 b404 	mla	r4, r9, r4, fp
 801a882:	44a2      	add	sl, r4
 801a884:	ea43 430a 	orr.w	r3, r3, sl, lsl #16
 801a888:	f84e 3b04 	str.w	r3, [lr], #4
 801a88c:	f85c 3b04 	ldr.w	r3, [ip], #4
 801a890:	f8be 4000 	ldrh.w	r4, [lr]
 801a894:	0c1b      	lsrs	r3, r3, #16
 801a896:	fb09 4303 	mla	r3, r9, r3, r4
 801a89a:	4567      	cmp	r7, ip
 801a89c:	eb03 431a 	add.w	r3, r3, sl, lsr #16
 801a8a0:	ea4f 4a13 	mov.w	sl, r3, lsr #16
 801a8a4:	d8e6      	bhi.n	801a874 <__multiply+0xda>
 801a8a6:	f8ce 3000 	str.w	r3, [lr]
 801a8aa:	3504      	adds	r5, #4
 801a8ac:	e7a0      	b.n	801a7f0 <__multiply+0x56>
 801a8ae:	3e01      	subs	r6, #1
 801a8b0:	e7a2      	b.n	801a7f8 <__multiply+0x5e>
	...

0801a8b4 <__pow5mult>:
 801a8b4:	e92d 43f8 	stmdb	sp!, {r3, r4, r5, r6, r7, r8, r9, lr}
 801a8b8:	4615      	mov	r5, r2
 801a8ba:	f012 0203 	ands.w	r2, r2, #3
 801a8be:	4606      	mov	r6, r0
 801a8c0:	460f      	mov	r7, r1
 801a8c2:	d007      	beq.n	801a8d4 <__pow5mult+0x20>
 801a8c4:	4c21      	ldr	r4, [pc, #132]	; (801a94c <__pow5mult+0x98>)
 801a8c6:	3a01      	subs	r2, #1
 801a8c8:	2300      	movs	r3, #0
 801a8ca:	f854 2022 	ldr.w	r2, [r4, r2, lsl #2]
 801a8ce:	f7ff fed2 	bl	801a676 <__multadd>
 801a8d2:	4607      	mov	r7, r0
 801a8d4:	10ad      	asrs	r5, r5, #2
 801a8d6:	d035      	beq.n	801a944 <__pow5mult+0x90>
 801a8d8:	6a74      	ldr	r4, [r6, #36]	; 0x24
 801a8da:	b93c      	cbnz	r4, 801a8ec <__pow5mult+0x38>
 801a8dc:	2010      	movs	r0, #16
 801a8de:	f7ff fc25 	bl	801a12c <malloc>
 801a8e2:	6270      	str	r0, [r6, #36]	; 0x24
 801a8e4:	6044      	str	r4, [r0, #4]
 801a8e6:	6084      	str	r4, [r0, #8]
 801a8e8:	6004      	str	r4, [r0, #0]
 801a8ea:	60c4      	str	r4, [r0, #12]
 801a8ec:	f8d6 8024 	ldr.w	r8, [r6, #36]	; 0x24
 801a8f0:	f8d8 4008 	ldr.w	r4, [r8, #8]
 801a8f4:	b94c      	cbnz	r4, 801a90a <__pow5mult+0x56>
 801a8f6:	f240 2171 	movw	r1, #625	; 0x271
 801a8fa:	4630      	mov	r0, r6
 801a8fc:	f7ff ff44 	bl	801a788 <__i2b>
 801a900:	2300      	movs	r3, #0
 801a902:	4604      	mov	r4, r0
 801a904:	f8c8 0008 	str.w	r0, [r8, #8]
 801a908:	6003      	str	r3, [r0, #0]
 801a90a:	f04f 0800 	mov.w	r8, #0
 801a90e:	07eb      	lsls	r3, r5, #31
 801a910:	d50a      	bpl.n	801a928 <__pow5mult+0x74>
 801a912:	4639      	mov	r1, r7
 801a914:	4622      	mov	r2, r4
 801a916:	4630      	mov	r0, r6
 801a918:	f7ff ff3f 	bl	801a79a <__multiply>
 801a91c:	4681      	mov	r9, r0
 801a91e:	4639      	mov	r1, r7
 801a920:	4630      	mov	r0, r6
 801a922:	f7ff fe91 	bl	801a648 <_Bfree>
 801a926:	464f      	mov	r7, r9
 801a928:	106d      	asrs	r5, r5, #1
 801a92a:	d00b      	beq.n	801a944 <__pow5mult+0x90>
 801a92c:	6820      	ldr	r0, [r4, #0]
 801a92e:	b938      	cbnz	r0, 801a940 <__pow5mult+0x8c>
 801a930:	4622      	mov	r2, r4
 801a932:	4621      	mov	r1, r4
 801a934:	4630      	mov	r0, r6
 801a936:	f7ff ff30 	bl	801a79a <__multiply>
 801a93a:	6020      	str	r0, [r4, #0]
 801a93c:	f8c0 8000 	str.w	r8, [r0]
 801a940:	4604      	mov	r4, r0
 801a942:	e7e4      	b.n	801a90e <__pow5mult+0x5a>
 801a944:	4638      	mov	r0, r7
 801a946:	e8bd 83f8 	ldmia.w	sp!, {r3, r4, r5, r6, r7, r8, r9, pc}
 801a94a:	bf00      	nop
 801a94c:	0801bd10 	.word	0x0801bd10

0801a950 <__lshift>:
 801a950:	e92d 47f0 	stmdb	sp!, {r4, r5, r6, r7, r8, r9, sl, lr}
 801a954:	460c      	mov	r4, r1
 801a956:	4607      	mov	r7, r0
 801a958:	4616      	mov	r6, r2
 801a95a:	6923      	ldr	r3, [r4, #16]
 801a95c:	ea4f 1a62 	mov.w	sl, r2, asr #5
 801a960:	eb0a 0903 	add.w	r9, sl, r3
 801a964:	6849      	ldr	r1, [r1, #4]
 801a966:	68a3      	ldr	r3, [r4, #8]
 801a968:	f109 0501 	add.w	r5, r9, #1
 801a96c:	42ab      	cmp	r3, r5
 801a96e:	db31      	blt.n	801a9d4 <__lshift+0x84>
 801a970:	4638      	mov	r0, r7
 801a972:	f7ff fe35 	bl	801a5e0 <_Balloc>
 801a976:	2200      	movs	r2, #0
 801a978:	4680      	mov	r8, r0
 801a97a:	4611      	mov	r1, r2
 801a97c:	f100 0314 	add.w	r3, r0, #20
 801a980:	4552      	cmp	r2, sl
 801a982:	db2a      	blt.n	801a9da <__lshift+0x8a>
 801a984:	6920      	ldr	r0, [r4, #16]
 801a986:	ea2a 7aea 	bic.w	sl, sl, sl, asr #31
 801a98a:	f104 0114 	add.w	r1, r4, #20
 801a98e:	f016 021f 	ands.w	r2, r6, #31
 801a992:	eb03 038a 	add.w	r3, r3, sl, lsl #2
 801a996:	eb01 0e80 	add.w	lr, r1, r0, lsl #2
 801a99a:	d022      	beq.n	801a9e2 <__lshift+0x92>
 801a99c:	2000      	movs	r0, #0
 801a99e:	f1c2 0c20 	rsb	ip, r2, #32
 801a9a2:	680e      	ldr	r6, [r1, #0]
 801a9a4:	4096      	lsls	r6, r2
 801a9a6:	4330      	orrs	r0, r6
 801a9a8:	f843 0b04 	str.w	r0, [r3], #4
 801a9ac:	f851 0b04 	ldr.w	r0, [r1], #4
 801a9b0:	458e      	cmp	lr, r1
 801a9b2:	fa20 f00c 	lsr.w	r0, r0, ip
 801a9b6:	d8f4      	bhi.n	801a9a2 <__lshift+0x52>
 801a9b8:	6018      	str	r0, [r3, #0]
 801a9ba:	b108      	cbz	r0, 801a9c0 <__lshift+0x70>
 801a9bc:	f109 0502 	add.w	r5, r9, #2
 801a9c0:	3d01      	subs	r5, #1
 801a9c2:	4638      	mov	r0, r7
 801a9c4:	f8c8 5010 	str.w	r5, [r8, #16]
 801a9c8:	4621      	mov	r1, r4
 801a9ca:	f7ff fe3d 	bl	801a648 <_Bfree>
 801a9ce:	4640      	mov	r0, r8
 801a9d0:	e8bd 87f0 	ldmia.w	sp!, {r4, r5, r6, r7, r8, r9, sl, pc}
 801a9d4:	3101      	adds	r1, #1
 801a9d6:	005b      	lsls	r3, r3, #1
 801a9d8:	e7c8      	b.n	801a96c <__lshift+0x1c>
 801a9da:	f843 1022 	str.w	r1, [r3, r2, lsl #2]
 801a9de:	3201      	adds	r2, #1
 801a9e0:	e7ce      	b.n	801a980 <__lshift+0x30>
 801a9e2:	3b04      	subs	r3, #4
 801a9e4:	f851 2b04 	ldr.w	r2, [r1], #4
 801a9e8:	458e      	cmp	lr, r1
 801a9ea:	f843 2f04 	str.w	r2, [r3, #4]!
 801a9ee:	d8f9      	bhi.n	801a9e4 <__lshift+0x94>
 801a9f0:	e7e6      	b.n	801a9c0 <__lshift+0x70>

0801a9f2 <__mcmp>:
 801a9f2:	6903      	ldr	r3, [r0, #16]
 801a9f4:	690a      	ldr	r2, [r1, #16]
 801a9f6:	b530      	push	{r4, r5, lr}
 801a9f8:	1a9b      	subs	r3, r3, r2
 801a9fa:	d10c      	bne.n	801aa16 <__mcmp+0x24>
 801a9fc:	0092      	lsls	r2, r2, #2
 801a9fe:	3014      	adds	r0, #20
 801aa00:	3114      	adds	r1, #20
 801aa02:	1884      	adds	r4, r0, r2
 801aa04:	4411      	add	r1, r2
 801aa06:	f854 5d04 	ldr.w	r5, [r4, #-4]!
 801aa0a:	f851 2d04 	ldr.w	r2, [r1, #-4]!
 801aa0e:	4295      	cmp	r5, r2
 801aa10:	d003      	beq.n	801aa1a <__mcmp+0x28>
 801aa12:	d305      	bcc.n	801aa20 <__mcmp+0x2e>
 801aa14:	2301      	movs	r3, #1
 801aa16:	4618      	mov	r0, r3
 801aa18:	bd30      	pop	{r4, r5, pc}
 801aa1a:	42a0      	cmp	r0, r4
 801aa1c:	d3f3      	bcc.n	801aa06 <__mcmp+0x14>
 801aa1e:	e7fa      	b.n	801aa16 <__mcmp+0x24>
 801aa20:	f04f 33ff 	mov.w	r3, #4294967295
 801aa24:	e7f7      	b.n	801aa16 <__mcmp+0x24>

0801aa26 <__mdiff>:
 801aa26:	e92d 47f0 	stmdb	sp!, {r4, r5, r6, r7, r8, r9, sl, lr}
 801aa2a:	460d      	mov	r5, r1
 801aa2c:	4607      	mov	r7, r0
 801aa2e:	4611      	mov	r1, r2
 801aa30:	4628      	mov	r0, r5
 801aa32:	4614      	mov	r4, r2
 801aa34:	f7ff ffdd 	bl	801a9f2 <__mcmp>
 801aa38:	1e06      	subs	r6, r0, #0
 801aa3a:	d108      	bne.n	801aa4e <__mdiff+0x28>
 801aa3c:	4631      	mov	r1, r6
 801aa3e:	4638      	mov	r0, r7
 801aa40:	f7ff fdce 	bl	801a5e0 <_Balloc>
 801aa44:	2301      	movs	r3, #1
 801aa46:	6146      	str	r6, [r0, #20]
 801aa48:	6103      	str	r3, [r0, #16]
 801aa4a:	e8bd 87f0 	ldmia.w	sp!, {r4, r5, r6, r7, r8, r9, sl, pc}
 801aa4e:	bfa4      	itt	ge
 801aa50:	4623      	movge	r3, r4
 801aa52:	462c      	movge	r4, r5
 801aa54:	4638      	mov	r0, r7
 801aa56:	6861      	ldr	r1, [r4, #4]
 801aa58:	bfa6      	itte	ge
 801aa5a:	461d      	movge	r5, r3
 801aa5c:	2600      	movge	r6, #0
 801aa5e:	2601      	movlt	r6, #1
 801aa60:	f7ff fdbe 	bl	801a5e0 <_Balloc>
 801aa64:	f04f 0c00 	mov.w	ip, #0
 801aa68:	60c6      	str	r6, [r0, #12]
 801aa6a:	692b      	ldr	r3, [r5, #16]
 801aa6c:	6926      	ldr	r6, [r4, #16]
 801aa6e:	f104 0214 	add.w	r2, r4, #20
 801aa72:	f105 0914 	add.w	r9, r5, #20
 801aa76:	eb02 0786 	add.w	r7, r2, r6, lsl #2
 801aa7a:	eb09 0883 	add.w	r8, r9, r3, lsl #2
 801aa7e:	f100 0114 	add.w	r1, r0, #20
 801aa82:	f852 ab04 	ldr.w	sl, [r2], #4
 801aa86:	f859 5b04 	ldr.w	r5, [r9], #4
 801aa8a:	fa1f f38a 	uxth.w	r3, sl
 801aa8e:	4463      	add	r3, ip
 801aa90:	b2ac      	uxth	r4, r5
 801aa92:	1b1b      	subs	r3, r3, r4
 801aa94:	0c2c      	lsrs	r4, r5, #16
 801aa96:	ebc4 441a 	rsb	r4, r4, sl, lsr #16
 801aa9a:	eb04 4423 	add.w	r4, r4, r3, asr #16
 801aa9e:	b29b      	uxth	r3, r3
 801aaa0:	ea4f 4c24 	mov.w	ip, r4, asr #16
 801aaa4:	45c8      	cmp	r8, r9
 801aaa6:	ea43 4404 	orr.w	r4, r3, r4, lsl #16
 801aaaa:	4696      	mov	lr, r2
 801aaac:	f841 4b04 	str.w	r4, [r1], #4
 801aab0:	d8e7      	bhi.n	801aa82 <__mdiff+0x5c>
 801aab2:	45be      	cmp	lr, r7
 801aab4:	d305      	bcc.n	801aac2 <__mdiff+0x9c>
 801aab6:	f851 3d04 	ldr.w	r3, [r1, #-4]!
 801aaba:	b18b      	cbz	r3, 801aae0 <__mdiff+0xba>
 801aabc:	6106      	str	r6, [r0, #16]
 801aabe:	e8bd 87f0 	ldmia.w	sp!, {r4, r5, r6, r7, r8, r9, sl, pc}
 801aac2:	f85e 4b04 	ldr.w	r4, [lr], #4
 801aac6:	b2a2      	uxth	r2, r4
 801aac8:	4462      	add	r2, ip
 801aaca:	1413      	asrs	r3, r2, #16
 801aacc:	eb03 4314 	add.w	r3, r3, r4, lsr #16
 801aad0:	b292      	uxth	r2, r2
 801aad2:	ea42 4203 	orr.w	r2, r2, r3, lsl #16
 801aad6:	ea4f 4c23 	mov.w	ip, r3, asr #16
 801aada:	f841 2b04 	str.w	r2, [r1], #4
 801aade:	e7e8      	b.n	801aab2 <__mdiff+0x8c>
 801aae0:	3e01      	subs	r6, #1
 801aae2:	e7e8      	b.n	801aab6 <__mdiff+0x90>

0801aae4 <__d2b>:
 801aae4:	e92d 41f3 	stmdb	sp!, {r0, r1, r4, r5, r6, r7, r8, lr}
 801aae8:	461c      	mov	r4, r3
 801aaea:	2101      	movs	r1, #1
 801aaec:	4690      	mov	r8, r2
 801aaee:	9e08      	ldr	r6, [sp, #32]
 801aaf0:	9d09      	ldr	r5, [sp, #36]	; 0x24
 801aaf2:	f7ff fd75 	bl	801a5e0 <_Balloc>
 801aaf6:	f3c4 0213 	ubfx	r2, r4, #0, #20
 801aafa:	f3c4 540a 	ubfx	r4, r4, #20, #11
 801aafe:	4607      	mov	r7, r0
 801ab00:	bb34      	cbnz	r4, 801ab50 <__d2b+0x6c>
 801ab02:	9201      	str	r2, [sp, #4]
 801ab04:	f1b8 0f00 	cmp.w	r8, #0
 801ab08:	d027      	beq.n	801ab5a <__d2b+0x76>
 801ab0a:	a802      	add	r0, sp, #8
 801ab0c:	f840 8d08 	str.w	r8, [r0, #-8]!
 801ab10:	f7ff fe0b 	bl	801a72a <__lo0bits>
 801ab14:	9900      	ldr	r1, [sp, #0]
 801ab16:	b1f0      	cbz	r0, 801ab56 <__d2b+0x72>
 801ab18:	9a01      	ldr	r2, [sp, #4]
 801ab1a:	f1c0 0320 	rsb	r3, r0, #32
 801ab1e:	fa02 f303 	lsl.w	r3, r2, r3
 801ab22:	430b      	orrs	r3, r1
 801ab24:	40c2      	lsrs	r2, r0
 801ab26:	617b      	str	r3, [r7, #20]
 801ab28:	9201      	str	r2, [sp, #4]
 801ab2a:	9b01      	ldr	r3, [sp, #4]
 801ab2c:	2b00      	cmp	r3, #0
 801ab2e:	bf14      	ite	ne
 801ab30:	2102      	movne	r1, #2
 801ab32:	2101      	moveq	r1, #1
 801ab34:	61bb      	str	r3, [r7, #24]
 801ab36:	6139      	str	r1, [r7, #16]
 801ab38:	b1c4      	cbz	r4, 801ab6c <__d2b+0x88>
 801ab3a:	f2a4 4433 	subw	r4, r4, #1075	; 0x433
 801ab3e:	4404      	add	r4, r0
 801ab40:	6034      	str	r4, [r6, #0]
 801ab42:	f1c0 0035 	rsb	r0, r0, #53	; 0x35
 801ab46:	6028      	str	r0, [r5, #0]
 801ab48:	4638      	mov	r0, r7
 801ab4a:	b002      	add	sp, #8
 801ab4c:	e8bd 81f0 	ldmia.w	sp!, {r4, r5, r6, r7, r8, pc}
 801ab50:	f442 1280 	orr.w	r2, r2, #1048576	; 0x100000
 801ab54:	e7d5      	b.n	801ab02 <__d2b+0x1e>
 801ab56:	6179      	str	r1, [r7, #20]
 801ab58:	e7e7      	b.n	801ab2a <__d2b+0x46>
 801ab5a:	a801      	add	r0, sp, #4
 801ab5c:	f7ff fde5 	bl	801a72a <__lo0bits>
 801ab60:	2101      	movs	r1, #1
 801ab62:	9b01      	ldr	r3, [sp, #4]
 801ab64:	6139      	str	r1, [r7, #16]
 801ab66:	617b      	str	r3, [r7, #20]
 801ab68:	3020      	adds	r0, #32
 801ab6a:	e7e5      	b.n	801ab38 <__d2b+0x54>
 801ab6c:	f2a0 4032 	subw	r0, r0, #1074	; 0x432
 801ab70:	eb07 0381 	add.w	r3, r7, r1, lsl #2
 801ab74:	6030      	str	r0, [r6, #0]
 801ab76:	6918      	ldr	r0, [r3, #16]
 801ab78:	f7ff fdb8 	bl	801a6ec <__hi0bits>
 801ab7c:	ebc0 1041 	rsb	r0, r0, r1, lsl #5
 801ab80:	e7e1      	b.n	801ab46 <__d2b+0x62>
	...

0801ab84 <_realloc_r>:
 801ab84:	e92d 4ff7 	stmdb	sp!, {r0, r1, r2, r4, r5, r6, r7, r8, r9, sl, fp, lr}
 801ab88:	4682      	mov	sl, r0
 801ab8a:	460c      	mov	r4, r1
 801ab8c:	b929      	cbnz	r1, 801ab9a <_realloc_r+0x16>
 801ab8e:	4611      	mov	r1, r2
 801ab90:	b003      	add	sp, #12
 801ab92:	e8bd 4ff0 	ldmia.w	sp!, {r4, r5, r6, r7, r8, r9, sl, fp, lr}
 801ab96:	f7ff bad1 	b.w	801a13c <_malloc_r>
 801ab9a:	9201      	str	r2, [sp, #4]
 801ab9c:	f7ff fd14 	bl	801a5c8 <__malloc_lock>
 801aba0:	9a01      	ldr	r2, [sp, #4]
 801aba2:	f854 5c04 	ldr.w	r5, [r4, #-4]
 801aba6:	f102 080b 	add.w	r8, r2, #11
 801abaa:	f1b8 0f16 	cmp.w	r8, #22
 801abae:	f1a4 0908 	sub.w	r9, r4, #8
 801abb2:	f025 0603 	bic.w	r6, r5, #3
 801abb6:	d90a      	bls.n	801abce <_realloc_r+0x4a>
 801abb8:	f038 0807 	bics.w	r8, r8, #7
 801abbc:	d509      	bpl.n	801abd2 <_realloc_r+0x4e>
 801abbe:	230c      	movs	r3, #12
 801abc0:	2700      	movs	r7, #0
 801abc2:	f8ca 3000 	str.w	r3, [sl]
 801abc6:	4638      	mov	r0, r7
 801abc8:	b003      	add	sp, #12
 801abca:	e8bd 8ff0 	ldmia.w	sp!, {r4, r5, r6, r7, r8, r9, sl, fp, pc}
 801abce:	f04f 0810 	mov.w	r8, #16
 801abd2:	4590      	cmp	r8, r2
 801abd4:	d3f3      	bcc.n	801abbe <_realloc_r+0x3a>
 801abd6:	45b0      	cmp	r8, r6
 801abd8:	f340 8148 	ble.w	801ae6c <_realloc_r+0x2e8>
 801abdc:	4ba9      	ldr	r3, [pc, #676]	; (801ae84 <_realloc_r+0x300>)
 801abde:	eb09 0106 	add.w	r1, r9, r6
 801abe2:	f8d3 e008 	ldr.w	lr, [r3, #8]
 801abe6:	469b      	mov	fp, r3
 801abe8:	4571      	cmp	r1, lr
 801abea:	684b      	ldr	r3, [r1, #4]
 801abec:	d005      	beq.n	801abfa <_realloc_r+0x76>
 801abee:	f023 0001 	bic.w	r0, r3, #1
 801abf2:	4408      	add	r0, r1
 801abf4:	6840      	ldr	r0, [r0, #4]
 801abf6:	07c7      	lsls	r7, r0, #31
 801abf8:	d447      	bmi.n	801ac8a <_realloc_r+0x106>
 801abfa:	f023 0303 	bic.w	r3, r3, #3
 801abfe:	4571      	cmp	r1, lr
 801ac00:	eb06 0703 	add.w	r7, r6, r3
 801ac04:	d119      	bne.n	801ac3a <_realloc_r+0xb6>
 801ac06:	f108 0010 	add.w	r0, r8, #16
 801ac0a:	4287      	cmp	r7, r0
 801ac0c:	db3f      	blt.n	801ac8e <_realloc_r+0x10a>
 801ac0e:	eba7 0708 	sub.w	r7, r7, r8
 801ac12:	eb09 0308 	add.w	r3, r9, r8
 801ac16:	f047 0701 	orr.w	r7, r7, #1
 801ac1a:	f8cb 3008 	str.w	r3, [fp, #8]
 801ac1e:	605f      	str	r7, [r3, #4]
 801ac20:	f854 3c04 	ldr.w	r3, [r4, #-4]
 801ac24:	4650      	mov	r0, sl
 801ac26:	f003 0301 	and.w	r3, r3, #1
 801ac2a:	ea43 0308 	orr.w	r3, r3, r8
 801ac2e:	f844 3c04 	str.w	r3, [r4, #-4]
 801ac32:	f7ff fccf 	bl	801a5d4 <__malloc_unlock>
 801ac36:	4627      	mov	r7, r4
 801ac38:	e7c5      	b.n	801abc6 <_realloc_r+0x42>
 801ac3a:	45b8      	cmp	r8, r7
 801ac3c:	dc27      	bgt.n	801ac8e <_realloc_r+0x10a>
 801ac3e:	68cb      	ldr	r3, [r1, #12]
 801ac40:	688a      	ldr	r2, [r1, #8]
 801ac42:	60d3      	str	r3, [r2, #12]
 801ac44:	609a      	str	r2, [r3, #8]
 801ac46:	eba7 0008 	sub.w	r0, r7, r8
 801ac4a:	280f      	cmp	r0, #15
 801ac4c:	f8d9 3004 	ldr.w	r3, [r9, #4]
 801ac50:	eb09 0207 	add.w	r2, r9, r7
 801ac54:	f240 810c 	bls.w	801ae70 <_realloc_r+0x2ec>
 801ac58:	f003 0301 	and.w	r3, r3, #1
 801ac5c:	eb09 0108 	add.w	r1, r9, r8
 801ac60:	ea43 0308 	orr.w	r3, r3, r8
 801ac64:	f040 0001 	orr.w	r0, r0, #1
 801ac68:	f8c9 3004 	str.w	r3, [r9, #4]
 801ac6c:	6048      	str	r0, [r1, #4]
 801ac6e:	6853      	ldr	r3, [r2, #4]
 801ac70:	3108      	adds	r1, #8
 801ac72:	f043 0301 	orr.w	r3, r3, #1
 801ac76:	6053      	str	r3, [r2, #4]
 801ac78:	4650      	mov	r0, sl
 801ac7a:	f7fe ff9f 	bl	8019bbc <_free_r>
 801ac7e:	4650      	mov	r0, sl
 801ac80:	f7ff fca8 	bl	801a5d4 <__malloc_unlock>
 801ac84:	f109 0708 	add.w	r7, r9, #8
 801ac88:	e79d      	b.n	801abc6 <_realloc_r+0x42>
 801ac8a:	2300      	movs	r3, #0
 801ac8c:	4619      	mov	r1, r3
 801ac8e:	07e8      	lsls	r0, r5, #31
 801ac90:	f100 8085 	bmi.w	801ad9e <_realloc_r+0x21a>
 801ac94:	f854 5c08 	ldr.w	r5, [r4, #-8]
 801ac98:	eba9 0505 	sub.w	r5, r9, r5
 801ac9c:	6868      	ldr	r0, [r5, #4]
 801ac9e:	f020 0003 	bic.w	r0, r0, #3
 801aca2:	4430      	add	r0, r6
 801aca4:	2900      	cmp	r1, #0
 801aca6:	d077      	beq.n	801ad98 <_realloc_r+0x214>
 801aca8:	4571      	cmp	r1, lr
 801acaa:	d151      	bne.n	801ad50 <_realloc_r+0x1cc>
 801acac:	4403      	add	r3, r0
 801acae:	f108 0110 	add.w	r1, r8, #16
 801acb2:	428b      	cmp	r3, r1
 801acb4:	db70      	blt.n	801ad98 <_realloc_r+0x214>
 801acb6:	462f      	mov	r7, r5
 801acb8:	68ea      	ldr	r2, [r5, #12]
 801acba:	f857 1f08 	ldr.w	r1, [r7, #8]!
 801acbe:	60ca      	str	r2, [r1, #12]
 801acc0:	6091      	str	r1, [r2, #8]
 801acc2:	1f32      	subs	r2, r6, #4
 801acc4:	2a24      	cmp	r2, #36	; 0x24
 801acc6:	d83c      	bhi.n	801ad42 <_realloc_r+0x1be>
 801acc8:	2a13      	cmp	r2, #19
 801acca:	d937      	bls.n	801ad3c <_realloc_r+0x1b8>
 801accc:	6821      	ldr	r1, [r4, #0]
 801acce:	2a1b      	cmp	r2, #27
 801acd0:	60a9      	str	r1, [r5, #8]
 801acd2:	6861      	ldr	r1, [r4, #4]
 801acd4:	60e9      	str	r1, [r5, #12]
 801acd6:	d81c      	bhi.n	801ad12 <_realloc_r+0x18e>
 801acd8:	f105 0210 	add.w	r2, r5, #16
 801acdc:	f104 0108 	add.w	r1, r4, #8
 801ace0:	6808      	ldr	r0, [r1, #0]
 801ace2:	6010      	str	r0, [r2, #0]
 801ace4:	6848      	ldr	r0, [r1, #4]
 801ace6:	6050      	str	r0, [r2, #4]
 801ace8:	6889      	ldr	r1, [r1, #8]
 801acea:	6091      	str	r1, [r2, #8]
 801acec:	eba3 0308 	sub.w	r3, r3, r8
 801acf0:	eb05 0208 	add.w	r2, r5, r8
 801acf4:	f043 0301 	orr.w	r3, r3, #1
 801acf8:	f8cb 2008 	str.w	r2, [fp, #8]
 801acfc:	6053      	str	r3, [r2, #4]
 801acfe:	686b      	ldr	r3, [r5, #4]
 801ad00:	f003 0301 	and.w	r3, r3, #1
 801ad04:	ea43 0308 	orr.w	r3, r3, r8
 801ad08:	606b      	str	r3, [r5, #4]
 801ad0a:	4650      	mov	r0, sl
 801ad0c:	f7ff fc62 	bl	801a5d4 <__malloc_unlock>
 801ad10:	e759      	b.n	801abc6 <_realloc_r+0x42>
 801ad12:	68a1      	ldr	r1, [r4, #8]
 801ad14:	2a24      	cmp	r2, #36	; 0x24
 801ad16:	6129      	str	r1, [r5, #16]
 801ad18:	68e1      	ldr	r1, [r4, #12]
 801ad1a:	bf18      	it	ne
 801ad1c:	f105 0218 	addne.w	r2, r5, #24
 801ad20:	6169      	str	r1, [r5, #20]
 801ad22:	bf09      	itett	eq
 801ad24:	6922      	ldreq	r2, [r4, #16]
 801ad26:	f104 0110 	addne.w	r1, r4, #16
 801ad2a:	61aa      	streq	r2, [r5, #24]
 801ad2c:	6960      	ldreq	r0, [r4, #20]
 801ad2e:	bf02      	ittt	eq
 801ad30:	f105 0220 	addeq.w	r2, r5, #32
 801ad34:	f104 0118 	addeq.w	r1, r4, #24
 801ad38:	61e8      	streq	r0, [r5, #28]
 801ad3a:	e7d1      	b.n	801ace0 <_realloc_r+0x15c>
 801ad3c:	463a      	mov	r2, r7
 801ad3e:	4621      	mov	r1, r4
 801ad40:	e7ce      	b.n	801ace0 <_realloc_r+0x15c>
 801ad42:	4621      	mov	r1, r4
 801ad44:	4638      	mov	r0, r7
 801ad46:	9301      	str	r3, [sp, #4]
 801ad48:	f7ff fc24 	bl	801a594 <memmove>
 801ad4c:	9b01      	ldr	r3, [sp, #4]
 801ad4e:	e7cd      	b.n	801acec <_realloc_r+0x168>
 801ad50:	18c7      	adds	r7, r0, r3
 801ad52:	45b8      	cmp	r8, r7
 801ad54:	dc20      	bgt.n	801ad98 <_realloc_r+0x214>
 801ad56:	68cb      	ldr	r3, [r1, #12]
 801ad58:	688a      	ldr	r2, [r1, #8]
 801ad5a:	60d3      	str	r3, [r2, #12]
 801ad5c:	609a      	str	r2, [r3, #8]
 801ad5e:	4628      	mov	r0, r5
 801ad60:	68eb      	ldr	r3, [r5, #12]
 801ad62:	f850 2f08 	ldr.w	r2, [r0, #8]!
 801ad66:	60d3      	str	r3, [r2, #12]
 801ad68:	609a      	str	r2, [r3, #8]
 801ad6a:	1f32      	subs	r2, r6, #4
 801ad6c:	2a24      	cmp	r2, #36	; 0x24
 801ad6e:	d843      	bhi.n	801adf8 <_realloc_r+0x274>
 801ad70:	2a13      	cmp	r2, #19
 801ad72:	d93f      	bls.n	801adf4 <_realloc_r+0x270>
 801ad74:	6823      	ldr	r3, [r4, #0]
 801ad76:	2a1b      	cmp	r2, #27
 801ad78:	60ab      	str	r3, [r5, #8]
 801ad7a:	6863      	ldr	r3, [r4, #4]
 801ad7c:	60eb      	str	r3, [r5, #12]
 801ad7e:	d824      	bhi.n	801adca <_realloc_r+0x246>
 801ad80:	f105 0010 	add.w	r0, r5, #16
 801ad84:	f104 0308 	add.w	r3, r4, #8
 801ad88:	681a      	ldr	r2, [r3, #0]
 801ad8a:	6002      	str	r2, [r0, #0]
 801ad8c:	685a      	ldr	r2, [r3, #4]
 801ad8e:	6042      	str	r2, [r0, #4]
 801ad90:	689b      	ldr	r3, [r3, #8]
 801ad92:	6083      	str	r3, [r0, #8]
 801ad94:	46a9      	mov	r9, r5
 801ad96:	e756      	b.n	801ac46 <_realloc_r+0xc2>
 801ad98:	4580      	cmp	r8, r0
 801ad9a:	4607      	mov	r7, r0
 801ad9c:	dddf      	ble.n	801ad5e <_realloc_r+0x1da>
 801ad9e:	4611      	mov	r1, r2
 801ada0:	4650      	mov	r0, sl
 801ada2:	f7ff f9cb 	bl	801a13c <_malloc_r>
 801ada6:	4607      	mov	r7, r0
 801ada8:	2800      	cmp	r0, #0
 801adaa:	d0ae      	beq.n	801ad0a <_realloc_r+0x186>
 801adac:	f854 3c04 	ldr.w	r3, [r4, #-4]
 801adb0:	f1a0 0208 	sub.w	r2, r0, #8
 801adb4:	f023 0301 	bic.w	r3, r3, #1
 801adb8:	444b      	add	r3, r9
 801adba:	429a      	cmp	r2, r3
 801adbc:	d120      	bne.n	801ae00 <_realloc_r+0x27c>
 801adbe:	f850 7c04 	ldr.w	r7, [r0, #-4]
 801adc2:	f027 0703 	bic.w	r7, r7, #3
 801adc6:	4437      	add	r7, r6
 801adc8:	e73d      	b.n	801ac46 <_realloc_r+0xc2>
 801adca:	68a3      	ldr	r3, [r4, #8]
 801adcc:	2a24      	cmp	r2, #36	; 0x24
 801adce:	612b      	str	r3, [r5, #16]
 801add0:	68e3      	ldr	r3, [r4, #12]
 801add2:	bf18      	it	ne
 801add4:	f105 0018 	addne.w	r0, r5, #24
 801add8:	616b      	str	r3, [r5, #20]
 801adda:	bf09      	itett	eq
 801addc:	6923      	ldreq	r3, [r4, #16]
 801adde:	f104 0310 	addne.w	r3, r4, #16
 801ade2:	61ab      	streq	r3, [r5, #24]
 801ade4:	6962      	ldreq	r2, [r4, #20]
 801ade6:	bf02      	ittt	eq
 801ade8:	f105 0020 	addeq.w	r0, r5, #32
 801adec:	f104 0318 	addeq.w	r3, r4, #24
 801adf0:	61ea      	streq	r2, [r5, #28]
 801adf2:	e7c9      	b.n	801ad88 <_realloc_r+0x204>
 801adf4:	4623      	mov	r3, r4
 801adf6:	e7c7      	b.n	801ad88 <_realloc_r+0x204>
 801adf8:	4621      	mov	r1, r4
 801adfa:	f7ff fbcb 	bl	801a594 <memmove>
 801adfe:	e7c9      	b.n	801ad94 <_realloc_r+0x210>
 801ae00:	1f32      	subs	r2, r6, #4
 801ae02:	2a24      	cmp	r2, #36	; 0x24
 801ae04:	d82e      	bhi.n	801ae64 <_realloc_r+0x2e0>
 801ae06:	2a13      	cmp	r2, #19
 801ae08:	d929      	bls.n	801ae5e <_realloc_r+0x2da>
 801ae0a:	6823      	ldr	r3, [r4, #0]
 801ae0c:	2a1b      	cmp	r2, #27
 801ae0e:	6003      	str	r3, [r0, #0]
 801ae10:	6863      	ldr	r3, [r4, #4]
 801ae12:	6043      	str	r3, [r0, #4]
 801ae14:	d80e      	bhi.n	801ae34 <_realloc_r+0x2b0>
 801ae16:	f100 0308 	add.w	r3, r0, #8
 801ae1a:	f104 0208 	add.w	r2, r4, #8
 801ae1e:	6811      	ldr	r1, [r2, #0]
 801ae20:	6019      	str	r1, [r3, #0]
 801ae22:	6851      	ldr	r1, [r2, #4]
 801ae24:	6059      	str	r1, [r3, #4]
 801ae26:	6892      	ldr	r2, [r2, #8]
 801ae28:	609a      	str	r2, [r3, #8]
 801ae2a:	4621      	mov	r1, r4
 801ae2c:	4650      	mov	r0, sl
 801ae2e:	f7fe fec5 	bl	8019bbc <_free_r>
 801ae32:	e76a      	b.n	801ad0a <_realloc_r+0x186>
 801ae34:	68a3      	ldr	r3, [r4, #8]
 801ae36:	2a24      	cmp	r2, #36	; 0x24
 801ae38:	6083      	str	r3, [r0, #8]
 801ae3a:	68e3      	ldr	r3, [r4, #12]
 801ae3c:	bf18      	it	ne
 801ae3e:	f104 0210 	addne.w	r2, r4, #16
 801ae42:	60c3      	str	r3, [r0, #12]
 801ae44:	bf09      	itett	eq
 801ae46:	6923      	ldreq	r3, [r4, #16]
 801ae48:	f100 0310 	addne.w	r3, r0, #16
 801ae4c:	6103      	streq	r3, [r0, #16]
 801ae4e:	6961      	ldreq	r1, [r4, #20]
 801ae50:	bf02      	ittt	eq
 801ae52:	f100 0318 	addeq.w	r3, r0, #24
 801ae56:	f104 0218 	addeq.w	r2, r4, #24
 801ae5a:	6141      	streq	r1, [r0, #20]
 801ae5c:	e7df      	b.n	801ae1e <_realloc_r+0x29a>
 801ae5e:	4603      	mov	r3, r0
 801ae60:	4622      	mov	r2, r4
 801ae62:	e7dc      	b.n	801ae1e <_realloc_r+0x29a>
 801ae64:	4621      	mov	r1, r4
 801ae66:	f7ff fb95 	bl	801a594 <memmove>
 801ae6a:	e7de      	b.n	801ae2a <_realloc_r+0x2a6>
 801ae6c:	4637      	mov	r7, r6
 801ae6e:	e6ea      	b.n	801ac46 <_realloc_r+0xc2>
 801ae70:	f003 0301 	and.w	r3, r3, #1
 801ae74:	431f      	orrs	r7, r3
 801ae76:	f8c9 7004 	str.w	r7, [r9, #4]
 801ae7a:	6853      	ldr	r3, [r2, #4]
 801ae7c:	f043 0301 	orr.w	r3, r3, #1
 801ae80:	6053      	str	r3, [r2, #4]
 801ae82:	e6fc      	b.n	801ac7e <_realloc_r+0xfa>
 801ae84:	20000280 	.word	0x20000280

0801ae88 <_sbrk_r>:
 801ae88:	b538      	push	{r3, r4, r5, lr}
 801ae8a:	2300      	movs	r3, #0
 801ae8c:	4c05      	ldr	r4, [pc, #20]	; (801aea4 <_sbrk_r+0x1c>)
 801ae8e:	4605      	mov	r5, r0
 801ae90:	4608      	mov	r0, r1
 801ae92:	6023      	str	r3, [r4, #0]
 801ae94:	f7fb f96c 	bl	8016170 <_sbrk>
 801ae98:	1c43      	adds	r3, r0, #1
 801ae9a:	d102      	bne.n	801aea2 <_sbrk_r+0x1a>
 801ae9c:	6823      	ldr	r3, [r4, #0]
 801ae9e:	b103      	cbz	r3, 801aea2 <_sbrk_r+0x1a>
 801aea0:	602b      	str	r3, [r5, #0]
 801aea2:	bd38      	pop	{r3, r4, r5, pc}
 801aea4:	20002334 	.word	0x20002334

0801aea8 <__sread>:
 801aea8:	b510      	push	{r4, lr}
 801aeaa:	460c      	mov	r4, r1
 801aeac:	f9b1 100e 	ldrsh.w	r1, [r1, #14]
 801aeb0:	f000 fa54 	bl	801b35c <_read_r>
 801aeb4:	2800      	cmp	r0, #0
 801aeb6:	bfab      	itete	ge
 801aeb8:	6d63      	ldrge	r3, [r4, #84]	; 0x54
 801aeba:	89a3      	ldrhlt	r3, [r4, #12]
 801aebc:	181b      	addge	r3, r3, r0
 801aebe:	f423 5380 	biclt.w	r3, r3, #4096	; 0x1000
 801aec2:	bfac      	ite	ge
 801aec4:	6563      	strge	r3, [r4, #84]	; 0x54
 801aec6:	81a3      	strhlt	r3, [r4, #12]
 801aec8:	bd10      	pop	{r4, pc}

0801aeca <__swrite>:
 801aeca:	e92d 41f0 	stmdb	sp!, {r4, r5, r6, r7, r8, lr}
 801aece:	461f      	mov	r7, r3
 801aed0:	898b      	ldrh	r3, [r1, #12]
 801aed2:	4605      	mov	r5, r0
 801aed4:	05db      	lsls	r3, r3, #23
 801aed6:	460c      	mov	r4, r1
 801aed8:	4616      	mov	r6, r2
 801aeda:	d505      	bpl.n	801aee8 <__swrite+0x1e>
 801aedc:	2302      	movs	r3, #2
 801aede:	2200      	movs	r2, #0
 801aee0:	f9b1 100e 	ldrsh.w	r1, [r1, #14]
 801aee4:	f000 fa28 	bl	801b338 <_lseek_r>
 801aee8:	89a3      	ldrh	r3, [r4, #12]
 801aeea:	4632      	mov	r2, r6
 801aeec:	f423 5380 	bic.w	r3, r3, #4096	; 0x1000
 801aef0:	81a3      	strh	r3, [r4, #12]
 801aef2:	f9b4 100e 	ldrsh.w	r1, [r4, #14]
 801aef6:	463b      	mov	r3, r7
 801aef8:	4628      	mov	r0, r5
 801aefa:	e8bd 41f0 	ldmia.w	sp!, {r4, r5, r6, r7, r8, lr}
 801aefe:	f000 b8d3 	b.w	801b0a8 <_write_r>

0801af02 <__sseek>:
 801af02:	b510      	push	{r4, lr}
 801af04:	460c      	mov	r4, r1
 801af06:	f9b1 100e 	ldrsh.w	r1, [r1, #14]
 801af0a:	f000 fa15 	bl	801b338 <_lseek_r>
 801af0e:	1c43      	adds	r3, r0, #1
 801af10:	89a3      	ldrh	r3, [r4, #12]
 801af12:	bf15      	itete	ne
 801af14:	6560      	strne	r0, [r4, #84]	; 0x54
 801af16:	f423 5380 	biceq.w	r3, r3, #4096	; 0x1000
 801af1a:	f443 5380 	orrne.w	r3, r3, #4096	; 0x1000
 801af1e:	81a3      	strheq	r3, [r4, #12]
 801af20:	bf18      	it	ne
 801af22:	81a3      	strhne	r3, [r4, #12]
 801af24:	bd10      	pop	{r4, pc}

0801af26 <__sclose>:
 801af26:	f9b1 100e 	ldrsh.w	r1, [r1, #14]
 801af2a:	f000 b8fd 	b.w	801b128 <_close_r>

0801af2e <__ssprint_r>:
 801af2e:	6893      	ldr	r3, [r2, #8]
 801af30:	e92d 4ff7 	stmdb	sp!, {r0, r1, r2, r4, r5, r6, r7, r8, r9, sl, fp, lr}
 801af34:	4681      	mov	r9, r0
 801af36:	460c      	mov	r4, r1
 801af38:	4617      	mov	r7, r2
 801af3a:	2b00      	cmp	r3, #0
 801af3c:	d060      	beq.n	801b000 <__ssprint_r+0xd2>
 801af3e:	f04f 0b00 	mov.w	fp, #0
 801af42:	465e      	mov	r6, fp
 801af44:	f8d2 a000 	ldr.w	sl, [r2]
 801af48:	b356      	cbz	r6, 801afa0 <__ssprint_r+0x72>
 801af4a:	68a3      	ldr	r3, [r4, #8]
 801af4c:	429e      	cmp	r6, r3
 801af4e:	d344      	bcc.n	801afda <__ssprint_r+0xac>
 801af50:	89a2      	ldrh	r2, [r4, #12]
 801af52:	f412 6f90 	tst.w	r2, #1152	; 0x480
 801af56:	d03e      	beq.n	801afd6 <__ssprint_r+0xa8>
 801af58:	2302      	movs	r3, #2
 801af5a:	6825      	ldr	r5, [r4, #0]
 801af5c:	6921      	ldr	r1, [r4, #16]
 801af5e:	eba5 0801 	sub.w	r8, r5, r1
 801af62:	6965      	ldr	r5, [r4, #20]
 801af64:	eb05 0545 	add.w	r5, r5, r5, lsl #1
 801af68:	fb95 f5f3 	sdiv	r5, r5, r3
 801af6c:	f108 0301 	add.w	r3, r8, #1
 801af70:	4433      	add	r3, r6
 801af72:	429d      	cmp	r5, r3
 801af74:	bf38      	it	cc
 801af76:	461d      	movcc	r5, r3
 801af78:	0553      	lsls	r3, r2, #21
 801af7a:	d546      	bpl.n	801b00a <__ssprint_r+0xdc>
 801af7c:	4629      	mov	r1, r5
 801af7e:	4648      	mov	r0, r9
 801af80:	f7ff f8dc 	bl	801a13c <_malloc_r>
 801af84:	b998      	cbnz	r0, 801afae <__ssprint_r+0x80>
 801af86:	230c      	movs	r3, #12
 801af88:	f8c9 3000 	str.w	r3, [r9]
 801af8c:	89a3      	ldrh	r3, [r4, #12]
 801af8e:	f04f 30ff 	mov.w	r0, #4294967295
 801af92:	f043 0340 	orr.w	r3, r3, #64	; 0x40
 801af96:	81a3      	strh	r3, [r4, #12]
 801af98:	2300      	movs	r3, #0
 801af9a:	60bb      	str	r3, [r7, #8]
 801af9c:	607b      	str	r3, [r7, #4]
 801af9e:	e031      	b.n	801b004 <__ssprint_r+0xd6>
 801afa0:	f8da b000 	ldr.w	fp, [sl]
 801afa4:	f8da 6004 	ldr.w	r6, [sl, #4]
 801afa8:	f10a 0a08 	add.w	sl, sl, #8
 801afac:	e7cc      	b.n	801af48 <__ssprint_r+0x1a>
 801afae:	4642      	mov	r2, r8
 801afb0:	6921      	ldr	r1, [r4, #16]
 801afb2:	9001      	str	r0, [sp, #4]
 801afb4:	f7fb fa5b 	bl	801646e <memcpy>
 801afb8:	89a2      	ldrh	r2, [r4, #12]
 801afba:	9b01      	ldr	r3, [sp, #4]
 801afbc:	f422 6290 	bic.w	r2, r2, #1152	; 0x480
 801afc0:	f042 0280 	orr.w	r2, r2, #128	; 0x80
 801afc4:	81a2      	strh	r2, [r4, #12]
 801afc6:	6123      	str	r3, [r4, #16]
 801afc8:	4443      	add	r3, r8
 801afca:	6023      	str	r3, [r4, #0]
 801afcc:	4633      	mov	r3, r6
 801afce:	6165      	str	r5, [r4, #20]
 801afd0:	eba5 0508 	sub.w	r5, r5, r8
 801afd4:	60a5      	str	r5, [r4, #8]
 801afd6:	429e      	cmp	r6, r3
 801afd8:	d200      	bcs.n	801afdc <__ssprint_r+0xae>
 801afda:	4633      	mov	r3, r6
 801afdc:	461a      	mov	r2, r3
 801afde:	4659      	mov	r1, fp
 801afe0:	6820      	ldr	r0, [r4, #0]
 801afe2:	9301      	str	r3, [sp, #4]
 801afe4:	f7ff fad6 	bl	801a594 <memmove>
 801afe8:	68a2      	ldr	r2, [r4, #8]
 801afea:	9b01      	ldr	r3, [sp, #4]
 801afec:	1ad2      	subs	r2, r2, r3
 801afee:	60a2      	str	r2, [r4, #8]
 801aff0:	6822      	ldr	r2, [r4, #0]
 801aff2:	4413      	add	r3, r2
 801aff4:	6023      	str	r3, [r4, #0]
 801aff6:	68bb      	ldr	r3, [r7, #8]
 801aff8:	1b9e      	subs	r6, r3, r6
 801affa:	60be      	str	r6, [r7, #8]
 801affc:	2e00      	cmp	r6, #0
 801affe:	d1cf      	bne.n	801afa0 <__ssprint_r+0x72>
 801b000:	2000      	movs	r0, #0
 801b002:	6078      	str	r0, [r7, #4]
 801b004:	b003      	add	sp, #12
 801b006:	e8bd 8ff0 	ldmia.w	sp!, {r4, r5, r6, r7, r8, r9, sl, fp, pc}
 801b00a:	462a      	mov	r2, r5
 801b00c:	4648      	mov	r0, r9
 801b00e:	f7ff fdb9 	bl	801ab84 <_realloc_r>
 801b012:	4603      	mov	r3, r0
 801b014:	2800      	cmp	r0, #0
 801b016:	d1d6      	bne.n	801afc6 <__ssprint_r+0x98>
 801b018:	6921      	ldr	r1, [r4, #16]
 801b01a:	4648      	mov	r0, r9
 801b01c:	f7fe fdce 	bl	8019bbc <_free_r>
 801b020:	e7b1      	b.n	801af86 <__ssprint_r+0x58>

0801b022 <__sprint_r>:
 801b022:	e92d 4ff8 	stmdb	sp!, {r3, r4, r5, r6, r7, r8, r9, sl, fp, lr}
 801b026:	6893      	ldr	r3, [r2, #8]
 801b028:	4680      	mov	r8, r0
 801b02a:	460f      	mov	r7, r1
 801b02c:	4614      	mov	r4, r2
 801b02e:	b91b      	cbnz	r3, 801b038 <__sprint_r+0x16>
 801b030:	6053      	str	r3, [r2, #4]
 801b032:	4618      	mov	r0, r3
 801b034:	e8bd 8ff8 	ldmia.w	sp!, {r3, r4, r5, r6, r7, r8, r9, sl, fp, pc}
 801b038:	6e4b      	ldr	r3, [r1, #100]	; 0x64
 801b03a:	049d      	lsls	r5, r3, #18
 801b03c:	d523      	bpl.n	801b086 <__sprint_r+0x64>
 801b03e:	6815      	ldr	r5, [r2, #0]
 801b040:	68a0      	ldr	r0, [r4, #8]
 801b042:	3508      	adds	r5, #8
 801b044:	b920      	cbnz	r0, 801b050 <__sprint_r+0x2e>
 801b046:	2300      	movs	r3, #0
 801b048:	60a3      	str	r3, [r4, #8]
 801b04a:	6063      	str	r3, [r4, #4]
 801b04c:	e8bd 8ff8 	ldmia.w	sp!, {r3, r4, r5, r6, r7, r8, r9, sl, fp, pc}
 801b050:	f04f 0900 	mov.w	r9, #0
 801b054:	f855 6c04 	ldr.w	r6, [r5, #-4]
 801b058:	f855 bc08 	ldr.w	fp, [r5, #-8]
 801b05c:	ea4f 0a96 	mov.w	sl, r6, lsr #2
 801b060:	45ca      	cmp	sl, r9
 801b062:	dc05      	bgt.n	801b070 <__sprint_r+0x4e>
 801b064:	68a3      	ldr	r3, [r4, #8]
 801b066:	f026 0603 	bic.w	r6, r6, #3
 801b06a:	1b9e      	subs	r6, r3, r6
 801b06c:	60a6      	str	r6, [r4, #8]
 801b06e:	e7e7      	b.n	801b040 <__sprint_r+0x1e>
 801b070:	463a      	mov	r2, r7
 801b072:	f85b 1029 	ldr.w	r1, [fp, r9, lsl #2]
 801b076:	4640      	mov	r0, r8
 801b078:	f000 f913 	bl	801b2a2 <_fputwc_r>
 801b07c:	1c43      	adds	r3, r0, #1
 801b07e:	d0e2      	beq.n	801b046 <__sprint_r+0x24>
 801b080:	f109 0901 	add.w	r9, r9, #1
 801b084:	e7ec      	b.n	801b060 <__sprint_r+0x3e>
 801b086:	f7fe fe55 	bl	8019d34 <__sfvwrite_r>
 801b08a:	e7dc      	b.n	801b046 <__sprint_r+0x24>

0801b08c <__ascii_wctomb>:
 801b08c:	b149      	cbz	r1, 801b0a2 <__ascii_wctomb+0x16>
 801b08e:	2aff      	cmp	r2, #255	; 0xff
 801b090:	bf8b      	itete	hi
 801b092:	238a      	movhi	r3, #138	; 0x8a
 801b094:	700a      	strbls	r2, [r1, #0]
 801b096:	6003      	strhi	r3, [r0, #0]
 801b098:	2001      	movls	r0, #1
 801b09a:	bf88      	it	hi
 801b09c:	f04f 30ff 	movhi.w	r0, #4294967295
 801b0a0:	4770      	bx	lr
 801b0a2:	4608      	mov	r0, r1
 801b0a4:	4770      	bx	lr
	...

0801b0a8 <_write_r>:
 801b0a8:	b538      	push	{r3, r4, r5, lr}
 801b0aa:	4605      	mov	r5, r0
 801b0ac:	4608      	mov	r0, r1
 801b0ae:	4611      	mov	r1, r2
 801b0b0:	2200      	movs	r2, #0
 801b0b2:	4c05      	ldr	r4, [pc, #20]	; (801b0c8 <_write_r+0x20>)
 801b0b4:	6022      	str	r2, [r4, #0]
 801b0b6:	461a      	mov	r2, r3
 801b0b8:	f7fb f83e 	bl	8016138 <_write>
 801b0bc:	1c43      	adds	r3, r0, #1
 801b0be:	d102      	bne.n	801b0c6 <_write_r+0x1e>
 801b0c0:	6823      	ldr	r3, [r4, #0]
 801b0c2:	b103      	cbz	r3, 801b0c6 <_write_r+0x1e>
 801b0c4:	602b      	str	r3, [r5, #0]
 801b0c6:	bd38      	pop	{r3, r4, r5, pc}
 801b0c8:	20002334 	.word	0x20002334

0801b0cc <_calloc_r>:
 801b0cc:	b510      	push	{r4, lr}
 801b0ce:	4351      	muls	r1, r2
 801b0d0:	f7ff f834 	bl	801a13c <_malloc_r>
 801b0d4:	4604      	mov	r4, r0
 801b0d6:	b198      	cbz	r0, 801b100 <_calloc_r+0x34>
 801b0d8:	f850 2c04 	ldr.w	r2, [r0, #-4]
 801b0dc:	f022 0203 	bic.w	r2, r2, #3
 801b0e0:	3a04      	subs	r2, #4
 801b0e2:	2a24      	cmp	r2, #36	; 0x24
 801b0e4:	d81b      	bhi.n	801b11e <_calloc_r+0x52>
 801b0e6:	2a13      	cmp	r2, #19
 801b0e8:	d917      	bls.n	801b11a <_calloc_r+0x4e>
 801b0ea:	2100      	movs	r1, #0
 801b0ec:	2a1b      	cmp	r2, #27
 801b0ee:	6001      	str	r1, [r0, #0]
 801b0f0:	6041      	str	r1, [r0, #4]
 801b0f2:	d807      	bhi.n	801b104 <_calloc_r+0x38>
 801b0f4:	f100 0308 	add.w	r3, r0, #8
 801b0f8:	2200      	movs	r2, #0
 801b0fa:	601a      	str	r2, [r3, #0]
 801b0fc:	605a      	str	r2, [r3, #4]
 801b0fe:	609a      	str	r2, [r3, #8]
 801b100:	4620      	mov	r0, r4
 801b102:	bd10      	pop	{r4, pc}
 801b104:	2a24      	cmp	r2, #36	; 0x24
 801b106:	6081      	str	r1, [r0, #8]
 801b108:	60c1      	str	r1, [r0, #12]
 801b10a:	bf11      	iteee	ne
 801b10c:	f100 0310 	addne.w	r3, r0, #16
 801b110:	6101      	streq	r1, [r0, #16]
 801b112:	f100 0318 	addeq.w	r3, r0, #24
 801b116:	6141      	streq	r1, [r0, #20]
 801b118:	e7ee      	b.n	801b0f8 <_calloc_r+0x2c>
 801b11a:	4603      	mov	r3, r0
 801b11c:	e7ec      	b.n	801b0f8 <_calloc_r+0x2c>
 801b11e:	2100      	movs	r1, #0
 801b120:	f7fb f9b0 	bl	8016484 <memset>
 801b124:	e7ec      	b.n	801b100 <_calloc_r+0x34>
	...

0801b128 <_close_r>:
 801b128:	b538      	push	{r3, r4, r5, lr}
 801b12a:	2300      	movs	r3, #0
 801b12c:	4c05      	ldr	r4, [pc, #20]	; (801b144 <_close_r+0x1c>)
 801b12e:	4605      	mov	r5, r0
 801b130:	4608      	mov	r0, r1
 801b132:	6023      	str	r3, [r4, #0]
 801b134:	f7fb f83a 	bl	80161ac <_close>
 801b138:	1c43      	adds	r3, r0, #1
 801b13a:	d102      	bne.n	801b142 <_close_r+0x1a>
 801b13c:	6823      	ldr	r3, [r4, #0]
 801b13e:	b103      	cbz	r3, 801b142 <_close_r+0x1a>
 801b140:	602b      	str	r3, [r5, #0]
 801b142:	bd38      	pop	{r3, r4, r5, pc}
 801b144:	20002334 	.word	0x20002334

0801b148 <_fclose_r>:
 801b148:	b570      	push	{r4, r5, r6, lr}
 801b14a:	4605      	mov	r5, r0
 801b14c:	460c      	mov	r4, r1
 801b14e:	b911      	cbnz	r1, 801b156 <_fclose_r+0xe>
 801b150:	2600      	movs	r6, #0
 801b152:	4630      	mov	r0, r6
 801b154:	bd70      	pop	{r4, r5, r6, pc}
 801b156:	b118      	cbz	r0, 801b160 <_fclose_r+0x18>
 801b158:	6983      	ldr	r3, [r0, #24]
 801b15a:	b90b      	cbnz	r3, 801b160 <_fclose_r+0x18>
 801b15c:	f7fe fc56 	bl	8019a0c <__sinit>
 801b160:	4b2c      	ldr	r3, [pc, #176]	; (801b214 <_fclose_r+0xcc>)
 801b162:	429c      	cmp	r4, r3
 801b164:	d114      	bne.n	801b190 <_fclose_r+0x48>
 801b166:	686c      	ldr	r4, [r5, #4]
 801b168:	6e63      	ldr	r3, [r4, #100]	; 0x64
 801b16a:	07d8      	lsls	r0, r3, #31
 801b16c:	d405      	bmi.n	801b17a <_fclose_r+0x32>
 801b16e:	89a3      	ldrh	r3, [r4, #12]
 801b170:	0599      	lsls	r1, r3, #22
 801b172:	d402      	bmi.n	801b17a <_fclose_r+0x32>
 801b174:	6da0      	ldr	r0, [r4, #88]	; 0x58
 801b176:	f7fe ff6b 	bl	801a050 <__retarget_lock_acquire_recursive>
 801b17a:	f9b4 300c 	ldrsh.w	r3, [r4, #12]
 801b17e:	b98b      	cbnz	r3, 801b1a4 <_fclose_r+0x5c>
 801b180:	6e66      	ldr	r6, [r4, #100]	; 0x64
 801b182:	f016 0601 	ands.w	r6, r6, #1
 801b186:	d1e3      	bne.n	801b150 <_fclose_r+0x8>
 801b188:	6da0      	ldr	r0, [r4, #88]	; 0x58
 801b18a:	f7fe ff62 	bl	801a052 <__retarget_lock_release_recursive>
 801b18e:	e7e0      	b.n	801b152 <_fclose_r+0xa>
 801b190:	4b21      	ldr	r3, [pc, #132]	; (801b218 <_fclose_r+0xd0>)
 801b192:	429c      	cmp	r4, r3
 801b194:	d101      	bne.n	801b19a <_fclose_r+0x52>
 801b196:	68ac      	ldr	r4, [r5, #8]
 801b198:	e7e6      	b.n	801b168 <_fclose_r+0x20>
 801b19a:	4b20      	ldr	r3, [pc, #128]	; (801b21c <_fclose_r+0xd4>)
 801b19c:	429c      	cmp	r4, r3
 801b19e:	bf08      	it	eq
 801b1a0:	68ec      	ldreq	r4, [r5, #12]
 801b1a2:	e7e1      	b.n	801b168 <_fclose_r+0x20>
 801b1a4:	4621      	mov	r1, r4
 801b1a6:	4628      	mov	r0, r5
 801b1a8:	f7fe fb0a 	bl	80197c0 <__sflush_r>
 801b1ac:	6b23      	ldr	r3, [r4, #48]	; 0x30
 801b1ae:	4606      	mov	r6, r0
 801b1b0:	b133      	cbz	r3, 801b1c0 <_fclose_r+0x78>
 801b1b2:	6a21      	ldr	r1, [r4, #32]
 801b1b4:	4628      	mov	r0, r5
 801b1b6:	4798      	blx	r3
 801b1b8:	2800      	cmp	r0, #0
 801b1ba:	bfb8      	it	lt
 801b1bc:	f04f 36ff 	movlt.w	r6, #4294967295
 801b1c0:	89a3      	ldrh	r3, [r4, #12]
 801b1c2:	061a      	lsls	r2, r3, #24
 801b1c4:	d503      	bpl.n	801b1ce <_fclose_r+0x86>
 801b1c6:	6921      	ldr	r1, [r4, #16]
 801b1c8:	4628      	mov	r0, r5
 801b1ca:	f7fe fcf7 	bl	8019bbc <_free_r>
 801b1ce:	6b61      	ldr	r1, [r4, #52]	; 0x34
 801b1d0:	b141      	cbz	r1, 801b1e4 <_fclose_r+0x9c>
 801b1d2:	f104 0344 	add.w	r3, r4, #68	; 0x44
 801b1d6:	4299      	cmp	r1, r3
 801b1d8:	d002      	beq.n	801b1e0 <_fclose_r+0x98>
 801b1da:	4628      	mov	r0, r5
 801b1dc:	f7fe fcee 	bl	8019bbc <_free_r>
 801b1e0:	2300      	movs	r3, #0
 801b1e2:	6363      	str	r3, [r4, #52]	; 0x34
 801b1e4:	6ca1      	ldr	r1, [r4, #72]	; 0x48
 801b1e6:	b121      	cbz	r1, 801b1f2 <_fclose_r+0xaa>
 801b1e8:	4628      	mov	r0, r5
 801b1ea:	f7fe fce7 	bl	8019bbc <_free_r>
 801b1ee:	2300      	movs	r3, #0
 801b1f0:	64a3      	str	r3, [r4, #72]	; 0x48
 801b1f2:	f7fe fbf3 	bl	80199dc <__sfp_lock_acquire>
 801b1f6:	2300      	movs	r3, #0
 801b1f8:	81a3      	strh	r3, [r4, #12]
 801b1fa:	6e63      	ldr	r3, [r4, #100]	; 0x64
 801b1fc:	07db      	lsls	r3, r3, #31
 801b1fe:	d402      	bmi.n	801b206 <_fclose_r+0xbe>
 801b200:	6da0      	ldr	r0, [r4, #88]	; 0x58
 801b202:	f7fe ff26 	bl	801a052 <__retarget_lock_release_recursive>
 801b206:	6da0      	ldr	r0, [r4, #88]	; 0x58
 801b208:	f7fe ff21 	bl	801a04e <__retarget_lock_close_recursive>
 801b20c:	f7fe fbec 	bl	80199e8 <__sfp_lock_release>
 801b210:	e79f      	b.n	801b152 <_fclose_r+0xa>
 801b212:	bf00      	nop
 801b214:	0801bbd0 	.word	0x0801bbd0
 801b218:	0801bbf0 	.word	0x0801bbf0
 801b21c:	0801bbb0 	.word	0x0801bbb0

0801b220 <__fputwc>:
 801b220:	e92d 43f7 	stmdb	sp!, {r0, r1, r2, r4, r5, r6, r7, r8, r9, lr}
 801b224:	4680      	mov	r8, r0
 801b226:	460e      	mov	r6, r1
 801b228:	4614      	mov	r4, r2
 801b22a:	f7fe feef 	bl	801a00c <__locale_mb_cur_max>
 801b22e:	2801      	cmp	r0, #1
 801b230:	d11c      	bne.n	801b26c <__fputwc+0x4c>
 801b232:	1e73      	subs	r3, r6, #1
 801b234:	2bfe      	cmp	r3, #254	; 0xfe
 801b236:	d819      	bhi.n	801b26c <__fputwc+0x4c>
 801b238:	4605      	mov	r5, r0
 801b23a:	f88d 6004 	strb.w	r6, [sp, #4]
 801b23e:	2700      	movs	r7, #0
 801b240:	f10d 0904 	add.w	r9, sp, #4
 801b244:	42af      	cmp	r7, r5
 801b246:	d020      	beq.n	801b28a <__fputwc+0x6a>
 801b248:	68a3      	ldr	r3, [r4, #8]
 801b24a:	f817 1009 	ldrb.w	r1, [r7, r9]
 801b24e:	3b01      	subs	r3, #1
 801b250:	2b00      	cmp	r3, #0
 801b252:	60a3      	str	r3, [r4, #8]
 801b254:	da04      	bge.n	801b260 <__fputwc+0x40>
 801b256:	69a2      	ldr	r2, [r4, #24]
 801b258:	4293      	cmp	r3, r2
 801b25a:	db1a      	blt.n	801b292 <__fputwc+0x72>
 801b25c:	290a      	cmp	r1, #10
 801b25e:	d018      	beq.n	801b292 <__fputwc+0x72>
 801b260:	6823      	ldr	r3, [r4, #0]
 801b262:	1c5a      	adds	r2, r3, #1
 801b264:	6022      	str	r2, [r4, #0]
 801b266:	7019      	strb	r1, [r3, #0]
 801b268:	3701      	adds	r7, #1
 801b26a:	e7eb      	b.n	801b244 <__fputwc+0x24>
 801b26c:	4632      	mov	r2, r6
 801b26e:	f104 035c 	add.w	r3, r4, #92	; 0x5c
 801b272:	a901      	add	r1, sp, #4
 801b274:	4640      	mov	r0, r8
 801b276:	f000 f8e1 	bl	801b43c <_wcrtomb_r>
 801b27a:	1c42      	adds	r2, r0, #1
 801b27c:	4605      	mov	r5, r0
 801b27e:	d1de      	bne.n	801b23e <__fputwc+0x1e>
 801b280:	4606      	mov	r6, r0
 801b282:	89a3      	ldrh	r3, [r4, #12]
 801b284:	f043 0340 	orr.w	r3, r3, #64	; 0x40
 801b288:	81a3      	strh	r3, [r4, #12]
 801b28a:	4630      	mov	r0, r6
 801b28c:	b003      	add	sp, #12
 801b28e:	e8bd 83f0 	ldmia.w	sp!, {r4, r5, r6, r7, r8, r9, pc}
 801b292:	4622      	mov	r2, r4
 801b294:	4640      	mov	r0, r8
 801b296:	f000 f873 	bl	801b380 <__swbuf_r>
 801b29a:	1c43      	adds	r3, r0, #1
 801b29c:	d1e4      	bne.n	801b268 <__fputwc+0x48>
 801b29e:	4606      	mov	r6, r0
 801b2a0:	e7f3      	b.n	801b28a <__fputwc+0x6a>

0801b2a2 <_fputwc_r>:
 801b2a2:	6e53      	ldr	r3, [r2, #100]	; 0x64
 801b2a4:	b570      	push	{r4, r5, r6, lr}
 801b2a6:	07db      	lsls	r3, r3, #31
 801b2a8:	4605      	mov	r5, r0
 801b2aa:	460e      	mov	r6, r1
 801b2ac:	4614      	mov	r4, r2
 801b2ae:	d405      	bmi.n	801b2bc <_fputwc_r+0x1a>
 801b2b0:	8993      	ldrh	r3, [r2, #12]
 801b2b2:	0598      	lsls	r0, r3, #22
 801b2b4:	d402      	bmi.n	801b2bc <_fputwc_r+0x1a>
 801b2b6:	6d90      	ldr	r0, [r2, #88]	; 0x58
 801b2b8:	f7fe feca 	bl	801a050 <__retarget_lock_acquire_recursive>
 801b2bc:	f9b4 300c 	ldrsh.w	r3, [r4, #12]
 801b2c0:	0499      	lsls	r1, r3, #18
 801b2c2:	d406      	bmi.n	801b2d2 <_fputwc_r+0x30>
 801b2c4:	f443 5300 	orr.w	r3, r3, #8192	; 0x2000
 801b2c8:	81a3      	strh	r3, [r4, #12]
 801b2ca:	6e63      	ldr	r3, [r4, #100]	; 0x64
 801b2cc:	f443 5300 	orr.w	r3, r3, #8192	; 0x2000
 801b2d0:	6663      	str	r3, [r4, #100]	; 0x64
 801b2d2:	4622      	mov	r2, r4
 801b2d4:	4628      	mov	r0, r5
 801b2d6:	4631      	mov	r1, r6
 801b2d8:	f7ff ffa2 	bl	801b220 <__fputwc>
 801b2dc:	6e63      	ldr	r3, [r4, #100]	; 0x64
 801b2de:	4605      	mov	r5, r0
 801b2e0:	07da      	lsls	r2, r3, #31
 801b2e2:	d405      	bmi.n	801b2f0 <_fputwc_r+0x4e>
 801b2e4:	89a3      	ldrh	r3, [r4, #12]
 801b2e6:	059b      	lsls	r3, r3, #22
 801b2e8:	d402      	bmi.n	801b2f0 <_fputwc_r+0x4e>
 801b2ea:	6da0      	ldr	r0, [r4, #88]	; 0x58
 801b2ec:	f7fe feb1 	bl	801a052 <__retarget_lock_release_recursive>
 801b2f0:	4628      	mov	r0, r5
 801b2f2:	bd70      	pop	{r4, r5, r6, pc}

0801b2f4 <_fstat_r>:
 801b2f4:	b538      	push	{r3, r4, r5, lr}
 801b2f6:	2300      	movs	r3, #0
 801b2f8:	4c06      	ldr	r4, [pc, #24]	; (801b314 <_fstat_r+0x20>)
 801b2fa:	4605      	mov	r5, r0
 801b2fc:	4608      	mov	r0, r1
 801b2fe:	4611      	mov	r1, r2
 801b300:	6023      	str	r3, [r4, #0]
 801b302:	f7fa ff63 	bl	80161cc <_fstat>
 801b306:	1c43      	adds	r3, r0, #1
 801b308:	d102      	bne.n	801b310 <_fstat_r+0x1c>
 801b30a:	6823      	ldr	r3, [r4, #0]
 801b30c:	b103      	cbz	r3, 801b310 <_fstat_r+0x1c>
 801b30e:	602b      	str	r3, [r5, #0]
 801b310:	bd38      	pop	{r3, r4, r5, pc}
 801b312:	bf00      	nop
 801b314:	20002334 	.word	0x20002334

0801b318 <_isatty_r>:
 801b318:	b538      	push	{r3, r4, r5, lr}
 801b31a:	2300      	movs	r3, #0
 801b31c:	4c05      	ldr	r4, [pc, #20]	; (801b334 <_isatty_r+0x1c>)
 801b31e:	4605      	mov	r5, r0
 801b320:	4608      	mov	r0, r1
 801b322:	6023      	str	r3, [r4, #0]
 801b324:	f7fa ff64 	bl	80161f0 <_isatty>
 801b328:	1c43      	adds	r3, r0, #1
 801b32a:	d102      	bne.n	801b332 <_isatty_r+0x1a>
 801b32c:	6823      	ldr	r3, [r4, #0]
 801b32e:	b103      	cbz	r3, 801b332 <_isatty_r+0x1a>
 801b330:	602b      	str	r3, [r5, #0]
 801b332:	bd38      	pop	{r3, r4, r5, pc}
 801b334:	20002334 	.word	0x20002334

0801b338 <_lseek_r>:
 801b338:	b538      	push	{r3, r4, r5, lr}
 801b33a:	4605      	mov	r5, r0
 801b33c:	4608      	mov	r0, r1
 801b33e:	4611      	mov	r1, r2
 801b340:	2200      	movs	r2, #0
 801b342:	4c05      	ldr	r4, [pc, #20]	; (801b358 <_lseek_r+0x20>)
 801b344:	6022      	str	r2, [r4, #0]
 801b346:	461a      	mov	r2, r3
 801b348:	f7fa ff62 	bl	8016210 <_lseek>
 801b34c:	1c43      	adds	r3, r0, #1
 801b34e:	d102      	bne.n	801b356 <_lseek_r+0x1e>
 801b350:	6823      	ldr	r3, [r4, #0]
 801b352:	b103      	cbz	r3, 801b356 <_lseek_r+0x1e>
 801b354:	602b      	str	r3, [r5, #0]
 801b356:	bd38      	pop	{r3, r4, r5, pc}
 801b358:	20002334 	.word	0x20002334

0801b35c <_read_r>:
 801b35c:	b538      	push	{r3, r4, r5, lr}
 801b35e:	4605      	mov	r5, r0
 801b360:	4608      	mov	r0, r1
 801b362:	4611      	mov	r1, r2
 801b364:	2200      	movs	r2, #0
 801b366:	4c05      	ldr	r4, [pc, #20]	; (801b37c <_read_r+0x20>)
 801b368:	6022      	str	r2, [r4, #0]
 801b36a:	461a      	mov	r2, r3
 801b36c:	f7fa ff62 	bl	8016234 <_read>
 801b370:	1c43      	adds	r3, r0, #1
 801b372:	d102      	bne.n	801b37a <_read_r+0x1e>
 801b374:	6823      	ldr	r3, [r4, #0]
 801b376:	b103      	cbz	r3, 801b37a <_read_r+0x1e>
 801b378:	602b      	str	r3, [r5, #0]
 801b37a:	bd38      	pop	{r3, r4, r5, pc}
 801b37c:	20002334 	.word	0x20002334

0801b380 <__swbuf_r>:
 801b380:	b5f8      	push	{r3, r4, r5, r6, r7, lr}
 801b382:	460e      	mov	r6, r1
 801b384:	4614      	mov	r4, r2
 801b386:	4605      	mov	r5, r0
 801b388:	b118      	cbz	r0, 801b392 <__swbuf_r+0x12>
 801b38a:	6983      	ldr	r3, [r0, #24]
 801b38c:	b90b      	cbnz	r3, 801b392 <__swbuf_r+0x12>
 801b38e:	f7fe fb3d 	bl	8019a0c <__sinit>
 801b392:	4b27      	ldr	r3, [pc, #156]	; (801b430 <__swbuf_r+0xb0>)
 801b394:	429c      	cmp	r4, r3
 801b396:	d12f      	bne.n	801b3f8 <__swbuf_r+0x78>
 801b398:	686c      	ldr	r4, [r5, #4]
 801b39a:	69a3      	ldr	r3, [r4, #24]
 801b39c:	60a3      	str	r3, [r4, #8]
 801b39e:	89a3      	ldrh	r3, [r4, #12]
 801b3a0:	0719      	lsls	r1, r3, #28
 801b3a2:	d533      	bpl.n	801b40c <__swbuf_r+0x8c>
 801b3a4:	6923      	ldr	r3, [r4, #16]
 801b3a6:	2b00      	cmp	r3, #0
 801b3a8:	d030      	beq.n	801b40c <__swbuf_r+0x8c>
 801b3aa:	f9b4 300c 	ldrsh.w	r3, [r4, #12]
 801b3ae:	b2f6      	uxtb	r6, r6
 801b3b0:	049a      	lsls	r2, r3, #18
 801b3b2:	4637      	mov	r7, r6
 801b3b4:	d534      	bpl.n	801b420 <__swbuf_r+0xa0>
 801b3b6:	6923      	ldr	r3, [r4, #16]
 801b3b8:	6820      	ldr	r0, [r4, #0]
 801b3ba:	1ac0      	subs	r0, r0, r3
 801b3bc:	6963      	ldr	r3, [r4, #20]
 801b3be:	4298      	cmp	r0, r3
 801b3c0:	db04      	blt.n	801b3cc <__swbuf_r+0x4c>
 801b3c2:	4621      	mov	r1, r4
 801b3c4:	4628      	mov	r0, r5
 801b3c6:	f7fe fa8d 	bl	80198e4 <_fflush_r>
 801b3ca:	bb28      	cbnz	r0, 801b418 <__swbuf_r+0x98>
 801b3cc:	68a3      	ldr	r3, [r4, #8]
 801b3ce:	3001      	adds	r0, #1
 801b3d0:	3b01      	subs	r3, #1
 801b3d2:	60a3      	str	r3, [r4, #8]
 801b3d4:	6823      	ldr	r3, [r4, #0]
 801b3d6:	1c5a      	adds	r2, r3, #1
 801b3d8:	6022      	str	r2, [r4, #0]
 801b3da:	701e      	strb	r6, [r3, #0]
 801b3dc:	6963      	ldr	r3, [r4, #20]
 801b3de:	4298      	cmp	r0, r3
 801b3e0:	d004      	beq.n	801b3ec <__swbuf_r+0x6c>
 801b3e2:	89a3      	ldrh	r3, [r4, #12]
 801b3e4:	07db      	lsls	r3, r3, #31
 801b3e6:	d519      	bpl.n	801b41c <__swbuf_r+0x9c>
 801b3e8:	2e0a      	cmp	r6, #10
 801b3ea:	d117      	bne.n	801b41c <__swbuf_r+0x9c>
 801b3ec:	4621      	mov	r1, r4
 801b3ee:	4628      	mov	r0, r5
 801b3f0:	f7fe fa78 	bl	80198e4 <_fflush_r>
 801b3f4:	b190      	cbz	r0, 801b41c <__swbuf_r+0x9c>
 801b3f6:	e00f      	b.n	801b418 <__swbuf_r+0x98>
 801b3f8:	4b0e      	ldr	r3, [pc, #56]	; (801b434 <__swbuf_r+0xb4>)
 801b3fa:	429c      	cmp	r4, r3
 801b3fc:	d101      	bne.n	801b402 <__swbuf_r+0x82>
 801b3fe:	68ac      	ldr	r4, [r5, #8]
 801b400:	e7cb      	b.n	801b39a <__swbuf_r+0x1a>
 801b402:	4b0d      	ldr	r3, [pc, #52]	; (801b438 <__swbuf_r+0xb8>)
 801b404:	429c      	cmp	r4, r3
 801b406:	bf08      	it	eq
 801b408:	68ec      	ldreq	r4, [r5, #12]
 801b40a:	e7c6      	b.n	801b39a <__swbuf_r+0x1a>
 801b40c:	4621      	mov	r1, r4
 801b40e:	4628      	mov	r0, r5
 801b410:	f7fd fb06 	bl	8018a20 <__swsetup_r>
 801b414:	2800      	cmp	r0, #0
 801b416:	d0c8      	beq.n	801b3aa <__swbuf_r+0x2a>
 801b418:	f04f 37ff 	mov.w	r7, #4294967295
 801b41c:	4638      	mov	r0, r7
 801b41e:	bdf8      	pop	{r3, r4, r5, r6, r7, pc}
 801b420:	f443 5300 	orr.w	r3, r3, #8192	; 0x2000
 801b424:	81a3      	strh	r3, [r4, #12]
 801b426:	6e63      	ldr	r3, [r4, #100]	; 0x64
 801b428:	f423 5300 	bic.w	r3, r3, #8192	; 0x2000
 801b42c:	6663      	str	r3, [r4, #100]	; 0x64
 801b42e:	e7c2      	b.n	801b3b6 <__swbuf_r+0x36>
 801b430:	0801bbd0 	.word	0x0801bbd0
 801b434:	0801bbf0 	.word	0x0801bbf0
 801b438:	0801bbb0 	.word	0x0801bbb0

0801b43c <_wcrtomb_r>:
 801b43c:	b5f0      	push	{r4, r5, r6, r7, lr}
 801b43e:	4605      	mov	r5, r0
 801b440:	b085      	sub	sp, #20
 801b442:	461e      	mov	r6, r3
 801b444:	460f      	mov	r7, r1
 801b446:	4c0f      	ldr	r4, [pc, #60]	; (801b484 <_wcrtomb_r+0x48>)
 801b448:	b991      	cbnz	r1, 801b470 <_wcrtomb_r+0x34>
 801b44a:	6822      	ldr	r2, [r4, #0]
 801b44c:	490e      	ldr	r1, [pc, #56]	; (801b488 <_wcrtomb_r+0x4c>)
 801b44e:	6a12      	ldr	r2, [r2, #32]
 801b450:	2a00      	cmp	r2, #0
 801b452:	bf08      	it	eq
 801b454:	460a      	moveq	r2, r1
 801b456:	f8d2 40e0 	ldr.w	r4, [r2, #224]	; 0xe0
 801b45a:	463a      	mov	r2, r7
 801b45c:	a901      	add	r1, sp, #4
 801b45e:	47a0      	blx	r4
 801b460:	1c43      	adds	r3, r0, #1
 801b462:	bf01      	itttt	eq
 801b464:	2300      	moveq	r3, #0
 801b466:	6033      	streq	r3, [r6, #0]
 801b468:	238a      	moveq	r3, #138	; 0x8a
 801b46a:	602b      	streq	r3, [r5, #0]
 801b46c:	b005      	add	sp, #20
 801b46e:	bdf0      	pop	{r4, r5, r6, r7, pc}
 801b470:	6824      	ldr	r4, [r4, #0]
 801b472:	4f05      	ldr	r7, [pc, #20]	; (801b488 <_wcrtomb_r+0x4c>)
 801b474:	6a24      	ldr	r4, [r4, #32]
 801b476:	2c00      	cmp	r4, #0
 801b478:	bf08      	it	eq
 801b47a:	463c      	moveq	r4, r7
 801b47c:	f8d4 40e0 	ldr.w	r4, [r4, #224]	; 0xe0
 801b480:	e7ed      	b.n	801b45e <_wcrtomb_r+0x22>
 801b482:	bf00      	nop
 801b484:	20000020 	.word	0x20000020
 801b488:	20000114 	.word	0x20000114

0801b48c <_init>:
 801b48c:	b5f8      	push	{r3, r4, r5, r6, r7, lr}
 801b48e:	bf00      	nop
 801b490:	bcf8      	pop	{r3, r4, r5, r6, r7}
 801b492:	bc08      	pop	{r3}
 801b494:	469e      	mov	lr, r3
 801b496:	4770      	bx	lr

0801b498 <_fini>:
 801b498:	b5f8      	push	{r3, r4, r5, r6, r7, lr}
 801b49a:	bf00      	nop
 801b49c:	bcf8      	pop	{r3, r4, r5, r6, r7}
 801b49e:	bc08      	pop	{r3}
 801b4a0:	469e      	mov	lr, r3
 801b4a2:	4770      	bx	lr
